ARM GAS  C:\Users\Perro\AppData\Local\Temp\cclMvQoy.s 			page 1


   1              		.syntax unified
   2              		.cpu cortex-m3
   3              		.fpu softvfp
   4              		.eabi_attribute 20, 1
   5              		.eabi_attribute 21, 1
   6              		.eabi_attribute 23, 3
   7              		.eabi_attribute 24, 1
   8              		.eabi_attribute 25, 1
   9              		.eabi_attribute 26, 1
  10              		.eabi_attribute 30, 6
  11              		.eabi_attribute 34, 1
  12              		.eabi_attribute 18, 4
  13              		.thumb
  14              		.syntax unified
  15              		.file	"algorithm.c"
  16              		.text
  17              	.Ltext0:
  18              		.cfi_sections	.debug_frame
  19              		.global	auw_hamm
  20              		.section	.rodata
  21              		.align	2
  22              		.type	auw_hamm, %object
  23              		.size	auw_hamm, 62
  24              	auw_hamm:
  25 0000 2900     		.short	41
  26 0002 1401     		.short	276
  27 0004 0002     		.short	512
  28 0006 1401     		.short	276
  29 0008 2900     		.short	41
  30 000a 00000000 		.space	52
  30      00000000 
  30      00000000 
  30      00000000 
  30      00000000 
  31              		.global	uch_spo2_table
  32 003e 0000     		.align	2
  33              		.type	uch_spo2_table, %object
  34              		.size	uch_spo2_table, 184
  35              	uch_spo2_table:
  36 0040 5F       		.byte	95
  37 0041 5F       		.byte	95
  38 0042 5F       		.byte	95
  39 0043 60       		.byte	96
  40 0044 60       		.byte	96
  41 0045 60       		.byte	96
  42 0046 61       		.byte	97
  43 0047 61       		.byte	97
  44 0048 61       		.byte	97
  45 0049 61       		.byte	97
  46 004a 61       		.byte	97
  47 004b 62       		.byte	98
  48 004c 62       		.byte	98
  49 004d 62       		.byte	98
  50 004e 62       		.byte	98
  51 004f 62       		.byte	98
  52 0050 63       		.byte	99
  53 0051 63       		.byte	99
ARM GAS  C:\Users\Perro\AppData\Local\Temp\cclMvQoy.s 			page 2


  54 0052 63       		.byte	99
  55 0053 63       		.byte	99
  56 0054 63       		.byte	99
  57 0055 63       		.byte	99
  58 0056 63       		.byte	99
  59 0057 63       		.byte	99
  60 0058 64       		.byte	100
  61 0059 64       		.byte	100
  62 005a 64       		.byte	100
  63 005b 64       		.byte	100
  64 005c 64       		.byte	100
  65 005d 64       		.byte	100
  66 005e 64       		.byte	100
  67 005f 64       		.byte	100
  68 0060 64       		.byte	100
  69 0061 64       		.byte	100
  70 0062 64       		.byte	100
  71 0063 64       		.byte	100
  72 0064 64       		.byte	100
  73 0065 64       		.byte	100
  74 0066 64       		.byte	100
  75 0067 64       		.byte	100
  76 0068 64       		.byte	100
  77 0069 64       		.byte	100
  78 006a 64       		.byte	100
  79 006b 64       		.byte	100
  80 006c 63       		.byte	99
  81 006d 63       		.byte	99
  82 006e 63       		.byte	99
  83 006f 63       		.byte	99
  84 0070 63       		.byte	99
  85 0071 63       		.byte	99
  86 0072 63       		.byte	99
  87 0073 63       		.byte	99
  88 0074 62       		.byte	98
  89 0075 62       		.byte	98
  90 0076 62       		.byte	98
  91 0077 62       		.byte	98
  92 0078 62       		.byte	98
  93 0079 62       		.byte	98
  94 007a 61       		.byte	97
  95 007b 61       		.byte	97
  96 007c 61       		.byte	97
  97 007d 61       		.byte	97
  98 007e 60       		.byte	96
  99 007f 60       		.byte	96
 100 0080 60       		.byte	96
 101 0081 60       		.byte	96
 102 0082 5F       		.byte	95
 103 0083 5F       		.byte	95
 104 0084 5F       		.byte	95
 105 0085 5E       		.byte	94
 106 0086 5E       		.byte	94
 107 0087 5E       		.byte	94
 108 0088 5D       		.byte	93
 109 0089 5D       		.byte	93
 110 008a 5D       		.byte	93
ARM GAS  C:\Users\Perro\AppData\Local\Temp\cclMvQoy.s 			page 3


 111 008b 5C       		.byte	92
 112 008c 5C       		.byte	92
 113 008d 5C       		.byte	92
 114 008e 5B       		.byte	91
 115 008f 5B       		.byte	91
 116 0090 5A       		.byte	90
 117 0091 5A       		.byte	90
 118 0092 59       		.byte	89
 119 0093 59       		.byte	89
 120 0094 59       		.byte	89
 121 0095 58       		.byte	88
 122 0096 58       		.byte	88
 123 0097 57       		.byte	87
 124 0098 57       		.byte	87
 125 0099 56       		.byte	86
 126 009a 56       		.byte	86
 127 009b 55       		.byte	85
 128 009c 55       		.byte	85
 129 009d 54       		.byte	84
 130 009e 54       		.byte	84
 131 009f 53       		.byte	83
 132 00a0 52       		.byte	82
 133 00a1 52       		.byte	82
 134 00a2 51       		.byte	81
 135 00a3 51       		.byte	81
 136 00a4 50       		.byte	80
 137 00a5 50       		.byte	80
 138 00a6 4F       		.byte	79
 139 00a7 4E       		.byte	78
 140 00a8 4E       		.byte	78
 141 00a9 4D       		.byte	77
 142 00aa 4C       		.byte	76
 143 00ab 4C       		.byte	76
 144 00ac 4B       		.byte	75
 145 00ad 4A       		.byte	74
 146 00ae 4A       		.byte	74
 147 00af 49       		.byte	73
 148 00b0 48       		.byte	72
 149 00b1 48       		.byte	72
 150 00b2 47       		.byte	71
 151 00b3 46       		.byte	70
 152 00b4 45       		.byte	69
 153 00b5 45       		.byte	69
 154 00b6 44       		.byte	68
 155 00b7 43       		.byte	67
 156 00b8 42       		.byte	66
 157 00b9 42       		.byte	66
 158 00ba 41       		.byte	65
 159 00bb 40       		.byte	64
 160 00bc 3F       		.byte	63
 161 00bd 3E       		.byte	62
 162 00be 3E       		.byte	62
 163 00bf 3D       		.byte	61
 164 00c0 3C       		.byte	60
 165 00c1 3B       		.byte	59
 166 00c2 3A       		.byte	58
 167 00c3 39       		.byte	57
ARM GAS  C:\Users\Perro\AppData\Local\Temp\cclMvQoy.s 			page 4


 168 00c4 38       		.byte	56
 169 00c5 38       		.byte	56
 170 00c6 37       		.byte	55
 171 00c7 36       		.byte	54
 172 00c8 35       		.byte	53
 173 00c9 34       		.byte	52
 174 00ca 33       		.byte	51
 175 00cb 32       		.byte	50
 176 00cc 31       		.byte	49
 177 00cd 30       		.byte	48
 178 00ce 2F       		.byte	47
 179 00cf 2E       		.byte	46
 180 00d0 2D       		.byte	45
 181 00d1 2C       		.byte	44
 182 00d2 2B       		.byte	43
 183 00d3 2A       		.byte	42
 184 00d4 29       		.byte	41
 185 00d5 28       		.byte	40
 186 00d6 27       		.byte	39
 187 00d7 26       		.byte	38
 188 00d8 25       		.byte	37
 189 00d9 24       		.byte	36
 190 00da 23       		.byte	35
 191 00db 22       		.byte	34
 192 00dc 21       		.byte	33
 193 00dd 1F       		.byte	31
 194 00de 1E       		.byte	30
 195 00df 1D       		.byte	29
 196 00e0 1C       		.byte	28
 197 00e1 1B       		.byte	27
 198 00e2 1A       		.byte	26
 199 00e3 19       		.byte	25
 200 00e4 17       		.byte	23
 201 00e5 16       		.byte	22
 202 00e6 15       		.byte	21
 203 00e7 14       		.byte	20
 204 00e8 13       		.byte	19
 205 00e9 11       		.byte	17
 206 00ea 10       		.byte	16
 207 00eb 0F       		.byte	15
 208 00ec 0E       		.byte	14
 209 00ed 0C       		.byte	12
 210 00ee 0B       		.byte	11
 211 00ef 0A       		.byte	10
 212 00f0 09       		.byte	9
 213 00f1 07       		.byte	7
 214 00f2 06       		.byte	6
 215 00f3 05       		.byte	5
 216 00f4 03       		.byte	3
 217 00f5 02       		.byte	2
 218 00f6 01       		.byte	1
 219 00f7 00       		.space	1
 220              		.bss
 221              		.align	2
 222              	an_dx:
 223 0000 00000000 		.space	984
 223      00000000 
ARM GAS  C:\Users\Perro\AppData\Local\Temp\cclMvQoy.s 			page 5


 223      00000000 
 223      00000000 
 223      00000000 
 224              		.align	2
 225              	an_x:
 226 03d8 00000000 		.space	1000
 226      00000000 
 226      00000000 
 226      00000000 
 226      00000000 
 227              		.align	2
 228              	an_y:
 229 07c0 00000000 		.space	1000
 229      00000000 
 229      00000000 
 229      00000000 
 229      00000000 
 230              		.section	.text.maxim_heart_rate_and_oxygen_saturation,"ax",%progbits
 231              		.align	2
 232              		.global	maxim_heart_rate_and_oxygen_saturation
 233              		.thumb
 234              		.thumb_func
 235              		.type	maxim_heart_rate_and_oxygen_saturation, %function
 236              	maxim_heart_rate_and_oxygen_saturation:
 237              	.LFB63:
 238              		.file 1 "algorithm.c"
   1:algorithm.c   **** /* ========================================
   2:algorithm.c   ****  *
   3:algorithm.c   ****  * Copyright YOUR COMPANY, THE YEAR
   4:algorithm.c   ****  * All Rights Reserved
   5:algorithm.c   ****  * UNPUBLISHED, LICENSED SOFTWARE.
   6:algorithm.c   ****  *
   7:algorithm.c   ****  * CONFIDENTIAL AND PROPRIETARY INFORMATION
   8:algorithm.c   ****  * WHICH IS THE PROPERTY OF your company.
   9:algorithm.c   ****  *
  10:algorithm.c   ****  * ========================================
  11:algorithm.c   **** */
  12:algorithm.c   **** 
  13:algorithm.c   **** #include "algorithm.h"
  14:algorithm.c   **** #include "project.h"
  15:algorithm.c   **** //#include "mbed.h"
  16:algorithm.c   **** 
  17:algorithm.c   **** 
  18:algorithm.c   **** const uint16_t auw_hamm[31]={ 41,    276,    512,    276,     41 }; //Hamm=  long16(512* hamming(5)
  19:algorithm.c   **** //uch_spo2_table is computed as  -45.060*ratioAverage* ratioAverage + 30.354 *ratioAverage + 94.845
  20:algorithm.c   **** const uint8_t uch_spo2_table[184]={ 95, 95, 95, 96, 96, 96, 97, 97, 97, 97, 97, 98, 98, 98, 98, 98,
  21:algorithm.c   ****                             99, 99, 99, 99, 100, 100, 100, 100, 100, 100, 100, 100, 100, 100, 100, 
  22:algorithm.c   ****                             100, 100, 100, 100, 99, 99, 99, 99, 99, 99, 99, 99, 98, 98, 98, 98, 98,
  23:algorithm.c   ****                             97, 97, 96, 96, 96, 96, 95, 95, 95, 94, 94, 94, 93, 93, 93, 92, 92, 92,
  24:algorithm.c   ****                             90, 90, 89, 89, 89, 88, 88, 87, 87, 86, 86, 85, 85, 84, 84, 83, 82, 82,
  25:algorithm.c   ****                             80, 80, 79, 78, 78, 77, 76, 76, 75, 74, 74, 73, 72, 72, 71, 70, 69, 69,
  26:algorithm.c   ****                             66, 66, 65, 64, 63, 62, 62, 61, 60, 59, 58, 57, 56, 56, 55, 54, 53, 52,
  27:algorithm.c   ****                             49, 48, 47, 46, 45, 44, 43, 42, 41, 40, 39, 38, 37, 36, 35, 34, 33, 31,
  28:algorithm.c   ****                             28, 27, 26, 25, 23, 22, 21, 20, 19, 17, 16, 15, 14, 12, 11, 10, 9, 7, 6
  29:algorithm.c   ****                             3, 2, 1 } ;
  30:algorithm.c   **** static  int32_t an_dx[ BUFFER_SIZE-MA4_SIZE]; // delta
  31:algorithm.c   **** static  int32_t an_x[ BUFFER_SIZE]; //ir
ARM GAS  C:\Users\Perro\AppData\Local\Temp\cclMvQoy.s 			page 6


  32:algorithm.c   **** static  int32_t an_y[ BUFFER_SIZE]; //red
  33:algorithm.c   ****                             
  34:algorithm.c   **** void maxim_heart_rate_and_oxygen_saturation(uint32_t *pun_ir_buffer,  int32_t n_ir_buffer_length, u
  35:algorithm.c   ****                               int32_t *pn_heart_rate, int8_t  *pch_hr_valid)
  36:algorithm.c   **** /**
  37:algorithm.c   **** * \brief        Calculate the heart rate and SpO2 level
  38:algorithm.c   **** * \par          Details
  39:algorithm.c   **** *               By detecting  peaks of PPG cycle and corresponding AC/DC of red/infra-red signal, t
  40:algorithm.c   **** *               Since this algorithm is aiming for Arm M0/M3. formaula for SPO2 did not achieve the
  41:algorithm.c   **** *               Thus, accurate SPO2 is precalculated and save longo uch_spo2_table[] per each ratio
  42:algorithm.c   **** *
  43:algorithm.c   **** * \param[in]    *pun_ir_buffer           - IR sensor data buffer
  44:algorithm.c   **** * \param[in]    n_ir_buffer_length      - IR sensor data buffer length
  45:algorithm.c   **** * \param[in]    *pun_red_buffer          - Red sensor data buffer
  46:algorithm.c   **** * \param[out]    *pn_spo2                - Calculated SpO2 value
  47:algorithm.c   **** * \param[out]    *pch_spo2_valid         - 1 if the calculated SpO2 value is valid
  48:algorithm.c   **** * \param[out]    *pn_heart_rate          - Calculated heart rate value
  49:algorithm.c   **** * \param[out]    *pch_hr_valid           - 1 if the calculated heart rate value is valid
  50:algorithm.c   **** *
  51:algorithm.c   **** * \retval       None
  52:algorithm.c   **** */
  53:algorithm.c   **** {
 239              		.loc 1 53 0
 240              		.cfi_startproc
 241              		@ args = 12, pretend = 0, frame = 312
 242              		@ frame_needed = 1, uses_anonymous_args = 0
 243 0000 90B5     		push	{r4, r7, lr}
 244              		.cfi_def_cfa_offset 12
 245              		.cfi_offset 4, -12
 246              		.cfi_offset 7, -8
 247              		.cfi_offset 14, -4
 248 0002 D3B0     		sub	sp, sp, #332
 249              		.cfi_def_cfa_offset 344
 250 0004 04AF     		add	r7, sp, #16
 251              		.cfi_def_cfa 7, 328
 252 0006 07F10C04 		add	r4, r7, #12
 253 000a 2060     		str	r0, [r4]
 254 000c 07F10800 		add	r0, r7, #8
 255 0010 0160     		str	r1, [r0]
 256 0012 391D     		adds	r1, r7, #4
 257 0014 0A60     		str	r2, [r1]
 258 0016 3A46     		mov	r2, r7
 259 0018 1360     		str	r3, [r2]
  54:algorithm.c   ****     uint32_t un_ir_mean ,un_only_once ;
  55:algorithm.c   ****     int32_t k ,n_i_ratio_count;
  56:algorithm.c   ****     int32_t i, s, m, n_exact_ir_valley_locs_count ,n_middle_idx;
  57:algorithm.c   ****     int32_t n_th1, n_npks,n_c_min;      
  58:algorithm.c   ****     int32_t an_ir_valley_locs[15] ;
  59:algorithm.c   ****     int32_t an_exact_ir_valley_locs[15] ;
  60:algorithm.c   ****     int32_t an_dx_peak_locs[15] ;
  61:algorithm.c   ****     int32_t n_peak_interval_sum;
  62:algorithm.c   ****     
  63:algorithm.c   ****     int32_t n_y_ac, n_x_ac;
  64:algorithm.c   ****     int32_t n_spo2_calc; 
  65:algorithm.c   ****     int32_t n_y_dc_max, n_x_dc_max; 
  66:algorithm.c   ****     int32_t n_y_dc_max_idx, n_x_dc_max_idx; 
  67:algorithm.c   ****     int32_t an_ratio[5],n_ratio_average; 
ARM GAS  C:\Users\Perro\AppData\Local\Temp\cclMvQoy.s 			page 7


  68:algorithm.c   ****     int32_t n_nume,  n_denom ;
  69:algorithm.c   ****     // remove DC of ir signal    
  70:algorithm.c   ****     un_ir_mean =0; 
 260              		.loc 1 70 0
 261 001a 0023     		movs	r3, #0
 262 001c C7F83431 		str	r3, [r7, #308]
  71:algorithm.c   ****     for (k=0 ; k<n_ir_buffer_length ; k++ ) un_ir_mean += pun_ir_buffer[k] ;
 263              		.loc 1 71 0
 264 0020 0023     		movs	r3, #0
 265 0022 C7F82C31 		str	r3, [r7, #300]
 266 0026 11E0     		b	.L2
 267              	.L3:
 268              		.loc 1 71 0 is_stmt 0 discriminator 3
 269 0028 D7F82C31 		ldr	r3, [r7, #300]
 270 002c 9B00     		lsls	r3, r3, #2
 271 002e 07F10C02 		add	r2, r7, #12
 272 0032 1268     		ldr	r2, [r2]
 273 0034 1344     		add	r3, r3, r2
 274 0036 1B68     		ldr	r3, [r3]
 275 0038 D7F83421 		ldr	r2, [r7, #308]
 276 003c 1344     		add	r3, r3, r2
 277 003e C7F83431 		str	r3, [r7, #308]
 278 0042 D7F82C31 		ldr	r3, [r7, #300]
 279 0046 0133     		adds	r3, r3, #1
 280 0048 C7F82C31 		str	r3, [r7, #300]
 281              	.L2:
 282              		.loc 1 71 0 discriminator 1
 283 004c 07F10803 		add	r3, r7, #8
 284 0050 D7F82C21 		ldr	r2, [r7, #300]
 285 0054 1B68     		ldr	r3, [r3]
 286 0056 9A42     		cmp	r2, r3
 287 0058 E6DB     		blt	.L3
  72:algorithm.c   ****     un_ir_mean =un_ir_mean/n_ir_buffer_length ;
 288              		.loc 1 72 0 is_stmt 1
 289 005a 07F10803 		add	r3, r7, #8
 290 005e 1B68     		ldr	r3, [r3]
 291 0060 D7F83421 		ldr	r2, [r7, #308]
 292 0064 B2FBF3F3 		udiv	r3, r2, r3
 293 0068 C7F83431 		str	r3, [r7, #308]
  73:algorithm.c   ****     for (k=0 ; k<n_ir_buffer_length ; k++ )  an_x[k] =  pun_ir_buffer[k] - un_ir_mean ; 
 294              		.loc 1 73 0
 295 006c 0023     		movs	r3, #0
 296 006e C7F82C31 		str	r3, [r7, #300]
 297 0072 15E0     		b	.L4
 298              	.L5:
 299              		.loc 1 73 0 is_stmt 0 discriminator 3
 300 0074 D7F82C31 		ldr	r3, [r7, #300]
 301 0078 9B00     		lsls	r3, r3, #2
 302 007a 07F10C02 		add	r2, r7, #12
 303 007e 1268     		ldr	r2, [r2]
 304 0080 1344     		add	r3, r3, r2
 305 0082 1A68     		ldr	r2, [r3]
 306 0084 D7F83431 		ldr	r3, [r7, #308]
 307 0088 D31A     		subs	r3, r2, r3
 308 008a 1946     		mov	r1, r3
 309 008c DB4A     		ldr	r2, .L57
 310 008e D7F82C31 		ldr	r3, [r7, #300]
ARM GAS  C:\Users\Perro\AppData\Local\Temp\cclMvQoy.s 			page 8


 311 0092 42F82310 		str	r1, [r2, r3, lsl #2]
 312 0096 D7F82C31 		ldr	r3, [r7, #300]
 313 009a 0133     		adds	r3, r3, #1
 314 009c C7F82C31 		str	r3, [r7, #300]
 315              	.L4:
 316              		.loc 1 73 0 discriminator 1
 317 00a0 07F10803 		add	r3, r7, #8
 318 00a4 D7F82C21 		ldr	r2, [r7, #300]
 319 00a8 1B68     		ldr	r3, [r3]
 320 00aa 9A42     		cmp	r2, r3
 321 00ac E2DB     		blt	.L5
  74:algorithm.c   ****     
  75:algorithm.c   ****     // 4 pt Moving Average
  76:algorithm.c   ****     for(k=0; k< BUFFER_SIZE-MA4_SIZE; k++){
 322              		.loc 1 76 0 is_stmt 1
 323 00ae 0023     		movs	r3, #0
 324 00b0 C7F82C31 		str	r3, [r7, #300]
 325 00b4 2CE0     		b	.L6
 326              	.L8:
  77:algorithm.c   ****         n_denom= ( an_x[k]+an_x[k+1]+ an_x[k+2]+ an_x[k+3]);
 327              		.loc 1 77 0 discriminator 3
 328 00b6 D14A     		ldr	r2, .L57
 329 00b8 D7F82C31 		ldr	r3, [r7, #300]
 330 00bc 52F82320 		ldr	r2, [r2, r3, lsl #2]
 331 00c0 D7F82C31 		ldr	r3, [r7, #300]
 332 00c4 0133     		adds	r3, r3, #1
 333 00c6 CD49     		ldr	r1, .L57
 334 00c8 51F82330 		ldr	r3, [r1, r3, lsl #2]
 335 00cc 1A44     		add	r2, r2, r3
 336 00ce D7F82C31 		ldr	r3, [r7, #300]
 337 00d2 0233     		adds	r3, r3, #2
 338 00d4 C949     		ldr	r1, .L57
 339 00d6 51F82330 		ldr	r3, [r1, r3, lsl #2]
 340 00da 1A44     		add	r2, r2, r3
 341 00dc D7F82C31 		ldr	r3, [r7, #300]
 342 00e0 0333     		adds	r3, r3, #3
 343 00e2 C649     		ldr	r1, .L57
 344 00e4 51F82330 		ldr	r3, [r1, r3, lsl #2]
 345 00e8 1344     		add	r3, r3, r2
 346 00ea C7F8F830 		str	r3, [r7, #248]
  78:algorithm.c   ****         an_x[k]=  n_denom/(int32_t)4; 
 347              		.loc 1 78 0 discriminator 3
 348 00ee D7F8F830 		ldr	r3, [r7, #248]
 349 00f2 002B     		cmp	r3, #0
 350 00f4 00DA     		bge	.L7
 351 00f6 0333     		adds	r3, r3, #3
 352              	.L7:
 353 00f8 9B10     		asrs	r3, r3, #2
 354 00fa 1946     		mov	r1, r3
 355 00fc BF4A     		ldr	r2, .L57
 356 00fe D7F82C31 		ldr	r3, [r7, #300]
 357 0102 42F82310 		str	r1, [r2, r3, lsl #2]
  76:algorithm.c   ****         n_denom= ( an_x[k]+an_x[k+1]+ an_x[k+2]+ an_x[k+3]);
 358              		.loc 1 76 0 discriminator 3
 359 0106 D7F82C31 		ldr	r3, [r7, #300]
 360 010a 0133     		adds	r3, r3, #1
 361 010c C7F82C31 		str	r3, [r7, #300]
ARM GAS  C:\Users\Perro\AppData\Local\Temp\cclMvQoy.s 			page 9


 362              	.L6:
  76:algorithm.c   ****         n_denom= ( an_x[k]+an_x[k+1]+ an_x[k+2]+ an_x[k+3]);
 363              		.loc 1 76 0 is_stmt 0 discriminator 1
 364 0110 D7F82C31 		ldr	r3, [r7, #300]
 365 0114 F52B     		cmp	r3, #245
 366 0116 CEDD     		ble	.L8
  79:algorithm.c   ****     }
  80:algorithm.c   **** 
  81:algorithm.c   ****     // get difference of smoothed IR signal
  82:algorithm.c   ****     
  83:algorithm.c   ****     for( k=0; k<BUFFER_SIZE-MA4_SIZE-1;  k++)
 367              		.loc 1 83 0 is_stmt 1
 368 0118 0023     		movs	r3, #0
 369 011a C7F82C31 		str	r3, [r7, #300]
 370 011e 15E0     		b	.L9
 371              	.L10:
  84:algorithm.c   ****         an_dx[k]= (an_x[k+1]- an_x[k]);
 372              		.loc 1 84 0 discriminator 3
 373 0120 D7F82C31 		ldr	r3, [r7, #300]
 374 0124 0133     		adds	r3, r3, #1
 375 0126 B54A     		ldr	r2, .L57
 376 0128 52F82320 		ldr	r2, [r2, r3, lsl #2]
 377 012c B349     		ldr	r1, .L57
 378 012e D7F82C31 		ldr	r3, [r7, #300]
 379 0132 51F82330 		ldr	r3, [r1, r3, lsl #2]
 380 0136 D21A     		subs	r2, r2, r3
 381 0138 B149     		ldr	r1, .L57+4
 382 013a D7F82C31 		ldr	r3, [r7, #300]
 383 013e 41F82320 		str	r2, [r1, r3, lsl #2]
  83:algorithm.c   ****         an_dx[k]= (an_x[k+1]- an_x[k]);
 384              		.loc 1 83 0 discriminator 3
 385 0142 D7F82C31 		ldr	r3, [r7, #300]
 386 0146 0133     		adds	r3, r3, #1
 387 0148 C7F82C31 		str	r3, [r7, #300]
 388              	.L9:
  83:algorithm.c   ****         an_dx[k]= (an_x[k+1]- an_x[k]);
 389              		.loc 1 83 0 is_stmt 0 discriminator 1
 390 014c D7F82C31 		ldr	r3, [r7, #300]
 391 0150 F42B     		cmp	r3, #244
 392 0152 E5DD     		ble	.L10
  85:algorithm.c   **** 
  86:algorithm.c   ****     // 2-pt Moving Average to an_dx
  87:algorithm.c   ****     for(k=0; k< BUFFER_SIZE-MA4_SIZE-2; k++){
 393              		.loc 1 87 0 is_stmt 1
 394 0154 0023     		movs	r3, #0
 395 0156 C7F82C31 		str	r3, [r7, #300]
 396 015a 19E0     		b	.L11
 397              	.L12:
  88:algorithm.c   ****         an_dx[k] =  ( an_dx[k]+an_dx[k+1])/2 ;
 398              		.loc 1 88 0 discriminator 3
 399 015c A84A     		ldr	r2, .L57+4
 400 015e D7F82C31 		ldr	r3, [r7, #300]
 401 0162 52F82320 		ldr	r2, [r2, r3, lsl #2]
 402 0166 D7F82C31 		ldr	r3, [r7, #300]
 403 016a 0133     		adds	r3, r3, #1
 404 016c A449     		ldr	r1, .L57+4
 405 016e 51F82330 		ldr	r3, [r1, r3, lsl #2]
ARM GAS  C:\Users\Perro\AppData\Local\Temp\cclMvQoy.s 			page 10


 406 0172 1344     		add	r3, r3, r2
 407 0174 DA0F     		lsrs	r2, r3, #31
 408 0176 1344     		add	r3, r3, r2
 409 0178 5B10     		asrs	r3, r3, #1
 410 017a 1946     		mov	r1, r3
 411 017c A04A     		ldr	r2, .L57+4
 412 017e D7F82C31 		ldr	r3, [r7, #300]
 413 0182 42F82310 		str	r1, [r2, r3, lsl #2]
  87:algorithm.c   ****         an_dx[k] =  ( an_dx[k]+an_dx[k+1])/2 ;
 414              		.loc 1 87 0 discriminator 3
 415 0186 D7F82C31 		ldr	r3, [r7, #300]
 416 018a 0133     		adds	r3, r3, #1
 417 018c C7F82C31 		str	r3, [r7, #300]
 418              	.L11:
  87:algorithm.c   ****         an_dx[k] =  ( an_dx[k]+an_dx[k+1])/2 ;
 419              		.loc 1 87 0 is_stmt 0 discriminator 1
 420 0190 D7F82C31 		ldr	r3, [r7, #300]
 421 0194 F32B     		cmp	r3, #243
 422 0196 E1DD     		ble	.L12
  89:algorithm.c   ****     }
  90:algorithm.c   ****     
  91:algorithm.c   ****     // hamming window
  92:algorithm.c   ****     // flip wave form so that we can detect valley with peak detector
  93:algorithm.c   ****     for ( i=0 ; i<BUFFER_SIZE-HAMMING_SIZE-MA4_SIZE-2 ;i++){
 423              		.loc 1 93 0 is_stmt 1
 424 0198 0023     		movs	r3, #0
 425 019a C7F82431 		str	r3, [r7, #292]
 426 019e 39E0     		b	.L13
 427              	.L16:
  94:algorithm.c   ****         s= 0;
 428              		.loc 1 94 0
 429 01a0 0023     		movs	r3, #0
 430 01a2 C7F82031 		str	r3, [r7, #288]
  95:algorithm.c   ****         for( k=i; k<i+ HAMMING_SIZE ;k++){
 431              		.loc 1 95 0
 432 01a6 D7F82431 		ldr	r3, [r7, #292]
 433 01aa C7F82C31 		str	r3, [r7, #300]
 434 01ae 18E0     		b	.L14
 435              	.L15:
  96:algorithm.c   ****             s -= an_dx[k] *auw_hamm[k-i] ; 
 436              		.loc 1 96 0 discriminator 3
 437 01b0 934A     		ldr	r2, .L57+4
 438 01b2 D7F82C31 		ldr	r3, [r7, #300]
 439 01b6 52F82330 		ldr	r3, [r2, r3, lsl #2]
 440 01ba D7F82C11 		ldr	r1, [r7, #300]
 441 01be D7F82421 		ldr	r2, [r7, #292]
 442 01c2 8A1A     		subs	r2, r1, r2
 443 01c4 8F49     		ldr	r1, .L57+8
 444 01c6 31F81220 		ldrh	r2, [r1, r2, lsl #1]
 445 01ca 02FB03F3 		mul	r3, r2, r3
 446 01ce D7F82021 		ldr	r2, [r7, #288]
 447 01d2 D31A     		subs	r3, r2, r3
 448 01d4 C7F82031 		str	r3, [r7, #288]
  95:algorithm.c   ****         for( k=i; k<i+ HAMMING_SIZE ;k++){
 449              		.loc 1 95 0 discriminator 3
 450 01d8 D7F82C31 		ldr	r3, [r7, #300]
 451 01dc 0133     		adds	r3, r3, #1
ARM GAS  C:\Users\Perro\AppData\Local\Temp\cclMvQoy.s 			page 11


 452 01de C7F82C31 		str	r3, [r7, #300]
 453              	.L14:
  95:algorithm.c   ****         for( k=i; k<i+ HAMMING_SIZE ;k++){
 454              		.loc 1 95 0 is_stmt 0 discriminator 1
 455 01e2 D7F82431 		ldr	r3, [r7, #292]
 456 01e6 5A1D     		adds	r2, r3, #5
 457 01e8 D7F82C31 		ldr	r3, [r7, #300]
 458 01ec 9A42     		cmp	r2, r3
 459 01ee DFDC     		bgt	.L15
  97:algorithm.c   ****                      }
  98:algorithm.c   ****         an_dx[i]= s/ (int32_t)1146; // divide by sum of auw_hamm 
 460              		.loc 1 98 0 is_stmt 1 discriminator 2
 461 01f0 D7F82031 		ldr	r3, [r7, #288]
 462 01f4 844A     		ldr	r2, .L57+12
 463 01f6 82FB0312 		smull	r1, r2, r2, r3
 464 01fa 5212     		asrs	r2, r2, #9
 465 01fc DB17     		asrs	r3, r3, #31
 466 01fe D21A     		subs	r2, r2, r3
 467 0200 7F49     		ldr	r1, .L57+4
 468 0202 D7F82431 		ldr	r3, [r7, #292]
 469 0206 41F82320 		str	r2, [r1, r3, lsl #2]
  93:algorithm.c   ****         s= 0;
 470              		.loc 1 93 0 discriminator 2
 471 020a D7F82431 		ldr	r3, [r7, #292]
 472 020e 0133     		adds	r3, r3, #1
 473 0210 C7F82431 		str	r3, [r7, #292]
 474              	.L13:
  93:algorithm.c   ****         s= 0;
 475              		.loc 1 93 0 is_stmt 0 discriminator 1
 476 0214 D7F82431 		ldr	r3, [r7, #292]
 477 0218 EE2B     		cmp	r3, #238
 478 021a C1DD     		ble	.L16
  99:algorithm.c   ****     }
 100:algorithm.c   **** 
 101:algorithm.c   ****  
 102:algorithm.c   ****     n_th1=0; // threshold calculation
 479              		.loc 1 102 0 is_stmt 1
 480 021c 0023     		movs	r3, #0
 481 021e C7F81831 		str	r3, [r7, #280]
 103:algorithm.c   ****     for ( k=0 ; k<BUFFER_SIZE-HAMMING_SIZE ;k++){
 482              		.loc 1 103 0
 483 0222 0023     		movs	r3, #0
 484 0224 C7F82C31 		str	r3, [r7, #300]
 485 0228 11E0     		b	.L17
 486              	.L18:
 104:algorithm.c   ****         n_th1 += ((an_dx[k]>0)? an_dx[k] : ((int32_t)0-an_dx[k])) ;
 487              		.loc 1 104 0 discriminator 3
 488 022a 754A     		ldr	r2, .L57+4
 489 022c D7F82C31 		ldr	r3, [r7, #300]
 490 0230 52F82330 		ldr	r3, [r2, r3, lsl #2]
 491 0234 002B     		cmp	r3, #0
 492 0236 B8BF     		it	lt
 493 0238 5B42     		rsblt	r3, r3, #0
 494 023a D7F81821 		ldr	r2, [r7, #280]
 495 023e 1344     		add	r3, r3, r2
 496 0240 C7F81831 		str	r3, [r7, #280]
 103:algorithm.c   ****     for ( k=0 ; k<BUFFER_SIZE-HAMMING_SIZE ;k++){
ARM GAS  C:\Users\Perro\AppData\Local\Temp\cclMvQoy.s 			page 12


 497              		.loc 1 103 0 discriminator 3
 498 0244 D7F82C31 		ldr	r3, [r7, #300]
 499 0248 0133     		adds	r3, r3, #1
 500 024a C7F82C31 		str	r3, [r7, #300]
 501              	.L17:
 103:algorithm.c   ****     for ( k=0 ; k<BUFFER_SIZE-HAMMING_SIZE ;k++){
 502              		.loc 1 103 0 is_stmt 0 discriminator 1
 503 024e D7F82C31 		ldr	r3, [r7, #300]
 504 0252 F42B     		cmp	r3, #244
 505 0254 E9DD     		ble	.L18
 105:algorithm.c   ****     }
 106:algorithm.c   ****     n_th1= n_th1/ ( BUFFER_SIZE-HAMMING_SIZE);
 506              		.loc 1 106 0 is_stmt 1
 507 0256 D7F81831 		ldr	r3, [r7, #280]
 508 025a 6C4A     		ldr	r2, .L57+16
 509 025c 82FB0312 		smull	r1, r2, r2, r3
 510 0260 9211     		asrs	r2, r2, #6
 511 0262 DB17     		asrs	r3, r3, #31
 512 0264 D31A     		subs	r3, r2, r3
 513 0266 C7F81831 		str	r3, [r7, #280]
 107:algorithm.c   ****     // peak location is acutally index for sharpest location of raw signal since we flipped the sig
 108:algorithm.c   ****     maxim_find_peaks( an_dx_peak_locs, &n_npks, an_dx, BUFFER_SIZE-HAMMING_SIZE, n_th1, 8, 5 );//pe
 514              		.loc 1 108 0
 515 026a 07F1DC01 		add	r1, r7, #220
 516 026e 07F12800 		add	r0, r7, #40
 517 0272 0523     		movs	r3, #5
 518 0274 0293     		str	r3, [sp, #8]
 519 0276 0823     		movs	r3, #8
 520 0278 0193     		str	r3, [sp, #4]
 521 027a D7F81831 		ldr	r3, [r7, #280]
 522 027e 0093     		str	r3, [sp]
 523 0280 F523     		movs	r3, #245
 524 0282 5F4A     		ldr	r2, .L57+4
 525 0284 FFF7FEFF 		bl	maxim_find_peaks
 109:algorithm.c   **** 
 110:algorithm.c   ****     n_peak_interval_sum =0;
 526              		.loc 1 110 0
 527 0288 0023     		movs	r3, #0
 528 028a C7F81031 		str	r3, [r7, #272]
 111:algorithm.c   ****     if (n_npks>=2){
 529              		.loc 1 111 0
 530 028e D7F8DC30 		ldr	r3, [r7, #220]
 531 0292 012B     		cmp	r3, #1
 532 0294 38DD     		ble	.L19
 112:algorithm.c   ****         for (k=1; k<n_npks; k++)
 533              		.loc 1 112 0
 534 0296 0123     		movs	r3, #1
 535 0298 C7F82C31 		str	r3, [r7, #300]
 536 029c 17E0     		b	.L20
 537              	.L21:
 113:algorithm.c   ****             n_peak_interval_sum += (an_dx_peak_locs[k]-an_dx_peak_locs[k -1]);
 538              		.loc 1 113 0 discriminator 3
 539 029e 07F12803 		add	r3, r7, #40
 540 02a2 D7F82C21 		ldr	r2, [r7, #300]
 541 02a6 53F82220 		ldr	r2, [r3, r2, lsl #2]
 542 02aa D7F82C31 		ldr	r3, [r7, #300]
 543 02ae 591E     		subs	r1, r3, #1
ARM GAS  C:\Users\Perro\AppData\Local\Temp\cclMvQoy.s 			page 13


 544 02b0 07F12803 		add	r3, r7, #40
 545 02b4 53F82130 		ldr	r3, [r3, r1, lsl #2]
 546 02b8 D31A     		subs	r3, r2, r3
 547 02ba D7F81021 		ldr	r2, [r7, #272]
 548 02be 1344     		add	r3, r3, r2
 549 02c0 C7F81031 		str	r3, [r7, #272]
 112:algorithm.c   ****         for (k=1; k<n_npks; k++)
 550              		.loc 1 112 0 discriminator 3
 551 02c4 D7F82C31 		ldr	r3, [r7, #300]
 552 02c8 0133     		adds	r3, r3, #1
 553 02ca C7F82C31 		str	r3, [r7, #300]
 554              	.L20:
 112:algorithm.c   ****         for (k=1; k<n_npks; k++)
 555              		.loc 1 112 0 is_stmt 0 discriminator 1
 556 02ce D7F8DC30 		ldr	r3, [r7, #220]
 557 02d2 D7F82C21 		ldr	r2, [r7, #300]
 558 02d6 9A42     		cmp	r2, r3
 559 02d8 E1DB     		blt	.L21
 114:algorithm.c   ****         n_peak_interval_sum=n_peak_interval_sum/(n_npks-1);
 560              		.loc 1 114 0 is_stmt 1
 561 02da D7F8DC30 		ldr	r3, [r7, #220]
 562 02de 013B     		subs	r3, r3, #1
 563 02e0 D7F81021 		ldr	r2, [r7, #272]
 564 02e4 92FBF3F3 		sdiv	r3, r2, r3
 565 02e8 C7F81031 		str	r3, [r7, #272]
 115:algorithm.c   ****         *pn_heart_rate=(int32_t)(6000/n_peak_interval_sum);// beats per minutes
 566              		.loc 1 115 0
 567 02ec 41F27072 		movw	r2, #6000
 568 02f0 D7F81031 		ldr	r3, [r7, #272]
 569 02f4 92FBF3F2 		sdiv	r2, r2, r3
 570 02f8 D7F84C31 		ldr	r3, [r7, #332]
 571 02fc 1A60     		str	r2, [r3]
 116:algorithm.c   ****         *pch_hr_valid  = 1;
 572              		.loc 1 116 0
 573 02fe D7F85031 		ldr	r3, [r7, #336]
 574 0302 0122     		movs	r2, #1
 575 0304 1A70     		strb	r2, [r3]
 576 0306 07E0     		b	.L22
 577              	.L19:
 117:algorithm.c   ****     }
 118:algorithm.c   ****     else  {
 119:algorithm.c   ****         *pn_heart_rate = -999;
 578              		.loc 1 119 0
 579 0308 D7F84C31 		ldr	r3, [r7, #332]
 580 030c 404A     		ldr	r2, .L57+20
 581 030e 1A60     		str	r2, [r3]
 120:algorithm.c   ****         *pch_hr_valid  = 0;
 582              		.loc 1 120 0
 583 0310 D7F85031 		ldr	r3, [r7, #336]
 584 0314 0022     		movs	r2, #0
 585 0316 1A70     		strb	r2, [r3]
 586              	.L22:
 121:algorithm.c   ****     }
 122:algorithm.c   ****             
 123:algorithm.c   ****     for ( k=0 ; k<n_npks ;k++)
 587              		.loc 1 123 0
 588 0318 0023     		movs	r3, #0
ARM GAS  C:\Users\Perro\AppData\Local\Temp\cclMvQoy.s 			page 14


 589 031a C7F82C31 		str	r3, [r7, #300]
 590 031e 13E0     		b	.L23
 591              	.L24:
 124:algorithm.c   ****         an_ir_valley_locs[k]=an_dx_peak_locs[k]+HAMMING_SIZE/2; 
 592              		.loc 1 124 0 discriminator 3
 593 0320 07F12803 		add	r3, r7, #40
 594 0324 D7F82C21 		ldr	r2, [r7, #300]
 595 0328 53F82230 		ldr	r3, [r3, r2, lsl #2]
 596 032c 9A1C     		adds	r2, r3, #2
 597 032e D7F82C31 		ldr	r3, [r7, #300]
 598 0332 9B00     		lsls	r3, r3, #2
 599 0334 07F59C71 		add	r1, r7, #312
 600 0338 0B44     		add	r3, r3, r1
 601 033a 43F8982C 		str	r2, [r3, #-152]
 123:algorithm.c   ****         an_ir_valley_locs[k]=an_dx_peak_locs[k]+HAMMING_SIZE/2; 
 602              		.loc 1 123 0 discriminator 3
 603 033e D7F82C31 		ldr	r3, [r7, #300]
 604 0342 0133     		adds	r3, r3, #1
 605 0344 C7F82C31 		str	r3, [r7, #300]
 606              	.L23:
 123:algorithm.c   ****         an_ir_valley_locs[k]=an_dx_peak_locs[k]+HAMMING_SIZE/2; 
 607              		.loc 1 123 0 is_stmt 0 discriminator 1
 608 0348 D7F8DC30 		ldr	r3, [r7, #220]
 609 034c D7F82C21 		ldr	r2, [r7, #300]
 610 0350 9A42     		cmp	r2, r3
 611 0352 E5DB     		blt	.L24
 125:algorithm.c   **** 
 126:algorithm.c   **** 
 127:algorithm.c   ****     // raw value : RED(=y) and IR(=X)
 128:algorithm.c   ****     // we need to assess DC and AC value of ir and red PPG. 
 129:algorithm.c   ****     for (k=0 ; k<n_ir_buffer_length ; k++ )  {
 612              		.loc 1 129 0 is_stmt 1
 613 0354 0023     		movs	r3, #0
 614 0356 C7F82C31 		str	r3, [r7, #300]
 615 035a 1FE0     		b	.L25
 616              	.L26:
 130:algorithm.c   ****         an_x[k] =  pun_ir_buffer[k] ; 
 617              		.loc 1 130 0 discriminator 3
 618 035c D7F82C31 		ldr	r3, [r7, #300]
 619 0360 9B00     		lsls	r3, r3, #2
 620 0362 07F10C02 		add	r2, r7, #12
 621 0366 1268     		ldr	r2, [r2]
 622 0368 1344     		add	r3, r3, r2
 623 036a 1B68     		ldr	r3, [r3]
 624 036c 1946     		mov	r1, r3
 625 036e 234A     		ldr	r2, .L57
 626 0370 D7F82C31 		ldr	r3, [r7, #300]
 627 0374 42F82310 		str	r1, [r2, r3, lsl #2]
 131:algorithm.c   ****         an_y[k] =  pun_red_buffer[k] ; 
 628              		.loc 1 131 0 discriminator 3
 629 0378 D7F82C31 		ldr	r3, [r7, #300]
 630 037c 9B00     		lsls	r3, r3, #2
 631 037e 3A1D     		adds	r2, r7, #4
 632 0380 1268     		ldr	r2, [r2]
 633 0382 1344     		add	r3, r3, r2
 634 0384 1B68     		ldr	r3, [r3]
 635 0386 1946     		mov	r1, r3
ARM GAS  C:\Users\Perro\AppData\Local\Temp\cclMvQoy.s 			page 15


 636 0388 224A     		ldr	r2, .L57+24
 637 038a D7F82C31 		ldr	r3, [r7, #300]
 638 038e 42F82310 		str	r1, [r2, r3, lsl #2]
 129:algorithm.c   ****         an_x[k] =  pun_ir_buffer[k] ; 
 639              		.loc 1 129 0 discriminator 3
 640 0392 D7F82C31 		ldr	r3, [r7, #300]
 641 0396 0133     		adds	r3, r3, #1
 642 0398 C7F82C31 		str	r3, [r7, #300]
 643              	.L25:
 129:algorithm.c   ****         an_x[k] =  pun_ir_buffer[k] ; 
 644              		.loc 1 129 0 is_stmt 0 discriminator 1
 645 039c 07F10803 		add	r3, r7, #8
 646 03a0 D7F82C21 		ldr	r2, [r7, #300]
 647 03a4 1B68     		ldr	r3, [r3]
 648 03a6 9A42     		cmp	r2, r3
 649 03a8 D8DB     		blt	.L26
 132:algorithm.c   ****     }
 133:algorithm.c   **** 
 134:algorithm.c   ****     // find precise min near an_ir_valley_locs
 135:algorithm.c   ****     n_exact_ir_valley_locs_count =0; 
 650              		.loc 1 135 0 is_stmt 1
 651 03aa 0023     		movs	r3, #0
 652 03ac C7F81C31 		str	r3, [r7, #284]
 136:algorithm.c   ****     for(k=0 ; k<n_npks ;k++){
 653              		.loc 1 136 0
 654 03b0 0023     		movs	r3, #0
 655 03b2 C7F82C31 		str	r3, [r7, #300]
 656 03b6 6AE0     		b	.L27
 657              	.L33:
 137:algorithm.c   ****         un_only_once =1;
 658              		.loc 1 137 0
 659 03b8 0123     		movs	r3, #1
 660 03ba C7F83031 		str	r3, [r7, #304]
 138:algorithm.c   ****         m=an_ir_valley_locs[k];
 661              		.loc 1 138 0
 662 03be D7F82C31 		ldr	r3, [r7, #300]
 663 03c2 9B00     		lsls	r3, r3, #2
 664 03c4 07F59C72 		add	r2, r7, #312
 665 03c8 1344     		add	r3, r3, r2
 666 03ca 53F8983C 		ldr	r3, [r3, #-152]
 667 03ce C7F8F430 		str	r3, [r7, #244]
 139:algorithm.c   ****         n_c_min= 16777216;//2^24;
 668              		.loc 1 139 0
 669 03d2 4FF08073 		mov	r3, #16777216
 670 03d6 C7F81431 		str	r3, [r7, #276]
 140:algorithm.c   ****         if (m+5 <  BUFFER_SIZE-HAMMING_SIZE  && m-5 >0){
 671              		.loc 1 140 0
 672 03da D7F8F430 		ldr	r3, [r7, #244]
 673 03de 0533     		adds	r3, r3, #5
 674 03e0 F42B     		cmp	r3, #244
 675 03e2 4FDC     		bgt	.L28
 676              		.loc 1 140 0 is_stmt 0 discriminator 1
 677 03e4 D7F8F430 		ldr	r3, [r7, #244]
 678 03e8 053B     		subs	r3, r3, #5
 679 03ea 002B     		cmp	r3, #0
 680 03ec 4ADD     		ble	.L28
 141:algorithm.c   ****             for(i= m-5;i<m+5; i++)
ARM GAS  C:\Users\Perro\AppData\Local\Temp\cclMvQoy.s 			page 16


 681              		.loc 1 141 0 is_stmt 1
 682 03ee D7F8F430 		ldr	r3, [r7, #244]
 683 03f2 053B     		subs	r3, r3, #5
 684 03f4 C7F82431 		str	r3, [r7, #292]
 685 03f8 34E0     		b	.L29
 686              	.L58:
 687 03fa 00BF     		.align	2
 688              	.L57:
 689 03fc D8030000 		.word	an_x
 690 0400 00000000 		.word	an_dx
 691 0404 00000000 		.word	auw_hamm
 692 0408 ED9B5F72 		.word	1918868461
 693 040c B19BDF42 		.word	1121950641
 694 0410 19FCFFFF 		.word	-999
 695 0414 C0070000 		.word	an_y
 696              	.L32:
 142:algorithm.c   ****                 if (an_x[i]<n_c_min){
 697              		.loc 1 142 0
 698 0418 854A     		ldr	r2, .L59
 699 041a D7F82431 		ldr	r3, [r7, #292]
 700 041e 52F82320 		ldr	r2, [r2, r3, lsl #2]
 701 0422 D7F81431 		ldr	r3, [r7, #276]
 702 0426 9A42     		cmp	r2, r3
 703 0428 17DA     		bge	.L30
 143:algorithm.c   ****                     if (un_only_once >0){
 704              		.loc 1 143 0
 705 042a D7F83031 		ldr	r3, [r7, #304]
 706 042e 002B     		cmp	r3, #0
 707 0430 02D0     		beq	.L31
 144:algorithm.c   ****                        un_only_once =0;
 708              		.loc 1 144 0
 709 0432 0023     		movs	r3, #0
 710 0434 C7F83031 		str	r3, [r7, #304]
 711              	.L31:
 145:algorithm.c   ****                    } 
 146:algorithm.c   ****                    n_c_min= an_x[i] ;
 712              		.loc 1 146 0
 713 0438 7D4A     		ldr	r2, .L59
 714 043a D7F82431 		ldr	r3, [r7, #292]
 715 043e 52F82330 		ldr	r3, [r2, r3, lsl #2]
 716 0442 C7F81431 		str	r3, [r7, #276]
 147:algorithm.c   ****                    an_exact_ir_valley_locs[k]=i;
 717              		.loc 1 147 0
 718 0446 D7F82C31 		ldr	r3, [r7, #300]
 719 044a 9B00     		lsls	r3, r3, #2
 720 044c 07F59C72 		add	r2, r7, #312
 721 0450 1344     		add	r3, r3, r2
 722 0452 D7F82421 		ldr	r2, [r7, #292]
 723 0456 43F8D42C 		str	r2, [r3, #-212]
 724              	.L30:
 141:algorithm.c   ****                 if (an_x[i]<n_c_min){
 725              		.loc 1 141 0 discriminator 2
 726 045a D7F82431 		ldr	r3, [r7, #292]
 727 045e 0133     		adds	r3, r3, #1
 728 0460 C7F82431 		str	r3, [r7, #292]
 729              	.L29:
 141:algorithm.c   ****                 if (an_x[i]<n_c_min){
ARM GAS  C:\Users\Perro\AppData\Local\Temp\cclMvQoy.s 			page 17


 730              		.loc 1 141 0 is_stmt 0 discriminator 1
 731 0464 D7F8F430 		ldr	r3, [r7, #244]
 732 0468 5A1D     		adds	r2, r3, #5
 733 046a D7F82431 		ldr	r3, [r7, #292]
 734 046e 9A42     		cmp	r2, r3
 735 0470 D2DC     		bgt	.L32
 148:algorithm.c   ****                 }
 149:algorithm.c   ****             if (un_only_once ==0)
 736              		.loc 1 149 0 is_stmt 1
 737 0472 D7F83031 		ldr	r3, [r7, #304]
 738 0476 002B     		cmp	r3, #0
 739 0478 04D1     		bne	.L28
 150:algorithm.c   ****                 n_exact_ir_valley_locs_count ++ ;
 740              		.loc 1 150 0
 741 047a D7F81C31 		ldr	r3, [r7, #284]
 742 047e 0133     		adds	r3, r3, #1
 743 0480 C7F81C31 		str	r3, [r7, #284]
 744              	.L28:
 136:algorithm.c   ****         un_only_once =1;
 745              		.loc 1 136 0 discriminator 2
 746 0484 D7F82C31 		ldr	r3, [r7, #300]
 747 0488 0133     		adds	r3, r3, #1
 748 048a C7F82C31 		str	r3, [r7, #300]
 749              	.L27:
 136:algorithm.c   ****         un_only_once =1;
 750              		.loc 1 136 0 is_stmt 0 discriminator 1
 751 048e D7F8DC30 		ldr	r3, [r7, #220]
 752 0492 D7F82C21 		ldr	r2, [r7, #300]
 753 0496 9A42     		cmp	r2, r3
 754 0498 8EDB     		blt	.L33
 151:algorithm.c   ****         }
 152:algorithm.c   ****     }
 153:algorithm.c   ****     if (n_exact_ir_valley_locs_count <2 ){
 755              		.loc 1 153 0 is_stmt 1
 756 049a D7F81C31 		ldr	r3, [r7, #284]
 757 049e 012B     		cmp	r3, #1
 758 04a0 08DC     		bgt	.L34
 154:algorithm.c   ****        *pn_spo2 =  -999 ; // do not use SPO2 since signal ratio is out of range
 759              		.loc 1 154 0
 760 04a2 3B46     		mov	r3, r7
 761 04a4 1B68     		ldr	r3, [r3]
 762 04a6 634A     		ldr	r2, .L59+4
 763 04a8 1A60     		str	r2, [r3]
 155:algorithm.c   ****        *pch_spo2_valid  = 0; 
 764              		.loc 1 155 0
 765 04aa D7F84831 		ldr	r3, [r7, #328]
 766 04ae 0022     		movs	r2, #0
 767 04b0 1A70     		strb	r2, [r3]
 156:algorithm.c   ****        return;
 768              		.loc 1 156 0
 769 04b2 35E2     		b	.L1
 770              	.L34:
 157:algorithm.c   ****     }
 158:algorithm.c   ****     // 4 pt MA
 159:algorithm.c   ****     for(k=0; k< BUFFER_SIZE-MA4_SIZE; k++){
 771              		.loc 1 159 0
 772 04b4 0023     		movs	r3, #0
ARM GAS  C:\Users\Perro\AppData\Local\Temp\cclMvQoy.s 			page 18


 773 04b6 C7F82C31 		str	r3, [r7, #300]
 774 04ba 4CE0     		b	.L36
 775              	.L39:
 160:algorithm.c   ****         an_x[k]=( an_x[k]+an_x[k+1]+ an_x[k+2]+ an_x[k+3])/(int32_t)4;
 776              		.loc 1 160 0 discriminator 3
 777 04bc 5C4A     		ldr	r2, .L59
 778 04be D7F82C31 		ldr	r3, [r7, #300]
 779 04c2 52F82320 		ldr	r2, [r2, r3, lsl #2]
 780 04c6 D7F82C31 		ldr	r3, [r7, #300]
 781 04ca 0133     		adds	r3, r3, #1
 782 04cc 5849     		ldr	r1, .L59
 783 04ce 51F82330 		ldr	r3, [r1, r3, lsl #2]
 784 04d2 1A44     		add	r2, r2, r3
 785 04d4 D7F82C31 		ldr	r3, [r7, #300]
 786 04d8 0233     		adds	r3, r3, #2
 787 04da 5549     		ldr	r1, .L59
 788 04dc 51F82330 		ldr	r3, [r1, r3, lsl #2]
 789 04e0 1A44     		add	r2, r2, r3
 790 04e2 D7F82C31 		ldr	r3, [r7, #300]
 791 04e6 0333     		adds	r3, r3, #3
 792 04e8 5149     		ldr	r1, .L59
 793 04ea 51F82330 		ldr	r3, [r1, r3, lsl #2]
 794 04ee 1344     		add	r3, r3, r2
 795 04f0 002B     		cmp	r3, #0
 796 04f2 00DA     		bge	.L37
 797 04f4 0333     		adds	r3, r3, #3
 798              	.L37:
 799 04f6 9B10     		asrs	r3, r3, #2
 800 04f8 1946     		mov	r1, r3
 801 04fa 4D4A     		ldr	r2, .L59
 802 04fc D7F82C31 		ldr	r3, [r7, #300]
 803 0500 42F82310 		str	r1, [r2, r3, lsl #2]
 161:algorithm.c   ****         an_y[k]=( an_y[k]+an_y[k+1]+ an_y[k+2]+ an_y[k+3])/(int32_t)4;
 804              		.loc 1 161 0 discriminator 3
 805 0504 4C4A     		ldr	r2, .L59+8
 806 0506 D7F82C31 		ldr	r3, [r7, #300]
 807 050a 52F82320 		ldr	r2, [r2, r3, lsl #2]
 808 050e D7F82C31 		ldr	r3, [r7, #300]
 809 0512 0133     		adds	r3, r3, #1
 810 0514 4849     		ldr	r1, .L59+8
 811 0516 51F82330 		ldr	r3, [r1, r3, lsl #2]
 812 051a 1A44     		add	r2, r2, r3
 813 051c D7F82C31 		ldr	r3, [r7, #300]
 814 0520 0233     		adds	r3, r3, #2
 815 0522 4549     		ldr	r1, .L59+8
 816 0524 51F82330 		ldr	r3, [r1, r3, lsl #2]
 817 0528 1A44     		add	r2, r2, r3
 818 052a D7F82C31 		ldr	r3, [r7, #300]
 819 052e 0333     		adds	r3, r3, #3
 820 0530 4149     		ldr	r1, .L59+8
 821 0532 51F82330 		ldr	r3, [r1, r3, lsl #2]
 822 0536 1344     		add	r3, r3, r2
 823 0538 002B     		cmp	r3, #0
 824 053a 00DA     		bge	.L38
 825 053c 0333     		adds	r3, r3, #3
 826              	.L38:
 827 053e 9B10     		asrs	r3, r3, #2
ARM GAS  C:\Users\Perro\AppData\Local\Temp\cclMvQoy.s 			page 19


 828 0540 1946     		mov	r1, r3
 829 0542 3D4A     		ldr	r2, .L59+8
 830 0544 D7F82C31 		ldr	r3, [r7, #300]
 831 0548 42F82310 		str	r1, [r2, r3, lsl #2]
 159:algorithm.c   ****         an_x[k]=( an_x[k]+an_x[k+1]+ an_x[k+2]+ an_x[k+3])/(int32_t)4;
 832              		.loc 1 159 0 discriminator 3
 833 054c D7F82C31 		ldr	r3, [r7, #300]
 834 0550 0133     		adds	r3, r3, #1
 835 0552 C7F82C31 		str	r3, [r7, #300]
 836              	.L36:
 159:algorithm.c   ****         an_x[k]=( an_x[k]+an_x[k+1]+ an_x[k+2]+ an_x[k+3])/(int32_t)4;
 837              		.loc 1 159 0 is_stmt 0 discriminator 1
 838 0556 D7F82C31 		ldr	r3, [r7, #300]
 839 055a F52B     		cmp	r3, #245
 840 055c AEDD     		ble	.L39
 162:algorithm.c   ****     }
 163:algorithm.c   **** 
 164:algorithm.c   ****     //using an_exact_ir_valley_locs , find ir-red DC andir-red AC for SPO2 calibration ratio
 165:algorithm.c   ****     //finding AC/DC maximum of raw ir * red between two valley locations
 166:algorithm.c   ****     n_ratio_average =0; 
 841              		.loc 1 166 0 is_stmt 1
 842 055e 0023     		movs	r3, #0
 843 0560 C7F8FC30 		str	r3, [r7, #252]
 167:algorithm.c   ****     n_i_ratio_count =0; 
 844              		.loc 1 167 0
 845 0564 0023     		movs	r3, #0
 846 0566 C7F82831 		str	r3, [r7, #296]
 168:algorithm.c   ****     
 169:algorithm.c   ****     for(k=0; k< 5; k++) an_ratio[k]=0;
 847              		.loc 1 169 0
 848 056a 0023     		movs	r3, #0
 849 056c C7F82C31 		str	r3, [r7, #300]
 850 0570 0BE0     		b	.L40
 851              	.L41:
 852              		.loc 1 169 0 is_stmt 0 discriminator 3
 853 0572 07F11403 		add	r3, r7, #20
 854 0576 D7F82C21 		ldr	r2, [r7, #300]
 855 057a 0021     		movs	r1, #0
 856 057c 43F82210 		str	r1, [r3, r2, lsl #2]
 857 0580 D7F82C31 		ldr	r3, [r7, #300]
 858 0584 0133     		adds	r3, r3, #1
 859 0586 C7F82C31 		str	r3, [r7, #300]
 860              	.L40:
 861              		.loc 1 169 0 discriminator 1
 862 058a D7F82C31 		ldr	r3, [r7, #300]
 863 058e 042B     		cmp	r3, #4
 864 0590 EFDD     		ble	.L41
 170:algorithm.c   ****     for (k=0; k< n_exact_ir_valley_locs_count; k++){
 865              		.loc 1 170 0 is_stmt 1
 866 0592 0023     		movs	r3, #0
 867 0594 C7F82C31 		str	r3, [r7, #300]
 868 0598 17E0     		b	.L42
 869              	.L44:
 171:algorithm.c   ****         if (an_exact_ir_valley_locs[k] > BUFFER_SIZE ){             
 870              		.loc 1 171 0
 871 059a D7F82C31 		ldr	r3, [r7, #300]
 872 059e 9B00     		lsls	r3, r3, #2
ARM GAS  C:\Users\Perro\AppData\Local\Temp\cclMvQoy.s 			page 20


 873 05a0 07F59C72 		add	r2, r7, #312
 874 05a4 1344     		add	r3, r3, r2
 875 05a6 53F8D43C 		ldr	r3, [r3, #-212]
 876 05aa FA2B     		cmp	r3, #250
 877 05ac 08DD     		ble	.L43
 172:algorithm.c   ****             *pn_spo2 =  -999 ; // do not use SPO2 since valley loc is out of range
 878              		.loc 1 172 0
 879 05ae 3B46     		mov	r3, r7
 880 05b0 1B68     		ldr	r3, [r3]
 881 05b2 204A     		ldr	r2, .L59+4
 882 05b4 1A60     		str	r2, [r3]
 173:algorithm.c   ****             *pch_spo2_valid  = 0; 
 883              		.loc 1 173 0
 884 05b6 D7F84831 		ldr	r3, [r7, #328]
 885 05ba 0022     		movs	r2, #0
 886 05bc 1A70     		strb	r2, [r3]
 174:algorithm.c   ****             return;
 887              		.loc 1 174 0
 888 05be AFE1     		b	.L1
 889              	.L43:
 170:algorithm.c   ****         if (an_exact_ir_valley_locs[k] > BUFFER_SIZE ){             
 890              		.loc 1 170 0 discriminator 2
 891 05c0 D7F82C31 		ldr	r3, [r7, #300]
 892 05c4 0133     		adds	r3, r3, #1
 893 05c6 C7F82C31 		str	r3, [r7, #300]
 894              	.L42:
 170:algorithm.c   ****         if (an_exact_ir_valley_locs[k] > BUFFER_SIZE ){             
 895              		.loc 1 170 0 is_stmt 0 discriminator 1
 896 05ca D7F82C21 		ldr	r2, [r7, #300]
 897 05ce D7F81C31 		ldr	r3, [r7, #284]
 898 05d2 9A42     		cmp	r2, r3
 899 05d4 E1DB     		blt	.L44
 175:algorithm.c   ****         }
 176:algorithm.c   ****     }
 177:algorithm.c   ****     // find max between two valley locations 
 178:algorithm.c   ****     // and use ratio betwen AC compoent of Ir & Red and DC compoent of Ir & Red for SPO2 
 179:algorithm.c   **** 
 180:algorithm.c   ****     for (k=0; k< n_exact_ir_valley_locs_count-1; k++){
 900              		.loc 1 180 0 is_stmt 1
 901 05d6 0023     		movs	r3, #0
 902 05d8 C7F82C31 		str	r3, [r7, #300]
 903 05dc 49E1     		b	.L45
 904              	.L51:
 181:algorithm.c   ****         n_y_dc_max= -16777216 ; 
 905              		.loc 1 181 0
 906 05de 4FF07F43 		mov	r3, #-16777216
 907 05e2 C7F80C31 		str	r3, [r7, #268]
 182:algorithm.c   ****         n_x_dc_max= - 16777216; 
 908              		.loc 1 182 0
 909 05e6 4FF07F43 		mov	r3, #-16777216
 910 05ea C7F80831 		str	r3, [r7, #264]
 183:algorithm.c   ****         if (an_exact_ir_valley_locs[k+1]-an_exact_ir_valley_locs[k] >10){
 911              		.loc 1 183 0
 912 05ee D7F82C31 		ldr	r3, [r7, #300]
 913 05f2 0133     		adds	r3, r3, #1
 914 05f4 9B00     		lsls	r3, r3, #2
 915 05f6 07F59C72 		add	r2, r7, #312
ARM GAS  C:\Users\Perro\AppData\Local\Temp\cclMvQoy.s 			page 21


 916 05fa 1344     		add	r3, r3, r2
 917 05fc 53F8D42C 		ldr	r2, [r3, #-212]
 918 0600 D7F82C31 		ldr	r3, [r7, #300]
 919 0604 9B00     		lsls	r3, r3, #2
 920 0606 07F59C71 		add	r1, r7, #312
 921 060a 0B44     		add	r3, r3, r1
 922 060c 53F8D43C 		ldr	r3, [r3, #-212]
 923 0610 D31A     		subs	r3, r2, r3
 924 0612 0A2B     		cmp	r3, #10
 925 0614 40F32881 		ble	.L46
 184:algorithm.c   ****             for (i=an_exact_ir_valley_locs[k]; i< an_exact_ir_valley_locs[k+1]; i++){
 926              		.loc 1 184 0
 927 0618 D7F82C31 		ldr	r3, [r7, #300]
 928 061c 9B00     		lsls	r3, r3, #2
 929 061e 07F59C72 		add	r2, r7, #312
 930 0622 1344     		add	r3, r3, r2
 931 0624 53F8D43C 		ldr	r3, [r3, #-212]
 932 0628 C7F82431 		str	r3, [r7, #292]
 933 062c 33E0     		b	.L47
 934              	.L60:
 935 062e 00BF     		.align	2
 936              	.L59:
 937 0630 D8030000 		.word	an_x
 938 0634 19FCFFFF 		.word	-999
 939 0638 C0070000 		.word	an_y
 940              	.L50:
 185:algorithm.c   ****                 if (an_x[i]> n_x_dc_max) {n_x_dc_max =an_x[i];n_x_dc_max_idx =i; }
 941              		.loc 1 185 0
 942 063c BA4A     		ldr	r2, .L61
 943 063e D7F82431 		ldr	r3, [r7, #292]
 944 0642 52F82320 		ldr	r2, [r2, r3, lsl #2]
 945 0646 D7F80831 		ldr	r3, [r7, #264]
 946 064a 9A42     		cmp	r2, r3
 947 064c 0ADD     		ble	.L48
 948              		.loc 1 185 0 is_stmt 0 discriminator 1
 949 064e B64A     		ldr	r2, .L61
 950 0650 D7F82431 		ldr	r3, [r7, #292]
 951 0654 52F82330 		ldr	r3, [r2, r3, lsl #2]
 952 0658 C7F80831 		str	r3, [r7, #264]
 953 065c D7F82431 		ldr	r3, [r7, #292]
 954 0660 C7F80031 		str	r3, [r7, #256]
 955              	.L48:
 186:algorithm.c   ****                 if (an_y[i]> n_y_dc_max) {n_y_dc_max =an_y[i];n_y_dc_max_idx=i;}
 956              		.loc 1 186 0 is_stmt 1
 957 0664 B14A     		ldr	r2, .L61+4
 958 0666 D7F82431 		ldr	r3, [r7, #292]
 959 066a 52F82320 		ldr	r2, [r2, r3, lsl #2]
 960 066e D7F80C31 		ldr	r3, [r7, #268]
 961 0672 9A42     		cmp	r2, r3
 962 0674 0ADD     		ble	.L49
 963              		.loc 1 186 0 is_stmt 0 discriminator 1
 964 0676 AD4A     		ldr	r2, .L61+4
 965 0678 D7F82431 		ldr	r3, [r7, #292]
 966 067c 52F82330 		ldr	r3, [r2, r3, lsl #2]
 967 0680 C7F80C31 		str	r3, [r7, #268]
 968 0684 D7F82431 		ldr	r3, [r7, #292]
 969 0688 C7F80431 		str	r3, [r7, #260]
ARM GAS  C:\Users\Perro\AppData\Local\Temp\cclMvQoy.s 			page 22


 970              	.L49:
 184:algorithm.c   ****             for (i=an_exact_ir_valley_locs[k]; i< an_exact_ir_valley_locs[k+1]; i++){
 971              		.loc 1 184 0 is_stmt 1 discriminator 2
 972 068c D7F82431 		ldr	r3, [r7, #292]
 973 0690 0133     		adds	r3, r3, #1
 974 0692 C7F82431 		str	r3, [r7, #292]
 975              	.L47:
 184:algorithm.c   ****             for (i=an_exact_ir_valley_locs[k]; i< an_exact_ir_valley_locs[k+1]; i++){
 976              		.loc 1 184 0 is_stmt 0 discriminator 1
 977 0696 D7F82C31 		ldr	r3, [r7, #300]
 978 069a 0133     		adds	r3, r3, #1
 979 069c 9B00     		lsls	r3, r3, #2
 980 069e 07F59C72 		add	r2, r7, #312
 981 06a2 1344     		add	r3, r3, r2
 982 06a4 53F8D42C 		ldr	r2, [r3, #-212]
 983 06a8 D7F82431 		ldr	r3, [r7, #292]
 984 06ac 9A42     		cmp	r2, r3
 985 06ae C5DC     		bgt	.L50
 187:algorithm.c   ****             }
 188:algorithm.c   ****             n_y_ac= (an_y[an_exact_ir_valley_locs[k+1]] - an_y[an_exact_ir_valley_locs[k] ] )*(n_y_
 986              		.loc 1 188 0 is_stmt 1
 987 06b0 D7F82C31 		ldr	r3, [r7, #300]
 988 06b4 0133     		adds	r3, r3, #1
 989 06b6 9B00     		lsls	r3, r3, #2
 990 06b8 07F59C72 		add	r2, r7, #312
 991 06bc 1344     		add	r3, r3, r2
 992 06be 53F8D43C 		ldr	r3, [r3, #-212]
 993 06c2 9A4A     		ldr	r2, .L61+4
 994 06c4 52F82320 		ldr	r2, [r2, r3, lsl #2]
 995 06c8 D7F82C31 		ldr	r3, [r7, #300]
 996 06cc 9B00     		lsls	r3, r3, #2
 997 06ce 07F59C71 		add	r1, r7, #312
 998 06d2 0B44     		add	r3, r3, r1
 999 06d4 53F8D43C 		ldr	r3, [r3, #-212]
 1000 06d8 9449     		ldr	r1, .L61+4
 1001 06da 51F82330 		ldr	r3, [r1, r3, lsl #2]
 1002 06de D21A     		subs	r2, r2, r3
 1003 06e0 D7F82C31 		ldr	r3, [r7, #300]
 1004 06e4 9B00     		lsls	r3, r3, #2
 1005 06e6 07F59C71 		add	r1, r7, #312
 1006 06ea 0B44     		add	r3, r3, r1
 1007 06ec 53F8D43C 		ldr	r3, [r3, #-212]
 1008 06f0 D7F80411 		ldr	r1, [r7, #260]
 1009 06f4 CB1A     		subs	r3, r1, r3
 1010 06f6 03FB02F3 		mul	r3, r3, r2
 1011 06fa C7F8F030 		str	r3, [r7, #240]
 189:algorithm.c   ****             n_y_ac=  an_y[an_exact_ir_valley_locs[k]] + n_y_ac/ (an_exact_ir_valley_locs[k+1] - an_
 1012              		.loc 1 189 0
 1013 06fe D7F82C31 		ldr	r3, [r7, #300]
 1014 0702 9B00     		lsls	r3, r3, #2
 1015 0704 07F59C72 		add	r2, r7, #312
 1016 0708 1344     		add	r3, r3, r2
 1017 070a 53F8D43C 		ldr	r3, [r3, #-212]
 1018 070e 874A     		ldr	r2, .L61+4
 1019 0710 52F82320 		ldr	r2, [r2, r3, lsl #2]
 1020 0714 D7F82C31 		ldr	r3, [r7, #300]
 1021 0718 0133     		adds	r3, r3, #1
ARM GAS  C:\Users\Perro\AppData\Local\Temp\cclMvQoy.s 			page 23


 1022 071a 9B00     		lsls	r3, r3, #2
 1023 071c 07F59C71 		add	r1, r7, #312
 1024 0720 0B44     		add	r3, r3, r1
 1025 0722 53F8D41C 		ldr	r1, [r3, #-212]
 1026 0726 D7F82C31 		ldr	r3, [r7, #300]
 1027 072a 9B00     		lsls	r3, r3, #2
 1028 072c 07F59C70 		add	r0, r7, #312
 1029 0730 0344     		add	r3, r3, r0
 1030 0732 53F8D43C 		ldr	r3, [r3, #-212]
 1031 0736 CB1A     		subs	r3, r1, r3
 1032 0738 D7F8F010 		ldr	r1, [r7, #240]
 1033 073c 91FBF3F3 		sdiv	r3, r1, r3
 1034 0740 1344     		add	r3, r3, r2
 1035 0742 C7F8F030 		str	r3, [r7, #240]
 190:algorithm.c   ****         
 191:algorithm.c   ****         
 192:algorithm.c   ****             n_y_ac=  an_y[n_y_dc_max_idx] - n_y_ac;    // subracting linear DC compoenents from raw
 1036              		.loc 1 192 0
 1037 0746 794A     		ldr	r2, .L61+4
 1038 0748 D7F80431 		ldr	r3, [r7, #260]
 1039 074c 52F82320 		ldr	r2, [r2, r3, lsl #2]
 1040 0750 D7F8F030 		ldr	r3, [r7, #240]
 1041 0754 D31A     		subs	r3, r2, r3
 1042 0756 C7F8F030 		str	r3, [r7, #240]
 193:algorithm.c   ****             n_x_ac= (an_x[an_exact_ir_valley_locs[k+1]] - an_x[an_exact_ir_valley_locs[k] ] )*(n_x_
 1043              		.loc 1 193 0
 1044 075a D7F82C31 		ldr	r3, [r7, #300]
 1045 075e 0133     		adds	r3, r3, #1
 1046 0760 9B00     		lsls	r3, r3, #2
 1047 0762 07F59C72 		add	r2, r7, #312
 1048 0766 1344     		add	r3, r3, r2
 1049 0768 53F8D43C 		ldr	r3, [r3, #-212]
 1050 076c 6E4A     		ldr	r2, .L61
 1051 076e 52F82320 		ldr	r2, [r2, r3, lsl #2]
 1052 0772 D7F82C31 		ldr	r3, [r7, #300]
 1053 0776 9B00     		lsls	r3, r3, #2
 1054 0778 07F59C71 		add	r1, r7, #312
 1055 077c 0B44     		add	r3, r3, r1
 1056 077e 53F8D43C 		ldr	r3, [r3, #-212]
 1057 0782 6949     		ldr	r1, .L61
 1058 0784 51F82330 		ldr	r3, [r1, r3, lsl #2]
 1059 0788 D21A     		subs	r2, r2, r3
 1060 078a D7F82C31 		ldr	r3, [r7, #300]
 1061 078e 9B00     		lsls	r3, r3, #2
 1062 0790 07F59C71 		add	r1, r7, #312
 1063 0794 0B44     		add	r3, r3, r1
 1064 0796 53F8D43C 		ldr	r3, [r3, #-212]
 1065 079a D7F80011 		ldr	r1, [r7, #256]
 1066 079e CB1A     		subs	r3, r1, r3
 1067 07a0 03FB02F3 		mul	r3, r3, r2
 1068 07a4 C7F8EC30 		str	r3, [r7, #236]
 194:algorithm.c   ****             n_x_ac=  an_x[an_exact_ir_valley_locs[k]] + n_x_ac/ (an_exact_ir_valley_locs[k+1] - an_
 1069              		.loc 1 194 0
 1070 07a8 D7F82C31 		ldr	r3, [r7, #300]
 1071 07ac 9B00     		lsls	r3, r3, #2
 1072 07ae 07F59C72 		add	r2, r7, #312
 1073 07b2 1344     		add	r3, r3, r2
ARM GAS  C:\Users\Perro\AppData\Local\Temp\cclMvQoy.s 			page 24


 1074 07b4 53F8D43C 		ldr	r3, [r3, #-212]
 1075 07b8 5B4A     		ldr	r2, .L61
 1076 07ba 52F82320 		ldr	r2, [r2, r3, lsl #2]
 1077 07be D7F82C31 		ldr	r3, [r7, #300]
 1078 07c2 0133     		adds	r3, r3, #1
 1079 07c4 9B00     		lsls	r3, r3, #2
 1080 07c6 07F59C71 		add	r1, r7, #312
 1081 07ca 0B44     		add	r3, r3, r1
 1082 07cc 53F8D41C 		ldr	r1, [r3, #-212]
 1083 07d0 D7F82C31 		ldr	r3, [r7, #300]
 1084 07d4 9B00     		lsls	r3, r3, #2
 1085 07d6 07F59C70 		add	r0, r7, #312
 1086 07da 0344     		add	r3, r3, r0
 1087 07dc 53F8D43C 		ldr	r3, [r3, #-212]
 1088 07e0 CB1A     		subs	r3, r1, r3
 1089 07e2 D7F8EC10 		ldr	r1, [r7, #236]
 1090 07e6 91FBF3F3 		sdiv	r3, r1, r3
 1091 07ea 1344     		add	r3, r3, r2
 1092 07ec C7F8EC30 		str	r3, [r7, #236]
 195:algorithm.c   ****             n_x_ac=  an_x[n_y_dc_max_idx] - n_x_ac;      // subracting linear DC compoenents from r
 1093              		.loc 1 195 0
 1094 07f0 4D4A     		ldr	r2, .L61
 1095 07f2 D7F80431 		ldr	r3, [r7, #260]
 1096 07f6 52F82320 		ldr	r2, [r2, r3, lsl #2]
 1097 07fa D7F8EC30 		ldr	r3, [r7, #236]
 1098 07fe D31A     		subs	r3, r2, r3
 1099 0800 C7F8EC30 		str	r3, [r7, #236]
 196:algorithm.c   ****             n_nume=( n_y_ac *n_x_dc_max)>>7 ; //prepare X100 to preserve floating value
 1100              		.loc 1 196 0
 1101 0804 D7F8F030 		ldr	r3, [r7, #240]
 1102 0808 D7F80821 		ldr	r2, [r7, #264]
 1103 080c 02FB03F3 		mul	r3, r2, r3
 1104 0810 DB11     		asrs	r3, r3, #7
 1105 0812 C7F8E830 		str	r3, [r7, #232]
 197:algorithm.c   ****             n_denom= ( n_x_ac *n_y_dc_max)>>7;
 1106              		.loc 1 197 0
 1107 0816 D7F8EC30 		ldr	r3, [r7, #236]
 1108 081a D7F80C21 		ldr	r2, [r7, #268]
 1109 081e 02FB03F3 		mul	r3, r2, r3
 1110 0822 DB11     		asrs	r3, r3, #7
 1111 0824 C7F8F830 		str	r3, [r7, #248]
 198:algorithm.c   ****             if (n_denom>0  && n_i_ratio_count <5 &&  n_nume != 0)
 1112              		.loc 1 198 0
 1113 0828 D7F8F830 		ldr	r3, [r7, #248]
 1114 082c 002B     		cmp	r3, #0
 1115 082e 1BDD     		ble	.L46
 1116              		.loc 1 198 0 is_stmt 0 discriminator 1
 1117 0830 D7F82831 		ldr	r3, [r7, #296]
 1118 0834 042B     		cmp	r3, #4
 1119 0836 17DC     		bgt	.L46
 1120              		.loc 1 198 0 discriminator 2
 1121 0838 D7F8E830 		ldr	r3, [r7, #232]
 1122 083c 002B     		cmp	r3, #0
 1123 083e 13D0     		beq	.L46
 199:algorithm.c   ****             {   
 200:algorithm.c   ****                 an_ratio[n_i_ratio_count]= (n_nume*100)/n_denom ; //formular is ( n_y_ac *n_x_dc_ma
 1124              		.loc 1 200 0 is_stmt 1
ARM GAS  C:\Users\Perro\AppData\Local\Temp\cclMvQoy.s 			page 25


 1125 0840 D7F8E830 		ldr	r3, [r7, #232]
 1126 0844 6422     		movs	r2, #100
 1127 0846 02FB03F2 		mul	r2, r2, r3
 1128 084a D7F8F830 		ldr	r3, [r7, #248]
 1129 084e 92FBF3F1 		sdiv	r1, r2, r3
 1130 0852 07F11403 		add	r3, r7, #20
 1131 0856 D7F82821 		ldr	r2, [r7, #296]
 1132 085a 43F82210 		str	r1, [r3, r2, lsl #2]
 201:algorithm.c   ****                 n_i_ratio_count++;
 1133              		.loc 1 201 0
 1134 085e D7F82831 		ldr	r3, [r7, #296]
 1135 0862 0133     		adds	r3, r3, #1
 1136 0864 C7F82831 		str	r3, [r7, #296]
 1137              	.L46:
 180:algorithm.c   ****         n_y_dc_max= -16777216 ; 
 1138              		.loc 1 180 0 discriminator 2
 1139 0868 D7F82C31 		ldr	r3, [r7, #300]
 1140 086c 0133     		adds	r3, r3, #1
 1141 086e C7F82C31 		str	r3, [r7, #300]
 1142              	.L45:
 180:algorithm.c   ****         n_y_dc_max= -16777216 ; 
 1143              		.loc 1 180 0 is_stmt 0 discriminator 1
 1144 0872 D7F81C31 		ldr	r3, [r7, #284]
 1145 0876 5A1E     		subs	r2, r3, #1
 1146 0878 D7F82C31 		ldr	r3, [r7, #300]
 1147 087c 9A42     		cmp	r2, r3
 1148 087e 3FF7AEAE 		bgt	.L51
 202:algorithm.c   ****             }
 203:algorithm.c   ****         }
 204:algorithm.c   ****     }
 205:algorithm.c   **** 
 206:algorithm.c   ****     maxim_sort_ascend(an_ratio, n_i_ratio_count);
 1149              		.loc 1 206 0 is_stmt 1
 1150 0882 07F11403 		add	r3, r7, #20
 1151 0886 D7F82811 		ldr	r1, [r7, #296]
 1152 088a 1846     		mov	r0, r3
 1153 088c FFF7FEFF 		bl	maxim_sort_ascend
 207:algorithm.c   ****     n_middle_idx= n_i_ratio_count/2;
 1154              		.loc 1 207 0
 1155 0890 D7F82831 		ldr	r3, [r7, #296]
 1156 0894 DA0F     		lsrs	r2, r3, #31
 1157 0896 1344     		add	r3, r3, r2
 1158 0898 5B10     		asrs	r3, r3, #1
 1159 089a C7F8E430 		str	r3, [r7, #228]
 208:algorithm.c   **** 
 209:algorithm.c   ****     if (n_middle_idx >1)
 1160              		.loc 1 209 0
 1161 089e D7F8E430 		ldr	r3, [r7, #228]
 1162 08a2 012B     		cmp	r3, #1
 1163 08a4 13DD     		ble	.L52
 210:algorithm.c   ****         n_ratio_average =( an_ratio[n_middle_idx-1] +an_ratio[n_middle_idx])/2; // use median
 1164              		.loc 1 210 0
 1165 08a6 D7F8E430 		ldr	r3, [r7, #228]
 1166 08aa 5A1E     		subs	r2, r3, #1
 1167 08ac 07F11403 		add	r3, r7, #20
 1168 08b0 53F82220 		ldr	r2, [r3, r2, lsl #2]
 1169 08b4 07F11403 		add	r3, r7, #20
ARM GAS  C:\Users\Perro\AppData\Local\Temp\cclMvQoy.s 			page 26


 1170 08b8 D7F8E410 		ldr	r1, [r7, #228]
 1171 08bc 53F82130 		ldr	r3, [r3, r1, lsl #2]
 1172 08c0 1344     		add	r3, r3, r2
 1173 08c2 DA0F     		lsrs	r2, r3, #31
 1174 08c4 1344     		add	r3, r3, r2
 1175 08c6 5B10     		asrs	r3, r3, #1
 1176 08c8 C7F8FC30 		str	r3, [r7, #252]
 1177 08cc 07E0     		b	.L53
 1178              	.L52:
 211:algorithm.c   ****     else
 212:algorithm.c   ****         n_ratio_average = an_ratio[n_middle_idx ];
 1179              		.loc 1 212 0
 1180 08ce 07F11403 		add	r3, r7, #20
 1181 08d2 D7F8E420 		ldr	r2, [r7, #228]
 1182 08d6 53F82230 		ldr	r3, [r3, r2, lsl #2]
 1183 08da C7F8FC30 		str	r3, [r7, #252]
 1184              	.L53:
 213:algorithm.c   **** 
 214:algorithm.c   ****     if( n_ratio_average>2 && n_ratio_average <184){
 1185              		.loc 1 214 0
 1186 08de D7F8FC30 		ldr	r3, [r7, #252]
 1187 08e2 022B     		cmp	r3, #2
 1188 08e4 14DD     		ble	.L54
 1189              		.loc 1 214 0 is_stmt 0 discriminator 1
 1190 08e6 D7F8FC30 		ldr	r3, [r7, #252]
 1191 08ea B72B     		cmp	r3, #183
 1192 08ec 10DC     		bgt	.L54
 215:algorithm.c   ****         n_spo2_calc= uch_spo2_table[n_ratio_average] ;
 1193              		.loc 1 215 0 is_stmt 1
 1194 08ee 104A     		ldr	r2, .L61+8
 1195 08f0 D7F8FC30 		ldr	r3, [r7, #252]
 1196 08f4 1344     		add	r3, r3, r2
 1197 08f6 1B78     		ldrb	r3, [r3]	@ zero_extendqisi2
 1198 08f8 C7F8E030 		str	r3, [r7, #224]
 216:algorithm.c   ****         *pn_spo2 = n_spo2_calc ;
 1199              		.loc 1 216 0
 1200 08fc 3B46     		mov	r3, r7
 1201 08fe 1B68     		ldr	r3, [r3]
 1202 0900 D7F8E020 		ldr	r2, [r7, #224]
 1203 0904 1A60     		str	r2, [r3]
 217:algorithm.c   ****         *pch_spo2_valid  = 1;//  float_SPO2 =  -45.060*n_ratio_average* n_ratio_average/10000 + 30.
 1204              		.loc 1 217 0
 1205 0906 D7F84831 		ldr	r3, [r7, #328]
 1206 090a 0122     		movs	r2, #1
 1207 090c 1A70     		strb	r2, [r3]
 1208 090e 07E0     		b	.L1
 1209              	.L54:
 218:algorithm.c   ****     }
 219:algorithm.c   ****     else{
 220:algorithm.c   ****         *pn_spo2 =  -999 ; // do not use SPO2 since signal ratio is out of range
 1210              		.loc 1 220 0
 1211 0910 3B46     		mov	r3, r7
 1212 0912 1B68     		ldr	r3, [r3]
 1213 0914 074A     		ldr	r2, .L61+12
 1214 0916 1A60     		str	r2, [r3]
 221:algorithm.c   ****         *pch_spo2_valid  = 0; 
 1215              		.loc 1 221 0
ARM GAS  C:\Users\Perro\AppData\Local\Temp\cclMvQoy.s 			page 27


 1216 0918 D7F84831 		ldr	r3, [r7, #328]
 1217 091c 0022     		movs	r2, #0
 1218 091e 1A70     		strb	r2, [r3]
 1219              	.L1:
 222:algorithm.c   ****     }
 223:algorithm.c   **** }
 1220              		.loc 1 223 0
 1221 0920 07F59E77 		add	r7, r7, #316
 1222              		.cfi_def_cfa_offset 12
 1223 0924 BD46     		mov	sp, r7
 1224              		.cfi_def_cfa_register 13
 1225              		@ sp needed
 1226 0926 90BD     		pop	{r4, r7, pc}
 1227              	.L62:
 1228              		.align	2
 1229              	.L61:
 1230 0928 D8030000 		.word	an_x
 1231 092c C0070000 		.word	an_y
 1232 0930 00000000 		.word	uch_spo2_table
 1233 0934 19FCFFFF 		.word	-999
 1234              		.cfi_endproc
 1235              	.LFE63:
 1236              		.size	maxim_heart_rate_and_oxygen_saturation, .-maxim_heart_rate_and_oxygen_saturation
 1237              		.section	.text.maxim_find_peaks,"ax",%progbits
 1238              		.align	2
 1239              		.global	maxim_find_peaks
 1240              		.thumb
 1241              		.thumb_func
 1242              		.type	maxim_find_peaks, %function
 1243              	maxim_find_peaks:
 1244              	.LFB64:
 224:algorithm.c   **** 
 225:algorithm.c   **** 
 226:algorithm.c   **** void maxim_find_peaks(int32_t *pn_locs, int32_t *pn_npks, int32_t *pn_x, int32_t n_size, int32_t n_
 227:algorithm.c   **** /**
 228:algorithm.c   **** * \brief        Find peaks
 229:algorithm.c   **** * \par          Details
 230:algorithm.c   **** *               Find at most MAX_NUM peaks above MIN_HEIGHT separated by at least MIN_DISTANCE
 231:algorithm.c   **** *
 232:algorithm.c   **** * \retval       None
 233:algorithm.c   **** */
 234:algorithm.c   **** {
 1245              		.loc 1 234 0
 1246              		.cfi_startproc
 1247              		@ args = 12, pretend = 0, frame = 16
 1248              		@ frame_needed = 1, uses_anonymous_args = 0
 1249 0000 80B5     		push	{r7, lr}
 1250              		.cfi_def_cfa_offset 8
 1251              		.cfi_offset 7, -8
 1252              		.cfi_offset 14, -4
 1253 0002 86B0     		sub	sp, sp, #24
 1254              		.cfi_def_cfa_offset 32
 1255 0004 02AF     		add	r7, sp, #8
 1256              		.cfi_def_cfa 7, 24
 1257 0006 F860     		str	r0, [r7, #12]
 1258 0008 B960     		str	r1, [r7, #8]
 1259 000a 7A60     		str	r2, [r7, #4]
ARM GAS  C:\Users\Perro\AppData\Local\Temp\cclMvQoy.s 			page 28


 1260 000c 3B60     		str	r3, [r7]
 235:algorithm.c   ****     maxim_peaks_above_min_height( pn_locs, pn_npks, pn_x, n_size, n_min_height );
 1261              		.loc 1 235 0
 1262 000e BB69     		ldr	r3, [r7, #24]
 1263 0010 0093     		str	r3, [sp]
 1264 0012 3B68     		ldr	r3, [r7]
 1265 0014 7A68     		ldr	r2, [r7, #4]
 1266 0016 B968     		ldr	r1, [r7, #8]
 1267 0018 F868     		ldr	r0, [r7, #12]
 1268 001a FFF7FEFF 		bl	maxim_peaks_above_min_height
 236:algorithm.c   ****     maxim_remove_close_peaks( pn_locs, pn_npks, pn_x, n_min_distance );
 1269              		.loc 1 236 0
 1270 001e FB69     		ldr	r3, [r7, #28]
 1271 0020 7A68     		ldr	r2, [r7, #4]
 1272 0022 B968     		ldr	r1, [r7, #8]
 1273 0024 F868     		ldr	r0, [r7, #12]
 1274 0026 FFF7FEFF 		bl	maxim_remove_close_peaks
 237:algorithm.c   ****     *pn_npks = min( *pn_npks, n_max_num );
 1275              		.loc 1 237 0
 1276 002a BB68     		ldr	r3, [r7, #8]
 1277 002c 1A68     		ldr	r2, [r3]
 1278 002e 3B6A     		ldr	r3, [r7, #32]
 1279 0030 9A42     		cmp	r2, r3
 1280 0032 A8BF     		it	ge
 1281 0034 1A46     		movge	r2, r3
 1282 0036 BB68     		ldr	r3, [r7, #8]
 1283 0038 1A60     		str	r2, [r3]
 238:algorithm.c   **** }
 1284              		.loc 1 238 0
 1285 003a 00BF     		nop
 1286 003c 1037     		adds	r7, r7, #16
 1287              		.cfi_def_cfa_offset 8
 1288 003e BD46     		mov	sp, r7
 1289              		.cfi_def_cfa_register 13
 1290              		@ sp needed
 1291 0040 80BD     		pop	{r7, pc}
 1292              		.cfi_endproc
 1293              	.LFE64:
 1294              		.size	maxim_find_peaks, .-maxim_find_peaks
 1295 0042 00BF     		.section	.text.maxim_peaks_above_min_height,"ax",%progbits
 1296              		.align	2
 1297              		.global	maxim_peaks_above_min_height
 1298              		.thumb
 1299              		.thumb_func
 1300              		.type	maxim_peaks_above_min_height, %function
 1301              	maxim_peaks_above_min_height:
 1302              	.LFB65:
 239:algorithm.c   **** 
 240:algorithm.c   **** void maxim_peaks_above_min_height(int32_t *pn_locs, int32_t *pn_npks, int32_t  *pn_x, int32_t n_siz
 241:algorithm.c   **** /**
 242:algorithm.c   **** * \brief        Find peaks above n_min_height
 243:algorithm.c   **** * \par          Details
 244:algorithm.c   **** *               Find all peaks above MIN_HEIGHT
 245:algorithm.c   **** *
 246:algorithm.c   **** * \retval       None
 247:algorithm.c   **** */
 248:algorithm.c   **** {
ARM GAS  C:\Users\Perro\AppData\Local\Temp\cclMvQoy.s 			page 29


 1303              		.loc 1 248 0
 1304              		.cfi_startproc
 1305              		@ args = 4, pretend = 0, frame = 24
 1306              		@ frame_needed = 1, uses_anonymous_args = 0
 1307              		@ link register save eliminated.
 1308 0000 80B4     		push	{r7}
 1309              		.cfi_def_cfa_offset 4
 1310              		.cfi_offset 7, -4
 1311 0002 87B0     		sub	sp, sp, #28
 1312              		.cfi_def_cfa_offset 32
 1313 0004 00AF     		add	r7, sp, #0
 1314              		.cfi_def_cfa_register 7
 1315 0006 F860     		str	r0, [r7, #12]
 1316 0008 B960     		str	r1, [r7, #8]
 1317 000a 7A60     		str	r2, [r7, #4]
 1318 000c 3B60     		str	r3, [r7]
 249:algorithm.c   ****     int32_t i = 1, n_width;
 1319              		.loc 1 249 0
 1320 000e 0123     		movs	r3, #1
 1321 0010 7B61     		str	r3, [r7, #20]
 250:algorithm.c   ****     *pn_npks = 0;
 1322              		.loc 1 250 0
 1323 0012 BB68     		ldr	r3, [r7, #8]
 1324 0014 0022     		movs	r2, #0
 1325 0016 1A60     		str	r2, [r3]
 251:algorithm.c   ****     
 252:algorithm.c   ****     while (i < n_size-1){
 1326              		.loc 1 252 0
 1327 0018 5AE0     		b	.L65
 1328              	.L72:
 253:algorithm.c   ****         if (pn_x[i] > n_min_height && pn_x[i] > pn_x[i-1]){            // find left edge of potenti
 1329              		.loc 1 253 0
 1330 001a 7B69     		ldr	r3, [r7, #20]
 1331 001c 9B00     		lsls	r3, r3, #2
 1332 001e 7A68     		ldr	r2, [r7, #4]
 1333 0020 1344     		add	r3, r3, r2
 1334 0022 1A68     		ldr	r2, [r3]
 1335 0024 3B6A     		ldr	r3, [r7, #32]
 1336 0026 9A42     		cmp	r2, r3
 1337 0028 4FDD     		ble	.L66
 1338              		.loc 1 253 0 is_stmt 0 discriminator 1
 1339 002a 7B69     		ldr	r3, [r7, #20]
 1340 002c 9B00     		lsls	r3, r3, #2
 1341 002e 7A68     		ldr	r2, [r7, #4]
 1342 0030 1344     		add	r3, r3, r2
 1343 0032 1A68     		ldr	r2, [r3]
 1344 0034 7B69     		ldr	r3, [r7, #20]
 1345 0036 03F18043 		add	r3, r3, #1073741824
 1346 003a 013B     		subs	r3, r3, #1
 1347 003c 9B00     		lsls	r3, r3, #2
 1348 003e 7968     		ldr	r1, [r7, #4]
 1349 0040 0B44     		add	r3, r3, r1
 1350 0042 1B68     		ldr	r3, [r3]
 1351 0044 9A42     		cmp	r2, r3
 1352 0046 40DD     		ble	.L66
 254:algorithm.c   ****             n_width = 1;
 1353              		.loc 1 254 0 is_stmt 1
ARM GAS  C:\Users\Perro\AppData\Local\Temp\cclMvQoy.s 			page 30


 1354 0048 0123     		movs	r3, #1
 1355 004a 3B61     		str	r3, [r7, #16]
 255:algorithm.c   ****             while (i+n_width < n_size && pn_x[i] == pn_x[i+n_width])    // find flat peaks
 1356              		.loc 1 255 0
 1357 004c 02E0     		b	.L67
 1358              	.L69:
 256:algorithm.c   ****                 n_width++;
 1359              		.loc 1 256 0
 1360 004e 3B69     		ldr	r3, [r7, #16]
 1361 0050 0133     		adds	r3, r3, #1
 1362 0052 3B61     		str	r3, [r7, #16]
 1363              	.L67:
 255:algorithm.c   ****             while (i+n_width < n_size && pn_x[i] == pn_x[i+n_width])    // find flat peaks
 1364              		.loc 1 255 0
 1365 0054 7A69     		ldr	r2, [r7, #20]
 1366 0056 3B69     		ldr	r3, [r7, #16]
 1367 0058 1A44     		add	r2, r2, r3
 1368 005a 3B68     		ldr	r3, [r7]
 1369 005c 9A42     		cmp	r2, r3
 1370 005e 0DDA     		bge	.L68
 255:algorithm.c   ****             while (i+n_width < n_size && pn_x[i] == pn_x[i+n_width])    // find flat peaks
 1371              		.loc 1 255 0 is_stmt 0 discriminator 1
 1372 0060 7B69     		ldr	r3, [r7, #20]
 1373 0062 9B00     		lsls	r3, r3, #2
 1374 0064 7A68     		ldr	r2, [r7, #4]
 1375 0066 1344     		add	r3, r3, r2
 1376 0068 1A68     		ldr	r2, [r3]
 1377 006a 7969     		ldr	r1, [r7, #20]
 1378 006c 3B69     		ldr	r3, [r7, #16]
 1379 006e 0B44     		add	r3, r3, r1
 1380 0070 9B00     		lsls	r3, r3, #2
 1381 0072 7968     		ldr	r1, [r7, #4]
 1382 0074 0B44     		add	r3, r3, r1
 1383 0076 1B68     		ldr	r3, [r3]
 1384 0078 9A42     		cmp	r2, r3
 1385 007a E8D0     		beq	.L69
 1386              	.L68:
 257:algorithm.c   ****             if (pn_x[i] > pn_x[i+n_width] && (*pn_npks) < 15 ){                            // find 
 1387              		.loc 1 257 0 is_stmt 1
 1388 007c 7B69     		ldr	r3, [r7, #20]
 1389 007e 9B00     		lsls	r3, r3, #2
 1390 0080 7A68     		ldr	r2, [r7, #4]
 1391 0082 1344     		add	r3, r3, r2
 1392 0084 1A68     		ldr	r2, [r3]
 1393 0086 7969     		ldr	r1, [r7, #20]
 1394 0088 3B69     		ldr	r3, [r7, #16]
 1395 008a 0B44     		add	r3, r3, r1
 1396 008c 9B00     		lsls	r3, r3, #2
 1397 008e 7968     		ldr	r1, [r7, #4]
 1398 0090 0B44     		add	r3, r3, r1
 1399 0092 1B68     		ldr	r3, [r3]
 1400 0094 9A42     		cmp	r2, r3
 1401 0096 13DD     		ble	.L70
 1402              		.loc 1 257 0 is_stmt 0 discriminator 1
 1403 0098 BB68     		ldr	r3, [r7, #8]
 1404 009a 1B68     		ldr	r3, [r3]
 1405 009c 0E2B     		cmp	r3, #14
ARM GAS  C:\Users\Perro\AppData\Local\Temp\cclMvQoy.s 			page 31


 1406 009e 0FDC     		bgt	.L70
 258:algorithm.c   ****                 pn_locs[(*pn_npks)++] = i;        
 1407              		.loc 1 258 0 is_stmt 1
 1408 00a0 BB68     		ldr	r3, [r7, #8]
 1409 00a2 1B68     		ldr	r3, [r3]
 1410 00a4 591C     		adds	r1, r3, #1
 1411 00a6 BA68     		ldr	r2, [r7, #8]
 1412 00a8 1160     		str	r1, [r2]
 1413 00aa 9B00     		lsls	r3, r3, #2
 1414 00ac FA68     		ldr	r2, [r7, #12]
 1415 00ae 1344     		add	r3, r3, r2
 1416 00b0 7A69     		ldr	r2, [r7, #20]
 1417 00b2 1A60     		str	r2, [r3]
 259:algorithm.c   ****                 // for flat peaks, peak location is left edge
 260:algorithm.c   ****                 i += n_width+1;
 1418              		.loc 1 260 0
 1419 00b4 3B69     		ldr	r3, [r7, #16]
 1420 00b6 0133     		adds	r3, r3, #1
 1421 00b8 7A69     		ldr	r2, [r7, #20]
 1422 00ba 1344     		add	r3, r3, r2
 1423 00bc 7B61     		str	r3, [r7, #20]
 1424 00be 03E0     		b	.L71
 1425              	.L70:
 261:algorithm.c   ****             }
 262:algorithm.c   ****             else
 263:algorithm.c   ****                 i += n_width;
 1426              		.loc 1 263 0
 1427 00c0 7A69     		ldr	r2, [r7, #20]
 1428 00c2 3B69     		ldr	r3, [r7, #16]
 1429 00c4 1344     		add	r3, r3, r2
 1430 00c6 7B61     		str	r3, [r7, #20]
 1431              	.L71:
 257:algorithm.c   ****                 pn_locs[(*pn_npks)++] = i;        
 1432              		.loc 1 257 0
 1433 00c8 02E0     		b	.L65
 1434              	.L66:
 264:algorithm.c   ****         }
 265:algorithm.c   ****         else
 266:algorithm.c   ****             i++;
 1435              		.loc 1 266 0
 1436 00ca 7B69     		ldr	r3, [r7, #20]
 1437 00cc 0133     		adds	r3, r3, #1
 1438 00ce 7B61     		str	r3, [r7, #20]
 1439              	.L65:
 252:algorithm.c   ****         if (pn_x[i] > n_min_height && pn_x[i] > pn_x[i-1]){            // find left edge of potenti
 1440              		.loc 1 252 0
 1441 00d0 3B68     		ldr	r3, [r7]
 1442 00d2 5A1E     		subs	r2, r3, #1
 1443 00d4 7B69     		ldr	r3, [r7, #20]
 1444 00d6 9A42     		cmp	r2, r3
 1445 00d8 9FDC     		bgt	.L72
 267:algorithm.c   ****     }
 268:algorithm.c   **** }
 1446              		.loc 1 268 0
 1447 00da 00BF     		nop
 1448 00dc 1C37     		adds	r7, r7, #28
 1449              		.cfi_def_cfa_offset 4
ARM GAS  C:\Users\Perro\AppData\Local\Temp\cclMvQoy.s 			page 32


 1450 00de BD46     		mov	sp, r7
 1451              		.cfi_def_cfa_register 13
 1452              		@ sp needed
 1453 00e0 80BC     		pop	{r7}
 1454              		.cfi_restore 7
 1455              		.cfi_def_cfa_offset 0
 1456 00e2 7047     		bx	lr
 1457              		.cfi_endproc
 1458              	.LFE65:
 1459              		.size	maxim_peaks_above_min_height, .-maxim_peaks_above_min_height
 1460              		.section	.text.maxim_remove_close_peaks,"ax",%progbits
 1461              		.align	2
 1462              		.global	maxim_remove_close_peaks
 1463              		.thumb
 1464              		.thumb_func
 1465              		.type	maxim_remove_close_peaks, %function
 1466              	maxim_remove_close_peaks:
 1467              	.LFB66:
 269:algorithm.c   **** 
 270:algorithm.c   **** 
 271:algorithm.c   **** void maxim_remove_close_peaks(int32_t *pn_locs, int32_t *pn_npks, int32_t *pn_x, int32_t n_min_dist
 272:algorithm.c   **** /**
 273:algorithm.c   **** * \brief        Remove peaks
 274:algorithm.c   **** * \par          Details
 275:algorithm.c   **** *               Remove peaks separated by less than MIN_DISTANCE
 276:algorithm.c   **** *
 277:algorithm.c   **** * \retval       None
 278:algorithm.c   **** */
 279:algorithm.c   **** {
 1468              		.loc 1 279 0
 1469              		.cfi_startproc
 1470              		@ args = 0, pretend = 0, frame = 32
 1471              		@ frame_needed = 1, uses_anonymous_args = 0
 1472 0000 80B5     		push	{r7, lr}
 1473              		.cfi_def_cfa_offset 8
 1474              		.cfi_offset 7, -8
 1475              		.cfi_offset 14, -4
 1476 0002 88B0     		sub	sp, sp, #32
 1477              		.cfi_def_cfa_offset 40
 1478 0004 00AF     		add	r7, sp, #0
 1479              		.cfi_def_cfa_register 7
 1480 0006 F860     		str	r0, [r7, #12]
 1481 0008 B960     		str	r1, [r7, #8]
 1482 000a 7A60     		str	r2, [r7, #4]
 1483 000c 3B60     		str	r3, [r7]
 280:algorithm.c   ****     
 281:algorithm.c   ****     int32_t i, j, n_old_npks, n_dist;
 282:algorithm.c   ****     
 283:algorithm.c   ****     /* Order peaks from large to small */
 284:algorithm.c   ****     maxim_sort_indices_descend( pn_x, pn_locs, *pn_npks );
 1484              		.loc 1 284 0
 1485 000e BB68     		ldr	r3, [r7, #8]
 1486 0010 1B68     		ldr	r3, [r3]
 1487 0012 1A46     		mov	r2, r3
 1488 0014 F968     		ldr	r1, [r7, #12]
 1489 0016 7868     		ldr	r0, [r7, #4]
 1490 0018 FFF7FEFF 		bl	maxim_sort_indices_descend
ARM GAS  C:\Users\Perro\AppData\Local\Temp\cclMvQoy.s 			page 33


 285:algorithm.c   **** 
 286:algorithm.c   ****     for ( i = -1; i < *pn_npks; i++ ){
 1491              		.loc 1 286 0
 1492 001c 4FF0FF33 		mov	r3, #-1
 1493 0020 FB61     		str	r3, [r7, #28]
 1494 0022 3EE0     		b	.L74
 1495              	.L81:
 287:algorithm.c   ****         n_old_npks = *pn_npks;
 1496              		.loc 1 287 0
 1497 0024 BB68     		ldr	r3, [r7, #8]
 1498 0026 1B68     		ldr	r3, [r3]
 1499 0028 7B61     		str	r3, [r7, #20]
 288:algorithm.c   ****         *pn_npks = i+1;
 1500              		.loc 1 288 0
 1501 002a FB69     		ldr	r3, [r7, #28]
 1502 002c 5A1C     		adds	r2, r3, #1
 1503 002e BB68     		ldr	r3, [r7, #8]
 1504 0030 1A60     		str	r2, [r3]
 289:algorithm.c   ****         for ( j = i+1; j < n_old_npks; j++ ){
 1505              		.loc 1 289 0
 1506 0032 FB69     		ldr	r3, [r7, #28]
 1507 0034 0133     		adds	r3, r3, #1
 1508 0036 BB61     		str	r3, [r7, #24]
 1509 0038 2CE0     		b	.L75
 1510              	.L80:
 290:algorithm.c   ****             n_dist =  pn_locs[j] - ( i == -1 ? -1 : pn_locs[i] ); // lag-zero peak of autocorr is a
 1511              		.loc 1 290 0
 1512 003a BB69     		ldr	r3, [r7, #24]
 1513 003c 9B00     		lsls	r3, r3, #2
 1514 003e FA68     		ldr	r2, [r7, #12]
 1515 0040 1344     		add	r3, r3, r2
 1516 0042 1A68     		ldr	r2, [r3]
 1517 0044 FB69     		ldr	r3, [r7, #28]
 1518 0046 B3F1FF3F 		cmp	r3, #-1
 1519 004a 05D0     		beq	.L76
 1520              		.loc 1 290 0 is_stmt 0 discriminator 1
 1521 004c FB69     		ldr	r3, [r7, #28]
 1522 004e 9B00     		lsls	r3, r3, #2
 1523 0050 F968     		ldr	r1, [r7, #12]
 1524 0052 0B44     		add	r3, r3, r1
 1525 0054 1B68     		ldr	r3, [r3]
 1526 0056 01E0     		b	.L77
 1527              	.L76:
 1528              		.loc 1 290 0 discriminator 2
 1529 0058 4FF0FF33 		mov	r3, #-1
 1530              	.L77:
 1531              		.loc 1 290 0 discriminator 4
 1532 005c D31A     		subs	r3, r2, r3
 1533 005e 3B61     		str	r3, [r7, #16]
 291:algorithm.c   ****             if ( n_dist > n_min_distance || n_dist < -n_min_distance )
 1534              		.loc 1 291 0 is_stmt 1 discriminator 4
 1535 0060 3A69     		ldr	r2, [r7, #16]
 1536 0062 3B68     		ldr	r3, [r7]
 1537 0064 9A42     		cmp	r2, r3
 1538 0066 04DC     		bgt	.L78
 1539              		.loc 1 291 0 is_stmt 0 discriminator 1
 1540 0068 3B68     		ldr	r3, [r7]
ARM GAS  C:\Users\Perro\AppData\Local\Temp\cclMvQoy.s 			page 34


 1541 006a 5A42     		negs	r2, r3
 1542 006c 3B69     		ldr	r3, [r7, #16]
 1543 006e 9A42     		cmp	r2, r3
 1544 0070 0DDD     		ble	.L79
 1545              	.L78:
 292:algorithm.c   ****                 pn_locs[(*pn_npks)++] = pn_locs[j];
 1546              		.loc 1 292 0 is_stmt 1
 1547 0072 BB68     		ldr	r3, [r7, #8]
 1548 0074 1B68     		ldr	r3, [r3]
 1549 0076 591C     		adds	r1, r3, #1
 1550 0078 BA68     		ldr	r2, [r7, #8]
 1551 007a 1160     		str	r1, [r2]
 1552 007c 9B00     		lsls	r3, r3, #2
 1553 007e FA68     		ldr	r2, [r7, #12]
 1554 0080 1344     		add	r3, r3, r2
 1555 0082 BA69     		ldr	r2, [r7, #24]
 1556 0084 9200     		lsls	r2, r2, #2
 1557 0086 F968     		ldr	r1, [r7, #12]
 1558 0088 0A44     		add	r2, r2, r1
 1559 008a 1268     		ldr	r2, [r2]
 1560 008c 1A60     		str	r2, [r3]
 1561              	.L79:
 289:algorithm.c   ****             n_dist =  pn_locs[j] - ( i == -1 ? -1 : pn_locs[i] ); // lag-zero peak of autocorr is a
 1562              		.loc 1 289 0 discriminator 2
 1563 008e BB69     		ldr	r3, [r7, #24]
 1564 0090 0133     		adds	r3, r3, #1
 1565 0092 BB61     		str	r3, [r7, #24]
 1566              	.L75:
 289:algorithm.c   ****             n_dist =  pn_locs[j] - ( i == -1 ? -1 : pn_locs[i] ); // lag-zero peak of autocorr is a
 1567              		.loc 1 289 0 is_stmt 0 discriminator 1
 1568 0094 BA69     		ldr	r2, [r7, #24]
 1569 0096 7B69     		ldr	r3, [r7, #20]
 1570 0098 9A42     		cmp	r2, r3
 1571 009a CEDB     		blt	.L80
 286:algorithm.c   ****         n_old_npks = *pn_npks;
 1572              		.loc 1 286 0 is_stmt 1 discriminator 2
 1573 009c FB69     		ldr	r3, [r7, #28]
 1574 009e 0133     		adds	r3, r3, #1
 1575 00a0 FB61     		str	r3, [r7, #28]
 1576              	.L74:
 286:algorithm.c   ****         n_old_npks = *pn_npks;
 1577              		.loc 1 286 0 is_stmt 0 discriminator 1
 1578 00a2 BB68     		ldr	r3, [r7, #8]
 1579 00a4 1A68     		ldr	r2, [r3]
 1580 00a6 FB69     		ldr	r3, [r7, #28]
 1581 00a8 9A42     		cmp	r2, r3
 1582 00aa BBDC     		bgt	.L81
 293:algorithm.c   ****         }
 294:algorithm.c   ****     }
 295:algorithm.c   **** 
 296:algorithm.c   ****     // Resort indices longo ascending order
 297:algorithm.c   ****     maxim_sort_ascend( pn_locs, *pn_npks );
 1583              		.loc 1 297 0 is_stmt 1
 1584 00ac BB68     		ldr	r3, [r7, #8]
 1585 00ae 1B68     		ldr	r3, [r3]
 1586 00b0 1946     		mov	r1, r3
 1587 00b2 F868     		ldr	r0, [r7, #12]
ARM GAS  C:\Users\Perro\AppData\Local\Temp\cclMvQoy.s 			page 35


 1588 00b4 FFF7FEFF 		bl	maxim_sort_ascend
 298:algorithm.c   **** }
 1589              		.loc 1 298 0
 1590 00b8 00BF     		nop
 1591 00ba 2037     		adds	r7, r7, #32
 1592              		.cfi_def_cfa_offset 8
 1593 00bc BD46     		mov	sp, r7
 1594              		.cfi_def_cfa_register 13
 1595              		@ sp needed
 1596 00be 80BD     		pop	{r7, pc}
 1597              		.cfi_endproc
 1598              	.LFE66:
 1599              		.size	maxim_remove_close_peaks, .-maxim_remove_close_peaks
 1600              		.section	.text.maxim_sort_ascend,"ax",%progbits
 1601              		.align	2
 1602              		.global	maxim_sort_ascend
 1603              		.thumb
 1604              		.thumb_func
 1605              		.type	maxim_sort_ascend, %function
 1606              	maxim_sort_ascend:
 1607              	.LFB67:
 299:algorithm.c   **** 
 300:algorithm.c   **** void maxim_sort_ascend(int32_t *pn_x,int32_t n_size) 
 301:algorithm.c   **** /**
 302:algorithm.c   **** * \brief        Sort array
 303:algorithm.c   **** * \par          Details
 304:algorithm.c   **** *               Sort array in ascending order (insertion sort algorithm)
 305:algorithm.c   **** *
 306:algorithm.c   **** * \retval       None
 307:algorithm.c   **** */
 308:algorithm.c   **** {
 1608              		.loc 1 308 0
 1609              		.cfi_startproc
 1610              		@ args = 0, pretend = 0, frame = 24
 1611              		@ frame_needed = 1, uses_anonymous_args = 0
 1612              		@ link register save eliminated.
 1613 0000 80B4     		push	{r7}
 1614              		.cfi_def_cfa_offset 4
 1615              		.cfi_offset 7, -4
 1616 0002 87B0     		sub	sp, sp, #28
 1617              		.cfi_def_cfa_offset 32
 1618 0004 00AF     		add	r7, sp, #0
 1619              		.cfi_def_cfa_register 7
 1620 0006 7860     		str	r0, [r7, #4]
 1621 0008 3960     		str	r1, [r7]
 309:algorithm.c   ****     int32_t i, j, n_temp;
 310:algorithm.c   ****     for (i = 1; i < n_size; i++) {
 1622              		.loc 1 310 0
 1623 000a 0123     		movs	r3, #1
 1624 000c 7B61     		str	r3, [r7, #20]
 1625 000e 2FE0     		b	.L83
 1626              	.L87:
 311:algorithm.c   ****         n_temp = pn_x[i];
 1627              		.loc 1 311 0
 1628 0010 7B69     		ldr	r3, [r7, #20]
 1629 0012 9B00     		lsls	r3, r3, #2
 1630 0014 7A68     		ldr	r2, [r7, #4]
ARM GAS  C:\Users\Perro\AppData\Local\Temp\cclMvQoy.s 			page 36


 1631 0016 1344     		add	r3, r3, r2
 1632 0018 1B68     		ldr	r3, [r3]
 1633 001a FB60     		str	r3, [r7, #12]
 312:algorithm.c   ****         for (j = i; j > 0 && n_temp < pn_x[j-1]; j--)
 1634              		.loc 1 312 0
 1635 001c 7B69     		ldr	r3, [r7, #20]
 1636 001e 3B61     		str	r3, [r7, #16]
 1637 0020 0FE0     		b	.L84
 1638              	.L86:
 313:algorithm.c   ****             pn_x[j] = pn_x[j-1];
 1639              		.loc 1 313 0 discriminator 4
 1640 0022 3B69     		ldr	r3, [r7, #16]
 1641 0024 9B00     		lsls	r3, r3, #2
 1642 0026 7A68     		ldr	r2, [r7, #4]
 1643 0028 1A44     		add	r2, r2, r3
 1644 002a 3B69     		ldr	r3, [r7, #16]
 1645 002c 03F18043 		add	r3, r3, #1073741824
 1646 0030 013B     		subs	r3, r3, #1
 1647 0032 9B00     		lsls	r3, r3, #2
 1648 0034 7968     		ldr	r1, [r7, #4]
 1649 0036 0B44     		add	r3, r3, r1
 1650 0038 1B68     		ldr	r3, [r3]
 1651 003a 1360     		str	r3, [r2]
 312:algorithm.c   ****         for (j = i; j > 0 && n_temp < pn_x[j-1]; j--)
 1652              		.loc 1 312 0 discriminator 4
 1653 003c 3B69     		ldr	r3, [r7, #16]
 1654 003e 013B     		subs	r3, r3, #1
 1655 0040 3B61     		str	r3, [r7, #16]
 1656              	.L84:
 312:algorithm.c   ****         for (j = i; j > 0 && n_temp < pn_x[j-1]; j--)
 1657              		.loc 1 312 0 is_stmt 0 discriminator 1
 1658 0042 3B69     		ldr	r3, [r7, #16]
 1659 0044 002B     		cmp	r3, #0
 1660 0046 0ADD     		ble	.L85
 312:algorithm.c   ****         for (j = i; j > 0 && n_temp < pn_x[j-1]; j--)
 1661              		.loc 1 312 0 discriminator 3
 1662 0048 3B69     		ldr	r3, [r7, #16]
 1663 004a 03F18043 		add	r3, r3, #1073741824
 1664 004e 013B     		subs	r3, r3, #1
 1665 0050 9B00     		lsls	r3, r3, #2
 1666 0052 7A68     		ldr	r2, [r7, #4]
 1667 0054 1344     		add	r3, r3, r2
 1668 0056 1A68     		ldr	r2, [r3]
 1669 0058 FB68     		ldr	r3, [r7, #12]
 1670 005a 9A42     		cmp	r2, r3
 1671 005c E1DC     		bgt	.L86
 1672              	.L85:
 314:algorithm.c   ****         pn_x[j] = n_temp;
 1673              		.loc 1 314 0 is_stmt 1 discriminator 2
 1674 005e 3B69     		ldr	r3, [r7, #16]
 1675 0060 9B00     		lsls	r3, r3, #2
 1676 0062 7A68     		ldr	r2, [r7, #4]
 1677 0064 1344     		add	r3, r3, r2
 1678 0066 FA68     		ldr	r2, [r7, #12]
 1679 0068 1A60     		str	r2, [r3]
 310:algorithm.c   ****         n_temp = pn_x[i];
 1680              		.loc 1 310 0 discriminator 2
ARM GAS  C:\Users\Perro\AppData\Local\Temp\cclMvQoy.s 			page 37


 1681 006a 7B69     		ldr	r3, [r7, #20]
 1682 006c 0133     		adds	r3, r3, #1
 1683 006e 7B61     		str	r3, [r7, #20]
 1684              	.L83:
 310:algorithm.c   ****         n_temp = pn_x[i];
 1685              		.loc 1 310 0 is_stmt 0 discriminator 1
 1686 0070 7A69     		ldr	r2, [r7, #20]
 1687 0072 3B68     		ldr	r3, [r7]
 1688 0074 9A42     		cmp	r2, r3
 1689 0076 CBDB     		blt	.L87
 315:algorithm.c   ****     }
 316:algorithm.c   **** }
 1690              		.loc 1 316 0 is_stmt 1
 1691 0078 00BF     		nop
 1692 007a 1C37     		adds	r7, r7, #28
 1693              		.cfi_def_cfa_offset 4
 1694 007c BD46     		mov	sp, r7
 1695              		.cfi_def_cfa_register 13
 1696              		@ sp needed
 1697 007e 80BC     		pop	{r7}
 1698              		.cfi_restore 7
 1699              		.cfi_def_cfa_offset 0
 1700 0080 7047     		bx	lr
 1701              		.cfi_endproc
 1702              	.LFE67:
 1703              		.size	maxim_sort_ascend, .-maxim_sort_ascend
 1704 0082 00BF     		.section	.text.maxim_sort_indices_descend,"ax",%progbits
 1705              		.align	2
 1706              		.global	maxim_sort_indices_descend
 1707              		.thumb
 1708              		.thumb_func
 1709              		.type	maxim_sort_indices_descend, %function
 1710              	maxim_sort_indices_descend:
 1711              	.LFB68:
 317:algorithm.c   **** 
 318:algorithm.c   **** void maxim_sort_indices_descend(int32_t *pn_x, int32_t *pn_indx, int32_t n_size)
 319:algorithm.c   **** /**
 320:algorithm.c   **** * \brief        Sort indices
 321:algorithm.c   **** * \par          Details
 322:algorithm.c   **** *               Sort indices according to descending order (insertion sort algorithm)
 323:algorithm.c   **** *
 324:algorithm.c   **** * \retval       None
 325:algorithm.c   **** */ 
 326:algorithm.c   **** {
 1712              		.loc 1 326 0
 1713              		.cfi_startproc
 1714              		@ args = 0, pretend = 0, frame = 32
 1715              		@ frame_needed = 1, uses_anonymous_args = 0
 1716              		@ link register save eliminated.
 1717 0000 80B4     		push	{r7}
 1718              		.cfi_def_cfa_offset 4
 1719              		.cfi_offset 7, -4
 1720 0002 89B0     		sub	sp, sp, #36
 1721              		.cfi_def_cfa_offset 40
 1722 0004 00AF     		add	r7, sp, #0
 1723              		.cfi_def_cfa_register 7
 1724 0006 F860     		str	r0, [r7, #12]
ARM GAS  C:\Users\Perro\AppData\Local\Temp\cclMvQoy.s 			page 38


 1725 0008 B960     		str	r1, [r7, #8]
 1726 000a 7A60     		str	r2, [r7, #4]
 327:algorithm.c   ****     int32_t i, j, n_temp;
 328:algorithm.c   ****     for (i = 1; i < n_size; i++) {
 1727              		.loc 1 328 0
 1728 000c 0123     		movs	r3, #1
 1729 000e FB61     		str	r3, [r7, #28]
 1730 0010 37E0     		b	.L89
 1731              	.L93:
 329:algorithm.c   ****         n_temp = pn_indx[i];
 1732              		.loc 1 329 0
 1733 0012 FB69     		ldr	r3, [r7, #28]
 1734 0014 9B00     		lsls	r3, r3, #2
 1735 0016 BA68     		ldr	r2, [r7, #8]
 1736 0018 1344     		add	r3, r3, r2
 1737 001a 1B68     		ldr	r3, [r3]
 1738 001c 7B61     		str	r3, [r7, #20]
 330:algorithm.c   ****         for (j = i; j > 0 && pn_x[n_temp] > pn_x[pn_indx[j-1]]; j--)
 1739              		.loc 1 330 0
 1740 001e FB69     		ldr	r3, [r7, #28]
 1741 0020 BB61     		str	r3, [r7, #24]
 1742 0022 0FE0     		b	.L90
 1743              	.L92:
 331:algorithm.c   ****             pn_indx[j] = pn_indx[j-1];
 1744              		.loc 1 331 0 discriminator 4
 1745 0024 BB69     		ldr	r3, [r7, #24]
 1746 0026 9B00     		lsls	r3, r3, #2
 1747 0028 BA68     		ldr	r2, [r7, #8]
 1748 002a 1A44     		add	r2, r2, r3
 1749 002c BB69     		ldr	r3, [r7, #24]
 1750 002e 03F18043 		add	r3, r3, #1073741824
 1751 0032 013B     		subs	r3, r3, #1
 1752 0034 9B00     		lsls	r3, r3, #2
 1753 0036 B968     		ldr	r1, [r7, #8]
 1754 0038 0B44     		add	r3, r3, r1
 1755 003a 1B68     		ldr	r3, [r3]
 1756 003c 1360     		str	r3, [r2]
 330:algorithm.c   ****         for (j = i; j > 0 && pn_x[n_temp] > pn_x[pn_indx[j-1]]; j--)
 1757              		.loc 1 330 0 discriminator 4
 1758 003e BB69     		ldr	r3, [r7, #24]
 1759 0040 013B     		subs	r3, r3, #1
 1760 0042 BB61     		str	r3, [r7, #24]
 1761              	.L90:
 330:algorithm.c   ****         for (j = i; j > 0 && pn_x[n_temp] > pn_x[pn_indx[j-1]]; j--)
 1762              		.loc 1 330 0 is_stmt 0 discriminator 1
 1763 0044 BB69     		ldr	r3, [r7, #24]
 1764 0046 002B     		cmp	r3, #0
 1765 0048 12DD     		ble	.L91
 330:algorithm.c   ****         for (j = i; j > 0 && pn_x[n_temp] > pn_x[pn_indx[j-1]]; j--)
 1766              		.loc 1 330 0 discriminator 3
 1767 004a 7B69     		ldr	r3, [r7, #20]
 1768 004c 9B00     		lsls	r3, r3, #2
 1769 004e FA68     		ldr	r2, [r7, #12]
 1770 0050 1344     		add	r3, r3, r2
 1771 0052 1A68     		ldr	r2, [r3]
 1772 0054 BB69     		ldr	r3, [r7, #24]
 1773 0056 03F18043 		add	r3, r3, #1073741824
ARM GAS  C:\Users\Perro\AppData\Local\Temp\cclMvQoy.s 			page 39


 1774 005a 013B     		subs	r3, r3, #1
 1775 005c 9B00     		lsls	r3, r3, #2
 1776 005e B968     		ldr	r1, [r7, #8]
 1777 0060 0B44     		add	r3, r3, r1
 1778 0062 1B68     		ldr	r3, [r3]
 1779 0064 9B00     		lsls	r3, r3, #2
 1780 0066 F968     		ldr	r1, [r7, #12]
 1781 0068 0B44     		add	r3, r3, r1
 1782 006a 1B68     		ldr	r3, [r3]
 1783 006c 9A42     		cmp	r2, r3
 1784 006e D9DC     		bgt	.L92
 1785              	.L91:
 332:algorithm.c   ****         pn_indx[j] = n_temp;
 1786              		.loc 1 332 0 is_stmt 1 discriminator 2
 1787 0070 BB69     		ldr	r3, [r7, #24]
 1788 0072 9B00     		lsls	r3, r3, #2
 1789 0074 BA68     		ldr	r2, [r7, #8]
 1790 0076 1344     		add	r3, r3, r2
 1791 0078 7A69     		ldr	r2, [r7, #20]
 1792 007a 1A60     		str	r2, [r3]
 328:algorithm.c   ****         n_temp = pn_indx[i];
 1793              		.loc 1 328 0 discriminator 2
 1794 007c FB69     		ldr	r3, [r7, #28]
 1795 007e 0133     		adds	r3, r3, #1
 1796 0080 FB61     		str	r3, [r7, #28]
 1797              	.L89:
 328:algorithm.c   ****         n_temp = pn_indx[i];
 1798              		.loc 1 328 0 is_stmt 0 discriminator 1
 1799 0082 FA69     		ldr	r2, [r7, #28]
 1800 0084 7B68     		ldr	r3, [r7, #4]
 1801 0086 9A42     		cmp	r2, r3
 1802 0088 C3DB     		blt	.L93
 333:algorithm.c   ****     }
 334:algorithm.c   **** }
 1803              		.loc 1 334 0 is_stmt 1
 1804 008a 00BF     		nop
 1805 008c 2437     		adds	r7, r7, #36
 1806              		.cfi_def_cfa_offset 4
 1807 008e BD46     		mov	sp, r7
 1808              		.cfi_def_cfa_register 13
 1809              		@ sp needed
 1810 0090 80BC     		pop	{r7}
 1811              		.cfi_restore 7
 1812              		.cfi_def_cfa_offset 0
 1813 0092 7047     		bx	lr
 1814              		.cfi_endproc
 1815              	.LFE68:
 1816              		.size	maxim_sort_indices_descend, .-maxim_sort_indices_descend
 1817              		.text
 1818              	.Letext0:
 1819              		.file 2 "c:\\program files (x86)\\cypress\\psoc creator\\4.4\\psoc creator\\import\\gnu\\arm\\5.4.
 1820              		.file 3 "c:\\program files (x86)\\cypress\\psoc creator\\4.4\\psoc creator\\import\\gnu\\arm\\5.4.
 1821              		.file 4 "Generated_Source\\PSoC5/core_cm3.h"