ARM GAS  C:\Users\Perro\AppData\Local\Temp\ccaxo3yg.s 			page 1


   1              		.syntax unified
   2              		.cpu cortex-m3
   3              		.fpu softvfp
   4              		.eabi_attribute 20, 1
   5              		.eabi_attribute 21, 1
   6              		.eabi_attribute 23, 3
   7              		.eabi_attribute 24, 1
   8              		.eabi_attribute 25, 1
   9              		.eabi_attribute 26, 1
  10              		.eabi_attribute 30, 6
  11              		.eabi_attribute 34, 1
  12              		.eabi_attribute 18, 4
  13              		.thumb
  14              		.syntax unified
  15              		.file	"algorithm.c"
  16              		.text
  17              	.Ltext0:
  18              		.cfi_sections	.debug_frame
  19              		.global	auw_hamm
  20              		.section	.rodata
  21              		.align	2
  22              		.type	auw_hamm, %object
  23              		.size	auw_hamm, 62
  24              	auw_hamm:
  25 0000 2900     		.short	41
  26 0002 1401     		.short	276
  27 0004 0002     		.short	512
  28 0006 1401     		.short	276
  29 0008 2900     		.short	41
  30 000a 00000000 		.space	52
  30      00000000 
  30      00000000 
  30      00000000 
  30      00000000 
  31              		.global	uch_spo2_table
  32 003e 0000     		.align	2
  33              		.type	uch_spo2_table, %object
  34              		.size	uch_spo2_table, 184
  35              	uch_spo2_table:
  36 0040 5F       		.byte	95
  37 0041 5F       		.byte	95
  38 0042 5F       		.byte	95
  39 0043 60       		.byte	96
  40 0044 60       		.byte	96
  41 0045 60       		.byte	96
  42 0046 61       		.byte	97
  43 0047 61       		.byte	97
  44 0048 61       		.byte	97
  45 0049 61       		.byte	97
  46 004a 61       		.byte	97
  47 004b 62       		.byte	98
  48 004c 62       		.byte	98
  49 004d 62       		.byte	98
  50 004e 62       		.byte	98
  51 004f 62       		.byte	98
  52 0050 63       		.byte	99
  53 0051 63       		.byte	99
ARM GAS  C:\Users\Perro\AppData\Local\Temp\ccaxo3yg.s 			page 2


  54 0052 63       		.byte	99
  55 0053 63       		.byte	99
  56 0054 63       		.byte	99
  57 0055 63       		.byte	99
  58 0056 63       		.byte	99
  59 0057 63       		.byte	99
  60 0058 64       		.byte	100
  61 0059 64       		.byte	100
  62 005a 64       		.byte	100
  63 005b 64       		.byte	100
  64 005c 64       		.byte	100
  65 005d 64       		.byte	100
  66 005e 64       		.byte	100
  67 005f 64       		.byte	100
  68 0060 64       		.byte	100
  69 0061 64       		.byte	100
  70 0062 64       		.byte	100
  71 0063 64       		.byte	100
  72 0064 64       		.byte	100
  73 0065 64       		.byte	100
  74 0066 64       		.byte	100
  75 0067 64       		.byte	100
  76 0068 64       		.byte	100
  77 0069 64       		.byte	100
  78 006a 64       		.byte	100
  79 006b 64       		.byte	100
  80 006c 63       		.byte	99
  81 006d 63       		.byte	99
  82 006e 63       		.byte	99
  83 006f 63       		.byte	99
  84 0070 63       		.byte	99
  85 0071 63       		.byte	99
  86 0072 63       		.byte	99
  87 0073 63       		.byte	99
  88 0074 62       		.byte	98
  89 0075 62       		.byte	98
  90 0076 62       		.byte	98
  91 0077 62       		.byte	98
  92 0078 62       		.byte	98
  93 0079 62       		.byte	98
  94 007a 61       		.byte	97
  95 007b 61       		.byte	97
  96 007c 61       		.byte	97
  97 007d 61       		.byte	97
  98 007e 60       		.byte	96
  99 007f 60       		.byte	96
 100 0080 60       		.byte	96
 101 0081 60       		.byte	96
 102 0082 5F       		.byte	95
 103 0083 5F       		.byte	95
 104 0084 5F       		.byte	95
 105 0085 5E       		.byte	94
 106 0086 5E       		.byte	94
 107 0087 5E       		.byte	94
 108 0088 5D       		.byte	93
 109 0089 5D       		.byte	93
 110 008a 5D       		.byte	93
ARM GAS  C:\Users\Perro\AppData\Local\Temp\ccaxo3yg.s 			page 3


 111 008b 5C       		.byte	92
 112 008c 5C       		.byte	92
 113 008d 5C       		.byte	92
 114 008e 5B       		.byte	91
 115 008f 5B       		.byte	91
 116 0090 5A       		.byte	90
 117 0091 5A       		.byte	90
 118 0092 59       		.byte	89
 119 0093 59       		.byte	89
 120 0094 59       		.byte	89
 121 0095 58       		.byte	88
 122 0096 58       		.byte	88
 123 0097 57       		.byte	87
 124 0098 57       		.byte	87
 125 0099 56       		.byte	86
 126 009a 56       		.byte	86
 127 009b 55       		.byte	85
 128 009c 55       		.byte	85
 129 009d 54       		.byte	84
 130 009e 54       		.byte	84
 131 009f 53       		.byte	83
 132 00a0 52       		.byte	82
 133 00a1 52       		.byte	82
 134 00a2 51       		.byte	81
 135 00a3 51       		.byte	81
 136 00a4 50       		.byte	80
 137 00a5 50       		.byte	80
 138 00a6 4F       		.byte	79
 139 00a7 4E       		.byte	78
 140 00a8 4E       		.byte	78
 141 00a9 4D       		.byte	77
 142 00aa 4C       		.byte	76
 143 00ab 4C       		.byte	76
 144 00ac 4B       		.byte	75
 145 00ad 4A       		.byte	74
 146 00ae 4A       		.byte	74
 147 00af 49       		.byte	73
 148 00b0 48       		.byte	72
 149 00b1 48       		.byte	72
 150 00b2 47       		.byte	71
 151 00b3 46       		.byte	70
 152 00b4 45       		.byte	69
 153 00b5 45       		.byte	69
 154 00b6 44       		.byte	68
 155 00b7 43       		.byte	67
 156 00b8 42       		.byte	66
 157 00b9 42       		.byte	66
 158 00ba 41       		.byte	65
 159 00bb 40       		.byte	64
 160 00bc 3F       		.byte	63
 161 00bd 3E       		.byte	62
 162 00be 3E       		.byte	62
 163 00bf 3D       		.byte	61
 164 00c0 3C       		.byte	60
 165 00c1 3B       		.byte	59
 166 00c2 3A       		.byte	58
 167 00c3 39       		.byte	57
ARM GAS  C:\Users\Perro\AppData\Local\Temp\ccaxo3yg.s 			page 4


 168 00c4 38       		.byte	56
 169 00c5 38       		.byte	56
 170 00c6 37       		.byte	55
 171 00c7 36       		.byte	54
 172 00c8 35       		.byte	53
 173 00c9 34       		.byte	52
 174 00ca 33       		.byte	51
 175 00cb 32       		.byte	50
 176 00cc 31       		.byte	49
 177 00cd 30       		.byte	48
 178 00ce 2F       		.byte	47
 179 00cf 2E       		.byte	46
 180 00d0 2D       		.byte	45
 181 00d1 2C       		.byte	44
 182 00d2 2B       		.byte	43
 183 00d3 2A       		.byte	42
 184 00d4 29       		.byte	41
 185 00d5 28       		.byte	40
 186 00d6 27       		.byte	39
 187 00d7 26       		.byte	38
 188 00d8 25       		.byte	37
 189 00d9 24       		.byte	36
 190 00da 23       		.byte	35
 191 00db 22       		.byte	34
 192 00dc 21       		.byte	33
 193 00dd 1F       		.byte	31
 194 00de 1E       		.byte	30
 195 00df 1D       		.byte	29
 196 00e0 1C       		.byte	28
 197 00e1 1B       		.byte	27
 198 00e2 1A       		.byte	26
 199 00e3 19       		.byte	25
 200 00e4 17       		.byte	23
 201 00e5 16       		.byte	22
 202 00e6 15       		.byte	21
 203 00e7 14       		.byte	20
 204 00e8 13       		.byte	19
 205 00e9 11       		.byte	17
 206 00ea 10       		.byte	16
 207 00eb 0F       		.byte	15
 208 00ec 0E       		.byte	14
 209 00ed 0C       		.byte	12
 210 00ee 0B       		.byte	11
 211 00ef 0A       		.byte	10
 212 00f0 09       		.byte	9
 213 00f1 07       		.byte	7
 214 00f2 06       		.byte	6
 215 00f3 05       		.byte	5
 216 00f4 03       		.byte	3
 217 00f5 02       		.byte	2
 218 00f6 01       		.byte	1
 219 00f7 00       		.space	1
 220              		.bss
 221              		.align	2
 222              	an_dx:
 223 0000 00000000 		.space	184
 223      00000000 
ARM GAS  C:\Users\Perro\AppData\Local\Temp\ccaxo3yg.s 			page 5


 223      00000000 
 223      00000000 
 223      00000000 
 224              		.align	2
 225              	an_x:
 226 00b8 00000000 		.space	200
 226      00000000 
 226      00000000 
 226      00000000 
 226      00000000 
 227              		.align	2
 228              	an_y:
 229 0180 00000000 		.space	200
 229      00000000 
 229      00000000 
 229      00000000 
 229      00000000 
 230              		.section	.text.maxim_heart_rate_and_oxygen_saturation,"ax",%progbits
 231              		.align	2
 232              		.global	maxim_heart_rate_and_oxygen_saturation
 233              		.thumb
 234              		.thumb_func
 235              		.type	maxim_heart_rate_and_oxygen_saturation, %function
 236              	maxim_heart_rate_and_oxygen_saturation:
 237              	.LFB63:
 238              		.file 1 "algorithm.c"
   1:algorithm.c   **** /* ========================================
   2:algorithm.c   ****  *
   3:algorithm.c   ****  * Copyright YOUR COMPANY, THE YEAR
   4:algorithm.c   ****  * All Rights Reserved
   5:algorithm.c   ****  * UNPUBLISHED, LICENSED SOFTWARE.
   6:algorithm.c   ****  *
   7:algorithm.c   ****  * CONFIDENTIAL AND PROPRIETARY INFORMATION
   8:algorithm.c   ****  * WHICH IS THE PROPERTY OF your company.
   9:algorithm.c   ****  *
  10:algorithm.c   ****  * ========================================
  11:algorithm.c   **** */
  12:algorithm.c   **** 
  13:algorithm.c   **** #include "algorithm.h"
  14:algorithm.c   **** #include "project.h"
  15:algorithm.c   **** //#include "mbed.h"
  16:algorithm.c   **** 
  17:algorithm.c   **** 
  18:algorithm.c   **** const uint16_t auw_hamm[31]={ 41,    276,    512,    276,     41 }; //Hamm=  long16(512* hamming(5)
  19:algorithm.c   **** //uch_spo2_table is computed as  -45.060*ratioAverage* ratioAverage + 30.354 *ratioAverage + 94.845
  20:algorithm.c   **** const uint8_t uch_spo2_table[184]={ 95, 95, 95, 96, 96, 96, 97, 97, 97, 97, 97, 98, 98, 98, 98, 98,
  21:algorithm.c   ****                             99, 99, 99, 99, 100, 100, 100, 100, 100, 100, 100, 100, 100, 100, 100, 
  22:algorithm.c   ****                             100, 100, 100, 100, 99, 99, 99, 99, 99, 99, 99, 99, 98, 98, 98, 98, 98,
  23:algorithm.c   ****                             97, 97, 96, 96, 96, 96, 95, 95, 95, 94, 94, 94, 93, 93, 93, 92, 92, 92,
  24:algorithm.c   ****                             90, 90, 89, 89, 89, 88, 88, 87, 87, 86, 86, 85, 85, 84, 84, 83, 82, 82,
  25:algorithm.c   ****                             80, 80, 79, 78, 78, 77, 76, 76, 75, 74, 74, 73, 72, 72, 71, 70, 69, 69,
  26:algorithm.c   ****                             66, 66, 65, 64, 63, 62, 62, 61, 60, 59, 58, 57, 56, 56, 55, 54, 53, 52,
  27:algorithm.c   ****                             49, 48, 47, 46, 45, 44, 43, 42, 41, 40, 39, 38, 37, 36, 35, 34, 33, 31,
  28:algorithm.c   ****                             28, 27, 26, 25, 23, 22, 21, 20, 19, 17, 16, 15, 14, 12, 11, 10, 9, 7, 6
  29:algorithm.c   ****                             3, 2, 1 } ;
  30:algorithm.c   **** static  int32_t an_dx[ BUFFER_SIZE-MA4_SIZE]; // delta
  31:algorithm.c   **** static  int32_t an_x[ BUFFER_SIZE]; //ir
ARM GAS  C:\Users\Perro\AppData\Local\Temp\ccaxo3yg.s 			page 6


  32:algorithm.c   **** static  int32_t an_y[ BUFFER_SIZE]; //red
  33:algorithm.c   ****                             
  34:algorithm.c   **** void maxim_heart_rate_and_oxygen_saturation(uint32_t *pun_ir_buffer,  int32_t n_ir_buffer_length, u
  35:algorithm.c   ****                               int32_t *pn_heart_rate, int8_t  *pch_hr_valid)
  36:algorithm.c   **** /**
  37:algorithm.c   **** * \brief        Calculate the heart rate and SpO2 level
  38:algorithm.c   **** * \par          Details
  39:algorithm.c   **** *               By detecting  peaks of PPG cycle and corresponding AC/DC of red/infra-red signal, t
  40:algorithm.c   **** *               Since this algorithm is aiming for Arm M0/M3. formaula for SPO2 did not achieve the
  41:algorithm.c   **** *               Thus, accurate SPO2 is precalculated and save longo uch_spo2_table[] per each ratio
  42:algorithm.c   **** *
  43:algorithm.c   **** * \param[in]    *pun_ir_buffer           - IR sensor data buffer
  44:algorithm.c   **** * \param[in]    n_ir_buffer_length      - IR sensor data buffer length
  45:algorithm.c   **** * \param[in]    *pun_red_buffer          - Red sensor data buffer
  46:algorithm.c   **** * \param[out]    *pn_spo2                - Calculated SpO2 value
  47:algorithm.c   **** * \param[out]    *pch_spo2_valid         - 1 if the calculated SpO2 value is valid
  48:algorithm.c   **** * \param[out]    *pn_heart_rate          - Calculated heart rate value
  49:algorithm.c   **** * \param[out]    *pch_hr_valid           - 1 if the calculated heart rate value is valid
  50:algorithm.c   **** *
  51:algorithm.c   **** * \retval       None
  52:algorithm.c   **** */
  53:algorithm.c   **** {
 239              		.loc 1 53 0
 240              		.cfi_startproc
 241              		@ args = 12, pretend = 0, frame = 312
 242              		@ frame_needed = 1, uses_anonymous_args = 0
 243 0000 90B5     		push	{r4, r7, lr}
 244              		.cfi_def_cfa_offset 12
 245              		.cfi_offset 4, -12
 246              		.cfi_offset 7, -8
 247              		.cfi_offset 14, -4
 248 0002 D3B0     		sub	sp, sp, #332
 249              		.cfi_def_cfa_offset 344
 250 0004 04AF     		add	r7, sp, #16
 251              		.cfi_def_cfa 7, 328
 252 0006 07F10C04 		add	r4, r7, #12
 253 000a 2060     		str	r0, [r4]
 254 000c 07F10800 		add	r0, r7, #8
 255 0010 0160     		str	r1, [r0]
 256 0012 391D     		adds	r1, r7, #4
 257 0014 0A60     		str	r2, [r1]
 258 0016 3A46     		mov	r2, r7
 259 0018 1360     		str	r3, [r2]
  54:algorithm.c   ****     uint32_t un_ir_mean ,un_only_once ;
  55:algorithm.c   ****     int32_t k ,n_i_ratio_count;
  56:algorithm.c   ****     int32_t i, s, m, n_exact_ir_valley_locs_count ,n_middle_idx;
  57:algorithm.c   ****     int32_t n_th1, n_npks,n_c_min;      
  58:algorithm.c   ****     int32_t an_ir_valley_locs[15] ;
  59:algorithm.c   ****     int32_t an_exact_ir_valley_locs[15] ;
  60:algorithm.c   ****     int32_t an_dx_peak_locs[15] ;
  61:algorithm.c   ****     int32_t n_peak_interval_sum;
  62:algorithm.c   ****     
  63:algorithm.c   ****     int32_t n_y_ac, n_x_ac;
  64:algorithm.c   ****     int32_t n_spo2_calc; 
  65:algorithm.c   ****     int32_t n_y_dc_max, n_x_dc_max; 
  66:algorithm.c   ****     int32_t n_y_dc_max_idx, n_x_dc_max_idx; 
  67:algorithm.c   ****     int32_t an_ratio[5],n_ratio_average; 
ARM GAS  C:\Users\Perro\AppData\Local\Temp\ccaxo3yg.s 			page 7


  68:algorithm.c   ****     int32_t n_nume,  n_denom ;
  69:algorithm.c   ****     // remove DC of ir signal    
  70:algorithm.c   ****     un_ir_mean =0; 
 260              		.loc 1 70 0
 261 001a 0023     		movs	r3, #0
 262 001c C7F83431 		str	r3, [r7, #308]
  71:algorithm.c   ****     for (k=0 ; k<n_ir_buffer_length ; k++ ) un_ir_mean += pun_ir_buffer[k] ;
 263              		.loc 1 71 0
 264 0020 0023     		movs	r3, #0
 265 0022 C7F82C31 		str	r3, [r7, #300]
 266 0026 11E0     		b	.L2
 267              	.L3:
 268              		.loc 1 71 0 is_stmt 0 discriminator 3
 269 0028 D7F82C31 		ldr	r3, [r7, #300]
 270 002c 9B00     		lsls	r3, r3, #2
 271 002e 07F10C02 		add	r2, r7, #12
 272 0032 1268     		ldr	r2, [r2]
 273 0034 1344     		add	r3, r3, r2
 274 0036 1B68     		ldr	r3, [r3]
 275 0038 D7F83421 		ldr	r2, [r7, #308]
 276 003c 1344     		add	r3, r3, r2
 277 003e C7F83431 		str	r3, [r7, #308]
 278 0042 D7F82C31 		ldr	r3, [r7, #300]
 279 0046 0133     		adds	r3, r3, #1
 280 0048 C7F82C31 		str	r3, [r7, #300]
 281              	.L2:
 282              		.loc 1 71 0 discriminator 1
 283 004c 07F10803 		add	r3, r7, #8
 284 0050 D7F82C21 		ldr	r2, [r7, #300]
 285 0054 1B68     		ldr	r3, [r3]
 286 0056 9A42     		cmp	r2, r3
 287 0058 E6DB     		blt	.L3
  72:algorithm.c   ****     un_ir_mean =un_ir_mean/n_ir_buffer_length ;
 288              		.loc 1 72 0 is_stmt 1
 289 005a 07F10803 		add	r3, r7, #8
 290 005e 1B68     		ldr	r3, [r3]
 291 0060 D7F83421 		ldr	r2, [r7, #308]
 292 0064 B2FBF3F3 		udiv	r3, r2, r3
 293 0068 C7F83431 		str	r3, [r7, #308]
  73:algorithm.c   ****     for (k=0 ; k<n_ir_buffer_length ; k++ )  an_x[k] =  pun_ir_buffer[k] - un_ir_mean ; 
 294              		.loc 1 73 0
 295 006c 0023     		movs	r3, #0
 296 006e C7F82C31 		str	r3, [r7, #300]
 297 0072 15E0     		b	.L4
 298              	.L5:
 299              		.loc 1 73 0 is_stmt 0 discriminator 3
 300 0074 D7F82C31 		ldr	r3, [r7, #300]
 301 0078 9B00     		lsls	r3, r3, #2
 302 007a 07F10C02 		add	r2, r7, #12
 303 007e 1268     		ldr	r2, [r2]
 304 0080 1344     		add	r3, r3, r2
 305 0082 1A68     		ldr	r2, [r3]
 306 0084 D7F83431 		ldr	r3, [r7, #308]
 307 0088 D31A     		subs	r3, r2, r3
 308 008a 1946     		mov	r1, r3
 309 008c DB4A     		ldr	r2, .L57
 310 008e D7F82C31 		ldr	r3, [r7, #300]
ARM GAS  C:\Users\Perro\AppData\Local\Temp\ccaxo3yg.s 			page 8


 311 0092 42F82310 		str	r1, [r2, r3, lsl #2]
 312 0096 D7F82C31 		ldr	r3, [r7, #300]
 313 009a 0133     		adds	r3, r3, #1
 314 009c C7F82C31 		str	r3, [r7, #300]
 315              	.L4:
 316              		.loc 1 73 0 discriminator 1
 317 00a0 07F10803 		add	r3, r7, #8
 318 00a4 D7F82C21 		ldr	r2, [r7, #300]
 319 00a8 1B68     		ldr	r3, [r3]
 320 00aa 9A42     		cmp	r2, r3
 321 00ac E2DB     		blt	.L5
  74:algorithm.c   ****     
  75:algorithm.c   ****     // 4 pt Moving Average
  76:algorithm.c   ****     for(k=0; k< BUFFER_SIZE-MA4_SIZE; k++){
 322              		.loc 1 76 0 is_stmt 1
 323 00ae 0023     		movs	r3, #0
 324 00b0 C7F82C31 		str	r3, [r7, #300]
 325 00b4 2CE0     		b	.L6
 326              	.L8:
  77:algorithm.c   ****         n_denom= ( an_x[k]+an_x[k+1]+ an_x[k+2]+ an_x[k+3]);
 327              		.loc 1 77 0 discriminator 3
 328 00b6 D14A     		ldr	r2, .L57
 329 00b8 D7F82C31 		ldr	r3, [r7, #300]
 330 00bc 52F82320 		ldr	r2, [r2, r3, lsl #2]
 331 00c0 D7F82C31 		ldr	r3, [r7, #300]
 332 00c4 0133     		adds	r3, r3, #1
 333 00c6 CD49     		ldr	r1, .L57
 334 00c8 51F82330 		ldr	r3, [r1, r3, lsl #2]
 335 00cc 1A44     		add	r2, r2, r3
 336 00ce D7F82C31 		ldr	r3, [r7, #300]
 337 00d2 0233     		adds	r3, r3, #2
 338 00d4 C949     		ldr	r1, .L57
 339 00d6 51F82330 		ldr	r3, [r1, r3, lsl #2]
 340 00da 1A44     		add	r2, r2, r3
 341 00dc D7F82C31 		ldr	r3, [r7, #300]
 342 00e0 0333     		adds	r3, r3, #3
 343 00e2 C649     		ldr	r1, .L57
 344 00e4 51F82330 		ldr	r3, [r1, r3, lsl #2]
 345 00e8 1344     		add	r3, r3, r2
 346 00ea C7F8F830 		str	r3, [r7, #248]
  78:algorithm.c   ****         an_x[k]=  n_denom/(int32_t)4; 
 347              		.loc 1 78 0 discriminator 3
 348 00ee D7F8F830 		ldr	r3, [r7, #248]
 349 00f2 002B     		cmp	r3, #0
 350 00f4 00DA     		bge	.L7
 351 00f6 0333     		adds	r3, r3, #3
 352              	.L7:
 353 00f8 9B10     		asrs	r3, r3, #2
 354 00fa 1946     		mov	r1, r3
 355 00fc BF4A     		ldr	r2, .L57
 356 00fe D7F82C31 		ldr	r3, [r7, #300]
 357 0102 42F82310 		str	r1, [r2, r3, lsl #2]
  76:algorithm.c   ****         n_denom= ( an_x[k]+an_x[k+1]+ an_x[k+2]+ an_x[k+3]);
 358              		.loc 1 76 0 discriminator 3
 359 0106 D7F82C31 		ldr	r3, [r7, #300]
 360 010a 0133     		adds	r3, r3, #1
 361 010c C7F82C31 		str	r3, [r7, #300]
ARM GAS  C:\Users\Perro\AppData\Local\Temp\ccaxo3yg.s 			page 9


 362              	.L6:
  76:algorithm.c   ****         n_denom= ( an_x[k]+an_x[k+1]+ an_x[k+2]+ an_x[k+3]);
 363              		.loc 1 76 0 is_stmt 0 discriminator 1
 364 0110 D7F82C31 		ldr	r3, [r7, #300]
 365 0114 2D2B     		cmp	r3, #45
 366 0116 CEDD     		ble	.L8
  79:algorithm.c   ****     }
  80:algorithm.c   **** 
  81:algorithm.c   ****     // get difference of smoothed IR signal
  82:algorithm.c   ****     
  83:algorithm.c   ****     for( k=0; k<BUFFER_SIZE-MA4_SIZE-1;  k++)
 367              		.loc 1 83 0 is_stmt 1
 368 0118 0023     		movs	r3, #0
 369 011a C7F82C31 		str	r3, [r7, #300]
 370 011e 15E0     		b	.L9
 371              	.L10:
  84:algorithm.c   ****         an_dx[k]= (an_x[k+1]- an_x[k]);
 372              		.loc 1 84 0 discriminator 3
 373 0120 D7F82C31 		ldr	r3, [r7, #300]
 374 0124 0133     		adds	r3, r3, #1
 375 0126 B54A     		ldr	r2, .L57
 376 0128 52F82320 		ldr	r2, [r2, r3, lsl #2]
 377 012c B349     		ldr	r1, .L57
 378 012e D7F82C31 		ldr	r3, [r7, #300]
 379 0132 51F82330 		ldr	r3, [r1, r3, lsl #2]
 380 0136 D21A     		subs	r2, r2, r3
 381 0138 B149     		ldr	r1, .L57+4
 382 013a D7F82C31 		ldr	r3, [r7, #300]
 383 013e 41F82320 		str	r2, [r1, r3, lsl #2]
  83:algorithm.c   ****         an_dx[k]= (an_x[k+1]- an_x[k]);
 384              		.loc 1 83 0 discriminator 3
 385 0142 D7F82C31 		ldr	r3, [r7, #300]
 386 0146 0133     		adds	r3, r3, #1
 387 0148 C7F82C31 		str	r3, [r7, #300]
 388              	.L9:
  83:algorithm.c   ****         an_dx[k]= (an_x[k+1]- an_x[k]);
 389              		.loc 1 83 0 is_stmt 0 discriminator 1
 390 014c D7F82C31 		ldr	r3, [r7, #300]
 391 0150 2C2B     		cmp	r3, #44
 392 0152 E5DD     		ble	.L10
  85:algorithm.c   **** 
  86:algorithm.c   ****     // 2-pt Moving Average to an_dx
  87:algorithm.c   ****     for(k=0; k< BUFFER_SIZE-MA4_SIZE-2; k++){
 393              		.loc 1 87 0 is_stmt 1
 394 0154 0023     		movs	r3, #0
 395 0156 C7F82C31 		str	r3, [r7, #300]
 396 015a 19E0     		b	.L11
 397              	.L12:
  88:algorithm.c   ****         an_dx[k] =  ( an_dx[k]+an_dx[k+1])/2 ;
 398              		.loc 1 88 0 discriminator 3
 399 015c A84A     		ldr	r2, .L57+4
 400 015e D7F82C31 		ldr	r3, [r7, #300]
 401 0162 52F82320 		ldr	r2, [r2, r3, lsl #2]
 402 0166 D7F82C31 		ldr	r3, [r7, #300]
 403 016a 0133     		adds	r3, r3, #1
 404 016c A449     		ldr	r1, .L57+4
 405 016e 51F82330 		ldr	r3, [r1, r3, lsl #2]
ARM GAS  C:\Users\Perro\AppData\Local\Temp\ccaxo3yg.s 			page 10


 406 0172 1344     		add	r3, r3, r2
 407 0174 DA0F     		lsrs	r2, r3, #31
 408 0176 1344     		add	r3, r3, r2
 409 0178 5B10     		asrs	r3, r3, #1
 410 017a 1946     		mov	r1, r3
 411 017c A04A     		ldr	r2, .L57+4
 412 017e D7F82C31 		ldr	r3, [r7, #300]
 413 0182 42F82310 		str	r1, [r2, r3, lsl #2]
  87:algorithm.c   ****         an_dx[k] =  ( an_dx[k]+an_dx[k+1])/2 ;
 414              		.loc 1 87 0 discriminator 3
 415 0186 D7F82C31 		ldr	r3, [r7, #300]
 416 018a 0133     		adds	r3, r3, #1
 417 018c C7F82C31 		str	r3, [r7, #300]
 418              	.L11:
  87:algorithm.c   ****         an_dx[k] =  ( an_dx[k]+an_dx[k+1])/2 ;
 419              		.loc 1 87 0 is_stmt 0 discriminator 1
 420 0190 D7F82C31 		ldr	r3, [r7, #300]
 421 0194 2B2B     		cmp	r3, #43
 422 0196 E1DD     		ble	.L12
  89:algorithm.c   ****     }
  90:algorithm.c   ****     
  91:algorithm.c   ****     // hamming window
  92:algorithm.c   ****     // flip wave form so that we can detect valley with peak detector
  93:algorithm.c   ****     for ( i=0 ; i<BUFFER_SIZE-HAMMING_SIZE-MA4_SIZE-2 ;i++){
 423              		.loc 1 93 0 is_stmt 1
 424 0198 0023     		movs	r3, #0
 425 019a C7F82431 		str	r3, [r7, #292]
 426 019e 39E0     		b	.L13
 427              	.L16:
  94:algorithm.c   ****         s= 0;
 428              		.loc 1 94 0
 429 01a0 0023     		movs	r3, #0
 430 01a2 C7F82031 		str	r3, [r7, #288]
  95:algorithm.c   ****         for( k=i; k<i+ HAMMING_SIZE ;k++){
 431              		.loc 1 95 0
 432 01a6 D7F82431 		ldr	r3, [r7, #292]
 433 01aa C7F82C31 		str	r3, [r7, #300]
 434 01ae 18E0     		b	.L14
 435              	.L15:
  96:algorithm.c   ****             s -= an_dx[k] *auw_hamm[k-i] ; 
 436              		.loc 1 96 0 discriminator 3
 437 01b0 934A     		ldr	r2, .L57+4
 438 01b2 D7F82C31 		ldr	r3, [r7, #300]
 439 01b6 52F82330 		ldr	r3, [r2, r3, lsl #2]
 440 01ba D7F82C11 		ldr	r1, [r7, #300]
 441 01be D7F82421 		ldr	r2, [r7, #292]
 442 01c2 8A1A     		subs	r2, r1, r2
 443 01c4 8F49     		ldr	r1, .L57+8
 444 01c6 31F81220 		ldrh	r2, [r1, r2, lsl #1]
 445 01ca 02FB03F3 		mul	r3, r2, r3
 446 01ce D7F82021 		ldr	r2, [r7, #288]
 447 01d2 D31A     		subs	r3, r2, r3
 448 01d4 C7F82031 		str	r3, [r7, #288]
  95:algorithm.c   ****         for( k=i; k<i+ HAMMING_SIZE ;k++){
 449              		.loc 1 95 0 discriminator 3
 450 01d8 D7F82C31 		ldr	r3, [r7, #300]
 451 01dc 0133     		adds	r3, r3, #1
ARM GAS  C:\Users\Perro\AppData\Local\Temp\ccaxo3yg.s 			page 11


 452 01de C7F82C31 		str	r3, [r7, #300]
 453              	.L14:
  95:algorithm.c   ****         for( k=i; k<i+ HAMMING_SIZE ;k++){
 454              		.loc 1 95 0 is_stmt 0 discriminator 1
 455 01e2 D7F82431 		ldr	r3, [r7, #292]
 456 01e6 5A1D     		adds	r2, r3, #5
 457 01e8 D7F82C31 		ldr	r3, [r7, #300]
 458 01ec 9A42     		cmp	r2, r3
 459 01ee DFDC     		bgt	.L15
  97:algorithm.c   ****                      }
  98:algorithm.c   ****         an_dx[i]= s/ (int32_t)1146; // divide by sum of auw_hamm 
 460              		.loc 1 98 0 is_stmt 1 discriminator 2
 461 01f0 D7F82031 		ldr	r3, [r7, #288]
 462 01f4 844A     		ldr	r2, .L57+12
 463 01f6 82FB0312 		smull	r1, r2, r2, r3
 464 01fa 5212     		asrs	r2, r2, #9
 465 01fc DB17     		asrs	r3, r3, #31
 466 01fe D21A     		subs	r2, r2, r3
 467 0200 7F49     		ldr	r1, .L57+4
 468 0202 D7F82431 		ldr	r3, [r7, #292]
 469 0206 41F82320 		str	r2, [r1, r3, lsl #2]
  93:algorithm.c   ****         s= 0;
 470              		.loc 1 93 0 discriminator 2
 471 020a D7F82431 		ldr	r3, [r7, #292]
 472 020e 0133     		adds	r3, r3, #1
 473 0210 C7F82431 		str	r3, [r7, #292]
 474              	.L13:
  93:algorithm.c   ****         s= 0;
 475              		.loc 1 93 0 is_stmt 0 discriminator 1
 476 0214 D7F82431 		ldr	r3, [r7, #292]
 477 0218 262B     		cmp	r3, #38
 478 021a C1DD     		ble	.L16
  99:algorithm.c   ****     }
 100:algorithm.c   **** 
 101:algorithm.c   ****  
 102:algorithm.c   ****     n_th1=0; // threshold calculation
 479              		.loc 1 102 0 is_stmt 1
 480 021c 0023     		movs	r3, #0
 481 021e C7F81831 		str	r3, [r7, #280]
 103:algorithm.c   ****     for ( k=0 ; k<BUFFER_SIZE-HAMMING_SIZE ;k++){
 482              		.loc 1 103 0
 483 0222 0023     		movs	r3, #0
 484 0224 C7F82C31 		str	r3, [r7, #300]
 485 0228 11E0     		b	.L17
 486              	.L18:
 104:algorithm.c   ****         n_th1 += ((an_dx[k]>0)? an_dx[k] : ((int32_t)0-an_dx[k])) ;
 487              		.loc 1 104 0 discriminator 3
 488 022a 754A     		ldr	r2, .L57+4
 489 022c D7F82C31 		ldr	r3, [r7, #300]
 490 0230 52F82330 		ldr	r3, [r2, r3, lsl #2]
 491 0234 002B     		cmp	r3, #0
 492 0236 B8BF     		it	lt
 493 0238 5B42     		rsblt	r3, r3, #0
 494 023a D7F81821 		ldr	r2, [r7, #280]
 495 023e 1344     		add	r3, r3, r2
 496 0240 C7F81831 		str	r3, [r7, #280]
 103:algorithm.c   ****     for ( k=0 ; k<BUFFER_SIZE-HAMMING_SIZE ;k++){
ARM GAS  C:\Users\Perro\AppData\Local\Temp\ccaxo3yg.s 			page 12


 497              		.loc 1 103 0 discriminator 3
 498 0244 D7F82C31 		ldr	r3, [r7, #300]
 499 0248 0133     		adds	r3, r3, #1
 500 024a C7F82C31 		str	r3, [r7, #300]
 501              	.L17:
 103:algorithm.c   ****     for ( k=0 ; k<BUFFER_SIZE-HAMMING_SIZE ;k++){
 502              		.loc 1 103 0 is_stmt 0 discriminator 1
 503 024e D7F82C31 		ldr	r3, [r7, #300]
 504 0252 2C2B     		cmp	r3, #44
 505 0254 E9DD     		ble	.L18
 105:algorithm.c   ****     }
 106:algorithm.c   ****     n_th1= n_th1/ ( BUFFER_SIZE-HAMMING_SIZE);
 506              		.loc 1 106 0 is_stmt 1
 507 0256 D7F81831 		ldr	r3, [r7, #280]
 508 025a 6C4A     		ldr	r2, .L57+16
 509 025c 82FB0312 		smull	r1, r2, r2, r3
 510 0260 1A44     		add	r2, r2, r3
 511 0262 5211     		asrs	r2, r2, #5
 512 0264 DB17     		asrs	r3, r3, #31
 513 0266 D31A     		subs	r3, r2, r3
 514 0268 C7F81831 		str	r3, [r7, #280]
 107:algorithm.c   ****     // peak location is acutally index for sharpest location of raw signal since we flipped the sig
 108:algorithm.c   ****     maxim_find_peaks( an_dx_peak_locs, &n_npks, an_dx, BUFFER_SIZE-HAMMING_SIZE, n_th1, 8, 5 );//pe
 515              		.loc 1 108 0
 516 026c 07F1DC01 		add	r1, r7, #220
 517 0270 07F12800 		add	r0, r7, #40
 518 0274 0523     		movs	r3, #5
 519 0276 0293     		str	r3, [sp, #8]
 520 0278 0823     		movs	r3, #8
 521 027a 0193     		str	r3, [sp, #4]
 522 027c D7F81831 		ldr	r3, [r7, #280]
 523 0280 0093     		str	r3, [sp]
 524 0282 2D23     		movs	r3, #45
 525 0284 5E4A     		ldr	r2, .L57+4
 526 0286 FFF7FEFF 		bl	maxim_find_peaks
 109:algorithm.c   **** 
 110:algorithm.c   ****     n_peak_interval_sum =0;
 527              		.loc 1 110 0
 528 028a 0023     		movs	r3, #0
 529 028c C7F81031 		str	r3, [r7, #272]
 111:algorithm.c   ****     if (n_npks>=2){
 530              		.loc 1 111 0
 531 0290 D7F8DC30 		ldr	r3, [r7, #220]
 532 0294 012B     		cmp	r3, #1
 533 0296 38DD     		ble	.L19
 112:algorithm.c   ****         for (k=1; k<n_npks; k++)
 534              		.loc 1 112 0
 535 0298 0123     		movs	r3, #1
 536 029a C7F82C31 		str	r3, [r7, #300]
 537 029e 17E0     		b	.L20
 538              	.L21:
 113:algorithm.c   ****             n_peak_interval_sum += (an_dx_peak_locs[k]-an_dx_peak_locs[k -1]);
 539              		.loc 1 113 0 discriminator 3
 540 02a0 07F12803 		add	r3, r7, #40
 541 02a4 D7F82C21 		ldr	r2, [r7, #300]
 542 02a8 53F82220 		ldr	r2, [r3, r2, lsl #2]
 543 02ac D7F82C31 		ldr	r3, [r7, #300]
ARM GAS  C:\Users\Perro\AppData\Local\Temp\ccaxo3yg.s 			page 13


 544 02b0 591E     		subs	r1, r3, #1
 545 02b2 07F12803 		add	r3, r7, #40
 546 02b6 53F82130 		ldr	r3, [r3, r1, lsl #2]
 547 02ba D31A     		subs	r3, r2, r3
 548 02bc D7F81021 		ldr	r2, [r7, #272]
 549 02c0 1344     		add	r3, r3, r2
 550 02c2 C7F81031 		str	r3, [r7, #272]
 112:algorithm.c   ****         for (k=1; k<n_npks; k++)
 551              		.loc 1 112 0 discriminator 3
 552 02c6 D7F82C31 		ldr	r3, [r7, #300]
 553 02ca 0133     		adds	r3, r3, #1
 554 02cc C7F82C31 		str	r3, [r7, #300]
 555              	.L20:
 112:algorithm.c   ****         for (k=1; k<n_npks; k++)
 556              		.loc 1 112 0 is_stmt 0 discriminator 1
 557 02d0 D7F8DC30 		ldr	r3, [r7, #220]
 558 02d4 D7F82C21 		ldr	r2, [r7, #300]
 559 02d8 9A42     		cmp	r2, r3
 560 02da E1DB     		blt	.L21
 114:algorithm.c   ****         n_peak_interval_sum=n_peak_interval_sum/(n_npks-1);
 561              		.loc 1 114 0 is_stmt 1
 562 02dc D7F8DC30 		ldr	r3, [r7, #220]
 563 02e0 013B     		subs	r3, r3, #1
 564 02e2 D7F81021 		ldr	r2, [r7, #272]
 565 02e6 92FBF3F3 		sdiv	r3, r2, r3
 566 02ea C7F81031 		str	r3, [r7, #272]
 115:algorithm.c   ****         *pn_heart_rate=(int32_t)(6000/n_peak_interval_sum);// beats per minutes
 567              		.loc 1 115 0
 568 02ee 41F27072 		movw	r2, #6000
 569 02f2 D7F81031 		ldr	r3, [r7, #272]
 570 02f6 92FBF3F2 		sdiv	r2, r2, r3
 571 02fa D7F84C31 		ldr	r3, [r7, #332]
 572 02fe 1A60     		str	r2, [r3]
 116:algorithm.c   ****         *pch_hr_valid  = 1;
 573              		.loc 1 116 0
 574 0300 D7F85031 		ldr	r3, [r7, #336]
 575 0304 0122     		movs	r2, #1
 576 0306 1A70     		strb	r2, [r3]
 577 0308 07E0     		b	.L22
 578              	.L19:
 117:algorithm.c   ****     }
 118:algorithm.c   ****     else  {
 119:algorithm.c   ****         *pn_heart_rate = -999;
 579              		.loc 1 119 0
 580 030a D7F84C31 		ldr	r3, [r7, #332]
 581 030e 404A     		ldr	r2, .L57+20
 582 0310 1A60     		str	r2, [r3]
 120:algorithm.c   ****         *pch_hr_valid  = 0;
 583              		.loc 1 120 0
 584 0312 D7F85031 		ldr	r3, [r7, #336]
 585 0316 0022     		movs	r2, #0
 586 0318 1A70     		strb	r2, [r3]
 587              	.L22:
 121:algorithm.c   ****     }
 122:algorithm.c   ****             
 123:algorithm.c   ****     for ( k=0 ; k<n_npks ;k++)
 588              		.loc 1 123 0
ARM GAS  C:\Users\Perro\AppData\Local\Temp\ccaxo3yg.s 			page 14


 589 031a 0023     		movs	r3, #0
 590 031c C7F82C31 		str	r3, [r7, #300]
 591 0320 13E0     		b	.L23
 592              	.L24:
 124:algorithm.c   ****         an_ir_valley_locs[k]=an_dx_peak_locs[k]+HAMMING_SIZE/2; 
 593              		.loc 1 124 0 discriminator 3
 594 0322 07F12803 		add	r3, r7, #40
 595 0326 D7F82C21 		ldr	r2, [r7, #300]
 596 032a 53F82230 		ldr	r3, [r3, r2, lsl #2]
 597 032e 9A1C     		adds	r2, r3, #2
 598 0330 D7F82C31 		ldr	r3, [r7, #300]
 599 0334 9B00     		lsls	r3, r3, #2
 600 0336 07F59C71 		add	r1, r7, #312
 601 033a 0B44     		add	r3, r3, r1
 602 033c 43F8982C 		str	r2, [r3, #-152]
 123:algorithm.c   ****         an_ir_valley_locs[k]=an_dx_peak_locs[k]+HAMMING_SIZE/2; 
 603              		.loc 1 123 0 discriminator 3
 604 0340 D7F82C31 		ldr	r3, [r7, #300]
 605 0344 0133     		adds	r3, r3, #1
 606 0346 C7F82C31 		str	r3, [r7, #300]
 607              	.L23:
 123:algorithm.c   ****         an_ir_valley_locs[k]=an_dx_peak_locs[k]+HAMMING_SIZE/2; 
 608              		.loc 1 123 0 is_stmt 0 discriminator 1
 609 034a D7F8DC30 		ldr	r3, [r7, #220]
 610 034e D7F82C21 		ldr	r2, [r7, #300]
 611 0352 9A42     		cmp	r2, r3
 612 0354 E5DB     		blt	.L24
 125:algorithm.c   **** 
 126:algorithm.c   **** 
 127:algorithm.c   ****     // raw value : RED(=y) and IR(=X)
 128:algorithm.c   ****     // we need to assess DC and AC value of ir and red PPG. 
 129:algorithm.c   ****     for (k=0 ; k<n_ir_buffer_length ; k++ )  {
 613              		.loc 1 129 0 is_stmt 1
 614 0356 0023     		movs	r3, #0
 615 0358 C7F82C31 		str	r3, [r7, #300]
 616 035c 1FE0     		b	.L25
 617              	.L26:
 130:algorithm.c   ****         an_x[k] =  pun_ir_buffer[k] ; 
 618              		.loc 1 130 0 discriminator 3
 619 035e D7F82C31 		ldr	r3, [r7, #300]
 620 0362 9B00     		lsls	r3, r3, #2
 621 0364 07F10C02 		add	r2, r7, #12
 622 0368 1268     		ldr	r2, [r2]
 623 036a 1344     		add	r3, r3, r2
 624 036c 1B68     		ldr	r3, [r3]
 625 036e 1946     		mov	r1, r3
 626 0370 224A     		ldr	r2, .L57
 627 0372 D7F82C31 		ldr	r3, [r7, #300]
 628 0376 42F82310 		str	r1, [r2, r3, lsl #2]
 131:algorithm.c   ****         an_y[k] =  pun_red_buffer[k] ; 
 629              		.loc 1 131 0 discriminator 3
 630 037a D7F82C31 		ldr	r3, [r7, #300]
 631 037e 9B00     		lsls	r3, r3, #2
 632 0380 3A1D     		adds	r2, r7, #4
 633 0382 1268     		ldr	r2, [r2]
 634 0384 1344     		add	r3, r3, r2
 635 0386 1B68     		ldr	r3, [r3]
ARM GAS  C:\Users\Perro\AppData\Local\Temp\ccaxo3yg.s 			page 15


 636 0388 1946     		mov	r1, r3
 637 038a 224A     		ldr	r2, .L57+24
 638 038c D7F82C31 		ldr	r3, [r7, #300]
 639 0390 42F82310 		str	r1, [r2, r3, lsl #2]
 129:algorithm.c   ****         an_x[k] =  pun_ir_buffer[k] ; 
 640              		.loc 1 129 0 discriminator 3
 641 0394 D7F82C31 		ldr	r3, [r7, #300]
 642 0398 0133     		adds	r3, r3, #1
 643 039a C7F82C31 		str	r3, [r7, #300]
 644              	.L25:
 129:algorithm.c   ****         an_x[k] =  pun_ir_buffer[k] ; 
 645              		.loc 1 129 0 is_stmt 0 discriminator 1
 646 039e 07F10803 		add	r3, r7, #8
 647 03a2 D7F82C21 		ldr	r2, [r7, #300]
 648 03a6 1B68     		ldr	r3, [r3]
 649 03a8 9A42     		cmp	r2, r3
 650 03aa D8DB     		blt	.L26
 132:algorithm.c   ****     }
 133:algorithm.c   **** 
 134:algorithm.c   ****     // find precise min near an_ir_valley_locs
 135:algorithm.c   ****     n_exact_ir_valley_locs_count =0; 
 651              		.loc 1 135 0 is_stmt 1
 652 03ac 0023     		movs	r3, #0
 653 03ae C7F81C31 		str	r3, [r7, #284]
 136:algorithm.c   ****     for(k=0 ; k<n_npks ;k++){
 654              		.loc 1 136 0
 655 03b2 0023     		movs	r3, #0
 656 03b4 C7F82C31 		str	r3, [r7, #300]
 657 03b8 69E0     		b	.L27
 658              	.L33:
 137:algorithm.c   ****         un_only_once =1;
 659              		.loc 1 137 0
 660 03ba 0123     		movs	r3, #1
 661 03bc C7F83031 		str	r3, [r7, #304]
 138:algorithm.c   ****         m=an_ir_valley_locs[k];
 662              		.loc 1 138 0
 663 03c0 D7F82C31 		ldr	r3, [r7, #300]
 664 03c4 9B00     		lsls	r3, r3, #2
 665 03c6 07F59C72 		add	r2, r7, #312
 666 03ca 1344     		add	r3, r3, r2
 667 03cc 53F8983C 		ldr	r3, [r3, #-152]
 668 03d0 C7F8F430 		str	r3, [r7, #244]
 139:algorithm.c   ****         n_c_min= 16777216;//2^24;
 669              		.loc 1 139 0
 670 03d4 4FF08073 		mov	r3, #16777216
 671 03d8 C7F81431 		str	r3, [r7, #276]
 140:algorithm.c   ****         if (m+5 <  BUFFER_SIZE-HAMMING_SIZE  && m-5 >0){
 672              		.loc 1 140 0
 673 03dc D7F8F430 		ldr	r3, [r7, #244]
 674 03e0 0533     		adds	r3, r3, #5
 675 03e2 2C2B     		cmp	r3, #44
 676 03e4 4EDC     		bgt	.L28
 677              		.loc 1 140 0 is_stmt 0 discriminator 1
 678 03e6 D7F8F430 		ldr	r3, [r7, #244]
 679 03ea 053B     		subs	r3, r3, #5
 680 03ec 002B     		cmp	r3, #0
 681 03ee 49DD     		ble	.L28
ARM GAS  C:\Users\Perro\AppData\Local\Temp\ccaxo3yg.s 			page 16


 141:algorithm.c   ****             for(i= m-5;i<m+5; i++)
 682              		.loc 1 141 0 is_stmt 1
 683 03f0 D7F8F430 		ldr	r3, [r7, #244]
 684 03f4 053B     		subs	r3, r3, #5
 685 03f6 C7F82431 		str	r3, [r7, #292]
 686 03fa 33E0     		b	.L29
 687              	.L58:
 688              		.align	2
 689              	.L57:
 690 03fc B8000000 		.word	an_x
 691 0400 00000000 		.word	an_dx
 692 0404 00000000 		.word	auw_hamm
 693 0408 ED9B5F72 		.word	1918868461
 694 040c B7600BB6 		.word	-1240768329
 695 0410 19FCFFFF 		.word	-999
 696 0414 80010000 		.word	an_y
 697              	.L32:
 142:algorithm.c   ****                 if (an_x[i]<n_c_min){
 698              		.loc 1 142 0
 699 0418 854A     		ldr	r2, .L59
 700 041a D7F82431 		ldr	r3, [r7, #292]
 701 041e 52F82320 		ldr	r2, [r2, r3, lsl #2]
 702 0422 D7F81431 		ldr	r3, [r7, #276]
 703 0426 9A42     		cmp	r2, r3
 704 0428 17DA     		bge	.L30
 143:algorithm.c   ****                     if (un_only_once >0){
 705              		.loc 1 143 0
 706 042a D7F83031 		ldr	r3, [r7, #304]
 707 042e 002B     		cmp	r3, #0
 708 0430 02D0     		beq	.L31
 144:algorithm.c   ****                        un_only_once =0;
 709              		.loc 1 144 0
 710 0432 0023     		movs	r3, #0
 711 0434 C7F83031 		str	r3, [r7, #304]
 712              	.L31:
 145:algorithm.c   ****                    } 
 146:algorithm.c   ****                    n_c_min= an_x[i] ;
 713              		.loc 1 146 0
 714 0438 7D4A     		ldr	r2, .L59
 715 043a D7F82431 		ldr	r3, [r7, #292]
 716 043e 52F82330 		ldr	r3, [r2, r3, lsl #2]
 717 0442 C7F81431 		str	r3, [r7, #276]
 147:algorithm.c   ****                    an_exact_ir_valley_locs[k]=i;
 718              		.loc 1 147 0
 719 0446 D7F82C31 		ldr	r3, [r7, #300]
 720 044a 9B00     		lsls	r3, r3, #2
 721 044c 07F59C72 		add	r2, r7, #312
 722 0450 1344     		add	r3, r3, r2
 723 0452 D7F82421 		ldr	r2, [r7, #292]
 724 0456 43F8D42C 		str	r2, [r3, #-212]
 725              	.L30:
 141:algorithm.c   ****                 if (an_x[i]<n_c_min){
 726              		.loc 1 141 0 discriminator 2
 727 045a D7F82431 		ldr	r3, [r7, #292]
 728 045e 0133     		adds	r3, r3, #1
 729 0460 C7F82431 		str	r3, [r7, #292]
 730              	.L29:
ARM GAS  C:\Users\Perro\AppData\Local\Temp\ccaxo3yg.s 			page 17


 141:algorithm.c   ****                 if (an_x[i]<n_c_min){
 731              		.loc 1 141 0 is_stmt 0 discriminator 1
 732 0464 D7F8F430 		ldr	r3, [r7, #244]
 733 0468 5A1D     		adds	r2, r3, #5
 734 046a D7F82431 		ldr	r3, [r7, #292]
 735 046e 9A42     		cmp	r2, r3
 736 0470 D2DC     		bgt	.L32
 148:algorithm.c   ****                 }
 149:algorithm.c   ****             if (un_only_once ==0)
 737              		.loc 1 149 0 is_stmt 1
 738 0472 D7F83031 		ldr	r3, [r7, #304]
 739 0476 002B     		cmp	r3, #0
 740 0478 04D1     		bne	.L28
 150:algorithm.c   ****                 n_exact_ir_valley_locs_count ++ ;
 741              		.loc 1 150 0
 742 047a D7F81C31 		ldr	r3, [r7, #284]
 743 047e 0133     		adds	r3, r3, #1
 744 0480 C7F81C31 		str	r3, [r7, #284]
 745              	.L28:
 136:algorithm.c   ****         un_only_once =1;
 746              		.loc 1 136 0 discriminator 2
 747 0484 D7F82C31 		ldr	r3, [r7, #300]
 748 0488 0133     		adds	r3, r3, #1
 749 048a C7F82C31 		str	r3, [r7, #300]
 750              	.L27:
 136:algorithm.c   ****         un_only_once =1;
 751              		.loc 1 136 0 is_stmt 0 discriminator 1
 752 048e D7F8DC30 		ldr	r3, [r7, #220]
 753 0492 D7F82C21 		ldr	r2, [r7, #300]
 754 0496 9A42     		cmp	r2, r3
 755 0498 8FDB     		blt	.L33
 151:algorithm.c   ****         }
 152:algorithm.c   ****     }
 153:algorithm.c   ****     if (n_exact_ir_valley_locs_count <2 ){
 756              		.loc 1 153 0 is_stmt 1
 757 049a D7F81C31 		ldr	r3, [r7, #284]
 758 049e 012B     		cmp	r3, #1
 759 04a0 08DC     		bgt	.L34
 154:algorithm.c   ****        *pn_spo2 =  -999 ; // do not use SPO2 since signal ratio is out of range
 760              		.loc 1 154 0
 761 04a2 3B46     		mov	r3, r7
 762 04a4 1B68     		ldr	r3, [r3]
 763 04a6 634A     		ldr	r2, .L59+4
 764 04a8 1A60     		str	r2, [r3]
 155:algorithm.c   ****        *pch_spo2_valid  = 0; 
 765              		.loc 1 155 0
 766 04aa D7F84831 		ldr	r3, [r7, #328]
 767 04ae 0022     		movs	r2, #0
 768 04b0 1A70     		strb	r2, [r3]
 156:algorithm.c   ****        return;
 769              		.loc 1 156 0
 770 04b2 35E2     		b	.L1
 771              	.L34:
 157:algorithm.c   ****     }
 158:algorithm.c   ****     // 4 pt MA
 159:algorithm.c   ****     for(k=0; k< BUFFER_SIZE-MA4_SIZE; k++){
 772              		.loc 1 159 0
ARM GAS  C:\Users\Perro\AppData\Local\Temp\ccaxo3yg.s 			page 18


 773 04b4 0023     		movs	r3, #0
 774 04b6 C7F82C31 		str	r3, [r7, #300]
 775 04ba 4CE0     		b	.L36
 776              	.L39:
 160:algorithm.c   ****         an_x[k]=( an_x[k]+an_x[k+1]+ an_x[k+2]+ an_x[k+3])/(int32_t)4;
 777              		.loc 1 160 0 discriminator 3
 778 04bc 5C4A     		ldr	r2, .L59
 779 04be D7F82C31 		ldr	r3, [r7, #300]
 780 04c2 52F82320 		ldr	r2, [r2, r3, lsl #2]
 781 04c6 D7F82C31 		ldr	r3, [r7, #300]
 782 04ca 0133     		adds	r3, r3, #1
 783 04cc 5849     		ldr	r1, .L59
 784 04ce 51F82330 		ldr	r3, [r1, r3, lsl #2]
 785 04d2 1A44     		add	r2, r2, r3
 786 04d4 D7F82C31 		ldr	r3, [r7, #300]
 787 04d8 0233     		adds	r3, r3, #2
 788 04da 5549     		ldr	r1, .L59
 789 04dc 51F82330 		ldr	r3, [r1, r3, lsl #2]
 790 04e0 1A44     		add	r2, r2, r3
 791 04e2 D7F82C31 		ldr	r3, [r7, #300]
 792 04e6 0333     		adds	r3, r3, #3
 793 04e8 5149     		ldr	r1, .L59
 794 04ea 51F82330 		ldr	r3, [r1, r3, lsl #2]
 795 04ee 1344     		add	r3, r3, r2
 796 04f0 002B     		cmp	r3, #0
 797 04f2 00DA     		bge	.L37
 798 04f4 0333     		adds	r3, r3, #3
 799              	.L37:
 800 04f6 9B10     		asrs	r3, r3, #2
 801 04f8 1946     		mov	r1, r3
 802 04fa 4D4A     		ldr	r2, .L59
 803 04fc D7F82C31 		ldr	r3, [r7, #300]
 804 0500 42F82310 		str	r1, [r2, r3, lsl #2]
 161:algorithm.c   ****         an_y[k]=( an_y[k]+an_y[k+1]+ an_y[k+2]+ an_y[k+3])/(int32_t)4;
 805              		.loc 1 161 0 discriminator 3
 806 0504 4C4A     		ldr	r2, .L59+8
 807 0506 D7F82C31 		ldr	r3, [r7, #300]
 808 050a 52F82320 		ldr	r2, [r2, r3, lsl #2]
 809 050e D7F82C31 		ldr	r3, [r7, #300]
 810 0512 0133     		adds	r3, r3, #1
 811 0514 4849     		ldr	r1, .L59+8
 812 0516 51F82330 		ldr	r3, [r1, r3, lsl #2]
 813 051a 1A44     		add	r2, r2, r3
 814 051c D7F82C31 		ldr	r3, [r7, #300]
 815 0520 0233     		adds	r3, r3, #2
 816 0522 4549     		ldr	r1, .L59+8
 817 0524 51F82330 		ldr	r3, [r1, r3, lsl #2]
 818 0528 1A44     		add	r2, r2, r3
 819 052a D7F82C31 		ldr	r3, [r7, #300]
 820 052e 0333     		adds	r3, r3, #3
 821 0530 4149     		ldr	r1, .L59+8
 822 0532 51F82330 		ldr	r3, [r1, r3, lsl #2]
 823 0536 1344     		add	r3, r3, r2
 824 0538 002B     		cmp	r3, #0
 825 053a 00DA     		bge	.L38
 826 053c 0333     		adds	r3, r3, #3
 827              	.L38:
ARM GAS  C:\Users\Perro\AppData\Local\Temp\ccaxo3yg.s 			page 19


 828 053e 9B10     		asrs	r3, r3, #2
 829 0540 1946     		mov	r1, r3
 830 0542 3D4A     		ldr	r2, .L59+8
 831 0544 D7F82C31 		ldr	r3, [r7, #300]
 832 0548 42F82310 		str	r1, [r2, r3, lsl #2]
 159:algorithm.c   ****         an_x[k]=( an_x[k]+an_x[k+1]+ an_x[k+2]+ an_x[k+3])/(int32_t)4;
 833              		.loc 1 159 0 discriminator 3
 834 054c D7F82C31 		ldr	r3, [r7, #300]
 835 0550 0133     		adds	r3, r3, #1
 836 0552 C7F82C31 		str	r3, [r7, #300]
 837              	.L36:
 159:algorithm.c   ****         an_x[k]=( an_x[k]+an_x[k+1]+ an_x[k+2]+ an_x[k+3])/(int32_t)4;
 838              		.loc 1 159 0 is_stmt 0 discriminator 1
 839 0556 D7F82C31 		ldr	r3, [r7, #300]
 840 055a 2D2B     		cmp	r3, #45
 841 055c AEDD     		ble	.L39
 162:algorithm.c   ****     }
 163:algorithm.c   **** 
 164:algorithm.c   ****     //using an_exact_ir_valley_locs , find ir-red DC andir-red AC for SPO2 calibration ratio
 165:algorithm.c   ****     //finding AC/DC maximum of raw ir * red between two valley locations
 166:algorithm.c   ****     n_ratio_average =0; 
 842              		.loc 1 166 0 is_stmt 1
 843 055e 0023     		movs	r3, #0
 844 0560 C7F8FC30 		str	r3, [r7, #252]
 167:algorithm.c   ****     n_i_ratio_count =0; 
 845              		.loc 1 167 0
 846 0564 0023     		movs	r3, #0
 847 0566 C7F82831 		str	r3, [r7, #296]
 168:algorithm.c   ****     
 169:algorithm.c   ****     for(k=0; k< 5; k++) an_ratio[k]=0;
 848              		.loc 1 169 0
 849 056a 0023     		movs	r3, #0
 850 056c C7F82C31 		str	r3, [r7, #300]
 851 0570 0BE0     		b	.L40
 852              	.L41:
 853              		.loc 1 169 0 is_stmt 0 discriminator 3
 854 0572 07F11403 		add	r3, r7, #20
 855 0576 D7F82C21 		ldr	r2, [r7, #300]
 856 057a 0021     		movs	r1, #0
 857 057c 43F82210 		str	r1, [r3, r2, lsl #2]
 858 0580 D7F82C31 		ldr	r3, [r7, #300]
 859 0584 0133     		adds	r3, r3, #1
 860 0586 C7F82C31 		str	r3, [r7, #300]
 861              	.L40:
 862              		.loc 1 169 0 discriminator 1
 863 058a D7F82C31 		ldr	r3, [r7, #300]
 864 058e 042B     		cmp	r3, #4
 865 0590 EFDD     		ble	.L41
 170:algorithm.c   ****     for (k=0; k< n_exact_ir_valley_locs_count; k++){
 866              		.loc 1 170 0 is_stmt 1
 867 0592 0023     		movs	r3, #0
 868 0594 C7F82C31 		str	r3, [r7, #300]
 869 0598 17E0     		b	.L42
 870              	.L44:
 171:algorithm.c   ****         if (an_exact_ir_valley_locs[k] > BUFFER_SIZE ){             
 871              		.loc 1 171 0
 872 059a D7F82C31 		ldr	r3, [r7, #300]
ARM GAS  C:\Users\Perro\AppData\Local\Temp\ccaxo3yg.s 			page 20


 873 059e 9B00     		lsls	r3, r3, #2
 874 05a0 07F59C72 		add	r2, r7, #312
 875 05a4 1344     		add	r3, r3, r2
 876 05a6 53F8D43C 		ldr	r3, [r3, #-212]
 877 05aa 322B     		cmp	r3, #50
 878 05ac 08DD     		ble	.L43
 172:algorithm.c   ****             *pn_spo2 =  -999 ; // do not use SPO2 since valley loc is out of range
 879              		.loc 1 172 0
 880 05ae 3B46     		mov	r3, r7
 881 05b0 1B68     		ldr	r3, [r3]
 882 05b2 204A     		ldr	r2, .L59+4
 883 05b4 1A60     		str	r2, [r3]
 173:algorithm.c   ****             *pch_spo2_valid  = 0; 
 884              		.loc 1 173 0
 885 05b6 D7F84831 		ldr	r3, [r7, #328]
 886 05ba 0022     		movs	r2, #0
 887 05bc 1A70     		strb	r2, [r3]
 174:algorithm.c   ****             return;
 888              		.loc 1 174 0
 889 05be AFE1     		b	.L1
 890              	.L43:
 170:algorithm.c   ****         if (an_exact_ir_valley_locs[k] > BUFFER_SIZE ){             
 891              		.loc 1 170 0 discriminator 2
 892 05c0 D7F82C31 		ldr	r3, [r7, #300]
 893 05c4 0133     		adds	r3, r3, #1
 894 05c6 C7F82C31 		str	r3, [r7, #300]
 895              	.L42:
 170:algorithm.c   ****         if (an_exact_ir_valley_locs[k] > BUFFER_SIZE ){             
 896              		.loc 1 170 0 is_stmt 0 discriminator 1
 897 05ca D7F82C21 		ldr	r2, [r7, #300]
 898 05ce D7F81C31 		ldr	r3, [r7, #284]
 899 05d2 9A42     		cmp	r2, r3
 900 05d4 E1DB     		blt	.L44
 175:algorithm.c   ****         }
 176:algorithm.c   ****     }
 177:algorithm.c   ****     // find max between two valley locations 
 178:algorithm.c   ****     // and use ratio betwen AC compoent of Ir & Red and DC compoent of Ir & Red for SPO2 
 179:algorithm.c   **** 
 180:algorithm.c   ****     for (k=0; k< n_exact_ir_valley_locs_count-1; k++){
 901              		.loc 1 180 0 is_stmt 1
 902 05d6 0023     		movs	r3, #0
 903 05d8 C7F82C31 		str	r3, [r7, #300]
 904 05dc 49E1     		b	.L45
 905              	.L51:
 181:algorithm.c   ****         n_y_dc_max= -16777216 ; 
 906              		.loc 1 181 0
 907 05de 4FF07F43 		mov	r3, #-16777216
 908 05e2 C7F80C31 		str	r3, [r7, #268]
 182:algorithm.c   ****         n_x_dc_max= - 16777216; 
 909              		.loc 1 182 0
 910 05e6 4FF07F43 		mov	r3, #-16777216
 911 05ea C7F80831 		str	r3, [r7, #264]
 183:algorithm.c   ****         if (an_exact_ir_valley_locs[k+1]-an_exact_ir_valley_locs[k] >10){
 912              		.loc 1 183 0
 913 05ee D7F82C31 		ldr	r3, [r7, #300]
 914 05f2 0133     		adds	r3, r3, #1
 915 05f4 9B00     		lsls	r3, r3, #2
ARM GAS  C:\Users\Perro\AppData\Local\Temp\ccaxo3yg.s 			page 21


 916 05f6 07F59C72 		add	r2, r7, #312
 917 05fa 1344     		add	r3, r3, r2
 918 05fc 53F8D42C 		ldr	r2, [r3, #-212]
 919 0600 D7F82C31 		ldr	r3, [r7, #300]
 920 0604 9B00     		lsls	r3, r3, #2
 921 0606 07F59C71 		add	r1, r7, #312
 922 060a 0B44     		add	r3, r3, r1
 923 060c 53F8D43C 		ldr	r3, [r3, #-212]
 924 0610 D31A     		subs	r3, r2, r3
 925 0612 0A2B     		cmp	r3, #10
 926 0614 40F32881 		ble	.L46
 184:algorithm.c   ****             for (i=an_exact_ir_valley_locs[k]; i< an_exact_ir_valley_locs[k+1]; i++){
 927              		.loc 1 184 0
 928 0618 D7F82C31 		ldr	r3, [r7, #300]
 929 061c 9B00     		lsls	r3, r3, #2
 930 061e 07F59C72 		add	r2, r7, #312
 931 0622 1344     		add	r3, r3, r2
 932 0624 53F8D43C 		ldr	r3, [r3, #-212]
 933 0628 C7F82431 		str	r3, [r7, #292]
 934 062c 33E0     		b	.L47
 935              	.L60:
 936 062e 00BF     		.align	2
 937              	.L59:
 938 0630 B8000000 		.word	an_x
 939 0634 19FCFFFF 		.word	-999
 940 0638 80010000 		.word	an_y
 941              	.L50:
 185:algorithm.c   ****                 if (an_x[i]> n_x_dc_max) {n_x_dc_max =an_x[i];n_x_dc_max_idx =i; }
 942              		.loc 1 185 0
 943 063c BA4A     		ldr	r2, .L61
 944 063e D7F82431 		ldr	r3, [r7, #292]
 945 0642 52F82320 		ldr	r2, [r2, r3, lsl #2]
 946 0646 D7F80831 		ldr	r3, [r7, #264]
 947 064a 9A42     		cmp	r2, r3
 948 064c 0ADD     		ble	.L48
 949              		.loc 1 185 0 is_stmt 0 discriminator 1
 950 064e B64A     		ldr	r2, .L61
 951 0650 D7F82431 		ldr	r3, [r7, #292]
 952 0654 52F82330 		ldr	r3, [r2, r3, lsl #2]
 953 0658 C7F80831 		str	r3, [r7, #264]
 954 065c D7F82431 		ldr	r3, [r7, #292]
 955 0660 C7F80031 		str	r3, [r7, #256]
 956              	.L48:
 186:algorithm.c   ****                 if (an_y[i]> n_y_dc_max) {n_y_dc_max =an_y[i];n_y_dc_max_idx=i;}
 957              		.loc 1 186 0 is_stmt 1
 958 0664 B14A     		ldr	r2, .L61+4
 959 0666 D7F82431 		ldr	r3, [r7, #292]
 960 066a 52F82320 		ldr	r2, [r2, r3, lsl #2]
 961 066e D7F80C31 		ldr	r3, [r7, #268]
 962 0672 9A42     		cmp	r2, r3
 963 0674 0ADD     		ble	.L49
 964              		.loc 1 186 0 is_stmt 0 discriminator 1
 965 0676 AD4A     		ldr	r2, .L61+4
 966 0678 D7F82431 		ldr	r3, [r7, #292]
 967 067c 52F82330 		ldr	r3, [r2, r3, lsl #2]
 968 0680 C7F80C31 		str	r3, [r7, #268]
 969 0684 D7F82431 		ldr	r3, [r7, #292]
ARM GAS  C:\Users\Perro\AppData\Local\Temp\ccaxo3yg.s 			page 22


 970 0688 C7F80431 		str	r3, [r7, #260]
 971              	.L49:
 184:algorithm.c   ****             for (i=an_exact_ir_valley_locs[k]; i< an_exact_ir_valley_locs[k+1]; i++){
 972              		.loc 1 184 0 is_stmt 1 discriminator 2
 973 068c D7F82431 		ldr	r3, [r7, #292]
 974 0690 0133     		adds	r3, r3, #1
 975 0692 C7F82431 		str	r3, [r7, #292]
 976              	.L47:
 184:algorithm.c   ****             for (i=an_exact_ir_valley_locs[k]; i< an_exact_ir_valley_locs[k+1]; i++){
 977              		.loc 1 184 0 is_stmt 0 discriminator 1
 978 0696 D7F82C31 		ldr	r3, [r7, #300]
 979 069a 0133     		adds	r3, r3, #1
 980 069c 9B00     		lsls	r3, r3, #2
 981 069e 07F59C72 		add	r2, r7, #312
 982 06a2 1344     		add	r3, r3, r2
 983 06a4 53F8D42C 		ldr	r2, [r3, #-212]
 984 06a8 D7F82431 		ldr	r3, [r7, #292]
 985 06ac 9A42     		cmp	r2, r3
 986 06ae C5DC     		bgt	.L50
 187:algorithm.c   ****             }
 188:algorithm.c   ****             n_y_ac= (an_y[an_exact_ir_valley_locs[k+1]] - an_y[an_exact_ir_valley_locs[k] ] )*(n_y_
 987              		.loc 1 188 0 is_stmt 1
 988 06b0 D7F82C31 		ldr	r3, [r7, #300]
 989 06b4 0133     		adds	r3, r3, #1
 990 06b6 9B00     		lsls	r3, r3, #2
 991 06b8 07F59C72 		add	r2, r7, #312
 992 06bc 1344     		add	r3, r3, r2
 993 06be 53F8D43C 		ldr	r3, [r3, #-212]
 994 06c2 9A4A     		ldr	r2, .L61+4
 995 06c4 52F82320 		ldr	r2, [r2, r3, lsl #2]
 996 06c8 D7F82C31 		ldr	r3, [r7, #300]
 997 06cc 9B00     		lsls	r3, r3, #2
 998 06ce 07F59C71 		add	r1, r7, #312
 999 06d2 0B44     		add	r3, r3, r1
 1000 06d4 53F8D43C 		ldr	r3, [r3, #-212]
 1001 06d8 9449     		ldr	r1, .L61+4
 1002 06da 51F82330 		ldr	r3, [r1, r3, lsl #2]
 1003 06de D21A     		subs	r2, r2, r3
 1004 06e0 D7F82C31 		ldr	r3, [r7, #300]
 1005 06e4 9B00     		lsls	r3, r3, #2
 1006 06e6 07F59C71 		add	r1, r7, #312
 1007 06ea 0B44     		add	r3, r3, r1
 1008 06ec 53F8D43C 		ldr	r3, [r3, #-212]
 1009 06f0 D7F80411 		ldr	r1, [r7, #260]
 1010 06f4 CB1A     		subs	r3, r1, r3
 1011 06f6 03FB02F3 		mul	r3, r3, r2
 1012 06fa C7F8F030 		str	r3, [r7, #240]
 189:algorithm.c   ****             n_y_ac=  an_y[an_exact_ir_valley_locs[k]] + n_y_ac/ (an_exact_ir_valley_locs[k+1] - an_
 1013              		.loc 1 189 0
 1014 06fe D7F82C31 		ldr	r3, [r7, #300]
 1015 0702 9B00     		lsls	r3, r3, #2
 1016 0704 07F59C72 		add	r2, r7, #312
 1017 0708 1344     		add	r3, r3, r2
 1018 070a 53F8D43C 		ldr	r3, [r3, #-212]
 1019 070e 874A     		ldr	r2, .L61+4
 1020 0710 52F82320 		ldr	r2, [r2, r3, lsl #2]
 1021 0714 D7F82C31 		ldr	r3, [r7, #300]
ARM GAS  C:\Users\Perro\AppData\Local\Temp\ccaxo3yg.s 			page 23


 1022 0718 0133     		adds	r3, r3, #1
 1023 071a 9B00     		lsls	r3, r3, #2
 1024 071c 07F59C71 		add	r1, r7, #312
 1025 0720 0B44     		add	r3, r3, r1
 1026 0722 53F8D41C 		ldr	r1, [r3, #-212]
 1027 0726 D7F82C31 		ldr	r3, [r7, #300]
 1028 072a 9B00     		lsls	r3, r3, #2
 1029 072c 07F59C70 		add	r0, r7, #312
 1030 0730 0344     		add	r3, r3, r0
 1031 0732 53F8D43C 		ldr	r3, [r3, #-212]
 1032 0736 CB1A     		subs	r3, r1, r3
 1033 0738 D7F8F010 		ldr	r1, [r7, #240]
 1034 073c 91FBF3F3 		sdiv	r3, r1, r3
 1035 0740 1344     		add	r3, r3, r2
 1036 0742 C7F8F030 		str	r3, [r7, #240]
 190:algorithm.c   ****         
 191:algorithm.c   ****         
 192:algorithm.c   ****             n_y_ac=  an_y[n_y_dc_max_idx] - n_y_ac;    // subracting linear DC compoenents from raw
 1037              		.loc 1 192 0
 1038 0746 794A     		ldr	r2, .L61+4
 1039 0748 D7F80431 		ldr	r3, [r7, #260]
 1040 074c 52F82320 		ldr	r2, [r2, r3, lsl #2]
 1041 0750 D7F8F030 		ldr	r3, [r7, #240]
 1042 0754 D31A     		subs	r3, r2, r3
 1043 0756 C7F8F030 		str	r3, [r7, #240]
 193:algorithm.c   ****             n_x_ac= (an_x[an_exact_ir_valley_locs[k+1]] - an_x[an_exact_ir_valley_locs[k] ] )*(n_x_
 1044              		.loc 1 193 0
 1045 075a D7F82C31 		ldr	r3, [r7, #300]
 1046 075e 0133     		adds	r3, r3, #1
 1047 0760 9B00     		lsls	r3, r3, #2
 1048 0762 07F59C72 		add	r2, r7, #312
 1049 0766 1344     		add	r3, r3, r2
 1050 0768 53F8D43C 		ldr	r3, [r3, #-212]
 1051 076c 6E4A     		ldr	r2, .L61
 1052 076e 52F82320 		ldr	r2, [r2, r3, lsl #2]
 1053 0772 D7F82C31 		ldr	r3, [r7, #300]
 1054 0776 9B00     		lsls	r3, r3, #2
 1055 0778 07F59C71 		add	r1, r7, #312
 1056 077c 0B44     		add	r3, r3, r1
 1057 077e 53F8D43C 		ldr	r3, [r3, #-212]
 1058 0782 6949     		ldr	r1, .L61
 1059 0784 51F82330 		ldr	r3, [r1, r3, lsl #2]
 1060 0788 D21A     		subs	r2, r2, r3
 1061 078a D7F82C31 		ldr	r3, [r7, #300]
 1062 078e 9B00     		lsls	r3, r3, #2
 1063 0790 07F59C71 		add	r1, r7, #312
 1064 0794 0B44     		add	r3, r3, r1
 1065 0796 53F8D43C 		ldr	r3, [r3, #-212]
 1066 079a D7F80011 		ldr	r1, [r7, #256]
 1067 079e CB1A     		subs	r3, r1, r3
 1068 07a0 03FB02F3 		mul	r3, r3, r2
 1069 07a4 C7F8EC30 		str	r3, [r7, #236]
 194:algorithm.c   ****             n_x_ac=  an_x[an_exact_ir_valley_locs[k]] + n_x_ac/ (an_exact_ir_valley_locs[k+1] - an_
 1070              		.loc 1 194 0
 1071 07a8 D7F82C31 		ldr	r3, [r7, #300]
 1072 07ac 9B00     		lsls	r3, r3, #2
 1073 07ae 07F59C72 		add	r2, r7, #312
ARM GAS  C:\Users\Perro\AppData\Local\Temp\ccaxo3yg.s 			page 24


 1074 07b2 1344     		add	r3, r3, r2
 1075 07b4 53F8D43C 		ldr	r3, [r3, #-212]
 1076 07b8 5B4A     		ldr	r2, .L61
 1077 07ba 52F82320 		ldr	r2, [r2, r3, lsl #2]
 1078 07be D7F82C31 		ldr	r3, [r7, #300]
 1079 07c2 0133     		adds	r3, r3, #1
 1080 07c4 9B00     		lsls	r3, r3, #2
 1081 07c6 07F59C71 		add	r1, r7, #312
 1082 07ca 0B44     		add	r3, r3, r1
 1083 07cc 53F8D41C 		ldr	r1, [r3, #-212]
 1084 07d0 D7F82C31 		ldr	r3, [r7, #300]
 1085 07d4 9B00     		lsls	r3, r3, #2
 1086 07d6 07F59C70 		add	r0, r7, #312
 1087 07da 0344     		add	r3, r3, r0
 1088 07dc 53F8D43C 		ldr	r3, [r3, #-212]
 1089 07e0 CB1A     		subs	r3, r1, r3
 1090 07e2 D7F8EC10 		ldr	r1, [r7, #236]
 1091 07e6 91FBF3F3 		sdiv	r3, r1, r3
 1092 07ea 1344     		add	r3, r3, r2
 1093 07ec C7F8EC30 		str	r3, [r7, #236]
 195:algorithm.c   ****             n_x_ac=  an_x[n_y_dc_max_idx] - n_x_ac;      // subracting linear DC compoenents from r
 1094              		.loc 1 195 0
 1095 07f0 4D4A     		ldr	r2, .L61
 1096 07f2 D7F80431 		ldr	r3, [r7, #260]
 1097 07f6 52F82320 		ldr	r2, [r2, r3, lsl #2]
 1098 07fa D7F8EC30 		ldr	r3, [r7, #236]
 1099 07fe D31A     		subs	r3, r2, r3
 1100 0800 C7F8EC30 		str	r3, [r7, #236]
 196:algorithm.c   ****             n_nume=( n_y_ac *n_x_dc_max)>>7 ; //prepare X100 to preserve floating value
 1101              		.loc 1 196 0
 1102 0804 D7F8F030 		ldr	r3, [r7, #240]
 1103 0808 D7F80821 		ldr	r2, [r7, #264]
 1104 080c 02FB03F3 		mul	r3, r2, r3
 1105 0810 DB11     		asrs	r3, r3, #7
 1106 0812 C7F8E830 		str	r3, [r7, #232]
 197:algorithm.c   ****             n_denom= ( n_x_ac *n_y_dc_max)>>7;
 1107              		.loc 1 197 0
 1108 0816 D7F8EC30 		ldr	r3, [r7, #236]
 1109 081a D7F80C21 		ldr	r2, [r7, #268]
 1110 081e 02FB03F3 		mul	r3, r2, r3
 1111 0822 DB11     		asrs	r3, r3, #7
 1112 0824 C7F8F830 		str	r3, [r7, #248]
 198:algorithm.c   ****             if (n_denom>0  && n_i_ratio_count <5 &&  n_nume != 0)
 1113              		.loc 1 198 0
 1114 0828 D7F8F830 		ldr	r3, [r7, #248]
 1115 082c 002B     		cmp	r3, #0
 1116 082e 1BDD     		ble	.L46
 1117              		.loc 1 198 0 is_stmt 0 discriminator 1
 1118 0830 D7F82831 		ldr	r3, [r7, #296]
 1119 0834 042B     		cmp	r3, #4
 1120 0836 17DC     		bgt	.L46
 1121              		.loc 1 198 0 discriminator 2
 1122 0838 D7F8E830 		ldr	r3, [r7, #232]
 1123 083c 002B     		cmp	r3, #0
 1124 083e 13D0     		beq	.L46
 199:algorithm.c   ****             {   
 200:algorithm.c   ****                 an_ratio[n_i_ratio_count]= (n_nume*100)/n_denom ; //formular is ( n_y_ac *n_x_dc_ma
ARM GAS  C:\Users\Perro\AppData\Local\Temp\ccaxo3yg.s 			page 25


 1125              		.loc 1 200 0 is_stmt 1
 1126 0840 D7F8E830 		ldr	r3, [r7, #232]
 1127 0844 6422     		movs	r2, #100
 1128 0846 02FB03F2 		mul	r2, r2, r3
 1129 084a D7F8F830 		ldr	r3, [r7, #248]
 1130 084e 92FBF3F1 		sdiv	r1, r2, r3
 1131 0852 07F11403 		add	r3, r7, #20
 1132 0856 D7F82821 		ldr	r2, [r7, #296]
 1133 085a 43F82210 		str	r1, [r3, r2, lsl #2]
 201:algorithm.c   ****                 n_i_ratio_count++;
 1134              		.loc 1 201 0
 1135 085e D7F82831 		ldr	r3, [r7, #296]
 1136 0862 0133     		adds	r3, r3, #1
 1137 0864 C7F82831 		str	r3, [r7, #296]
 1138              	.L46:
 180:algorithm.c   ****         n_y_dc_max= -16777216 ; 
 1139              		.loc 1 180 0 discriminator 2
 1140 0868 D7F82C31 		ldr	r3, [r7, #300]
 1141 086c 0133     		adds	r3, r3, #1
 1142 086e C7F82C31 		str	r3, [r7, #300]
 1143              	.L45:
 180:algorithm.c   ****         n_y_dc_max= -16777216 ; 
 1144              		.loc 1 180 0 is_stmt 0 discriminator 1
 1145 0872 D7F81C31 		ldr	r3, [r7, #284]
 1146 0876 5A1E     		subs	r2, r3, #1
 1147 0878 D7F82C31 		ldr	r3, [r7, #300]
 1148 087c 9A42     		cmp	r2, r3
 1149 087e 3FF7AEAE 		bgt	.L51
 202:algorithm.c   ****             }
 203:algorithm.c   ****         }
 204:algorithm.c   ****     }
 205:algorithm.c   **** 
 206:algorithm.c   ****     maxim_sort_ascend(an_ratio, n_i_ratio_count);
 1150              		.loc 1 206 0 is_stmt 1
 1151 0882 07F11403 		add	r3, r7, #20
 1152 0886 D7F82811 		ldr	r1, [r7, #296]
 1153 088a 1846     		mov	r0, r3
 1154 088c FFF7FEFF 		bl	maxim_sort_ascend
 207:algorithm.c   ****     n_middle_idx= n_i_ratio_count/2;
 1155              		.loc 1 207 0
 1156 0890 D7F82831 		ldr	r3, [r7, #296]
 1157 0894 DA0F     		lsrs	r2, r3, #31
 1158 0896 1344     		add	r3, r3, r2
 1159 0898 5B10     		asrs	r3, r3, #1
 1160 089a C7F8E430 		str	r3, [r7, #228]
 208:algorithm.c   **** 
 209:algorithm.c   ****     if (n_middle_idx >1)
 1161              		.loc 1 209 0
 1162 089e D7F8E430 		ldr	r3, [r7, #228]
 1163 08a2 012B     		cmp	r3, #1
 1164 08a4 13DD     		ble	.L52
 210:algorithm.c   ****         n_ratio_average =( an_ratio[n_middle_idx-1] +an_ratio[n_middle_idx])/2; // use median
 1165              		.loc 1 210 0
 1166 08a6 D7F8E430 		ldr	r3, [r7, #228]
 1167 08aa 5A1E     		subs	r2, r3, #1
 1168 08ac 07F11403 		add	r3, r7, #20
 1169 08b0 53F82220 		ldr	r2, [r3, r2, lsl #2]
ARM GAS  C:\Users\Perro\AppData\Local\Temp\ccaxo3yg.s 			page 26


 1170 08b4 07F11403 		add	r3, r7, #20
 1171 08b8 D7F8E410 		ldr	r1, [r7, #228]
 1172 08bc 53F82130 		ldr	r3, [r3, r1, lsl #2]
 1173 08c0 1344     		add	r3, r3, r2
 1174 08c2 DA0F     		lsrs	r2, r3, #31
 1175 08c4 1344     		add	r3, r3, r2
 1176 08c6 5B10     		asrs	r3, r3, #1
 1177 08c8 C7F8FC30 		str	r3, [r7, #252]
 1178 08cc 07E0     		b	.L53
 1179              	.L52:
 211:algorithm.c   ****     else
 212:algorithm.c   ****         n_ratio_average = an_ratio[n_middle_idx ];
 1180              		.loc 1 212 0
 1181 08ce 07F11403 		add	r3, r7, #20
 1182 08d2 D7F8E420 		ldr	r2, [r7, #228]
 1183 08d6 53F82230 		ldr	r3, [r3, r2, lsl #2]
 1184 08da C7F8FC30 		str	r3, [r7, #252]
 1185              	.L53:
 213:algorithm.c   **** 
 214:algorithm.c   ****     if( n_ratio_average>2 && n_ratio_average <184){
 1186              		.loc 1 214 0
 1187 08de D7F8FC30 		ldr	r3, [r7, #252]
 1188 08e2 022B     		cmp	r3, #2
 1189 08e4 14DD     		ble	.L54
 1190              		.loc 1 214 0 is_stmt 0 discriminator 1
 1191 08e6 D7F8FC30 		ldr	r3, [r7, #252]
 1192 08ea B72B     		cmp	r3, #183
 1193 08ec 10DC     		bgt	.L54
 215:algorithm.c   ****         n_spo2_calc= uch_spo2_table[n_ratio_average] ;
 1194              		.loc 1 215 0 is_stmt 1
 1195 08ee 104A     		ldr	r2, .L61+8
 1196 08f0 D7F8FC30 		ldr	r3, [r7, #252]
 1197 08f4 1344     		add	r3, r3, r2
 1198 08f6 1B78     		ldrb	r3, [r3]	@ zero_extendqisi2
 1199 08f8 C7F8E030 		str	r3, [r7, #224]
 216:algorithm.c   ****         *pn_spo2 = n_spo2_calc ;
 1200              		.loc 1 216 0
 1201 08fc 3B46     		mov	r3, r7
 1202 08fe 1B68     		ldr	r3, [r3]
 1203 0900 D7F8E020 		ldr	r2, [r7, #224]
 1204 0904 1A60     		str	r2, [r3]
 217:algorithm.c   ****         *pch_spo2_valid  = 1;//  float_SPO2 =  -45.060*n_ratio_average* n_ratio_average/10000 + 30.
 1205              		.loc 1 217 0
 1206 0906 D7F84831 		ldr	r3, [r7, #328]
 1207 090a 0122     		movs	r2, #1
 1208 090c 1A70     		strb	r2, [r3]
 1209 090e 07E0     		b	.L1
 1210              	.L54:
 218:algorithm.c   ****     }
 219:algorithm.c   ****     else{
 220:algorithm.c   ****         *pn_spo2 =  -999 ; // do not use SPO2 since signal ratio is out of range
 1211              		.loc 1 220 0
 1212 0910 3B46     		mov	r3, r7
 1213 0912 1B68     		ldr	r3, [r3]
 1214 0914 074A     		ldr	r2, .L61+12
 1215 0916 1A60     		str	r2, [r3]
 221:algorithm.c   ****         *pch_spo2_valid  = 0; 
ARM GAS  C:\Users\Perro\AppData\Local\Temp\ccaxo3yg.s 			page 27


 1216              		.loc 1 221 0
 1217 0918 D7F84831 		ldr	r3, [r7, #328]
 1218 091c 0022     		movs	r2, #0
 1219 091e 1A70     		strb	r2, [r3]
 1220              	.L1:
 222:algorithm.c   ****     }
 223:algorithm.c   **** }
 1221              		.loc 1 223 0
 1222 0920 07F59E77 		add	r7, r7, #316
 1223              		.cfi_def_cfa_offset 12
 1224 0924 BD46     		mov	sp, r7
 1225              		.cfi_def_cfa_register 13
 1226              		@ sp needed
 1227 0926 90BD     		pop	{r4, r7, pc}
 1228              	.L62:
 1229              		.align	2
 1230              	.L61:
 1231 0928 B8000000 		.word	an_x
 1232 092c 80010000 		.word	an_y
 1233 0930 00000000 		.word	uch_spo2_table
 1234 0934 19FCFFFF 		.word	-999
 1235              		.cfi_endproc
 1236              	.LFE63:
 1237              		.size	maxim_heart_rate_and_oxygen_saturation, .-maxim_heart_rate_and_oxygen_saturation
 1238              		.section	.text.maxim_find_peaks,"ax",%progbits
 1239              		.align	2
 1240              		.global	maxim_find_peaks
 1241              		.thumb
 1242              		.thumb_func
 1243              		.type	maxim_find_peaks, %function
 1244              	maxim_find_peaks:
 1245              	.LFB64:
 224:algorithm.c   **** 
 225:algorithm.c   **** 
 226:algorithm.c   **** void maxim_find_peaks(int32_t *pn_locs, int32_t *pn_npks, int32_t *pn_x, int32_t n_size, int32_t n_
 227:algorithm.c   **** /**
 228:algorithm.c   **** * \brief        Find peaks
 229:algorithm.c   **** * \par          Details
 230:algorithm.c   **** *               Find at most MAX_NUM peaks above MIN_HEIGHT separated by at least MIN_DISTANCE
 231:algorithm.c   **** *
 232:algorithm.c   **** * \retval       None
 233:algorithm.c   **** */
 234:algorithm.c   **** {
 1246              		.loc 1 234 0
 1247              		.cfi_startproc
 1248              		@ args = 12, pretend = 0, frame = 16
 1249              		@ frame_needed = 1, uses_anonymous_args = 0
 1250 0000 80B5     		push	{r7, lr}
 1251              		.cfi_def_cfa_offset 8
 1252              		.cfi_offset 7, -8
 1253              		.cfi_offset 14, -4
 1254 0002 86B0     		sub	sp, sp, #24
 1255              		.cfi_def_cfa_offset 32
 1256 0004 02AF     		add	r7, sp, #8
 1257              		.cfi_def_cfa 7, 24
 1258 0006 F860     		str	r0, [r7, #12]
 1259 0008 B960     		str	r1, [r7, #8]
ARM GAS  C:\Users\Perro\AppData\Local\Temp\ccaxo3yg.s 			page 28


 1260 000a 7A60     		str	r2, [r7, #4]
 1261 000c 3B60     		str	r3, [r7]
 235:algorithm.c   ****     maxim_peaks_above_min_height( pn_locs, pn_npks, pn_x, n_size, n_min_height );
 1262              		.loc 1 235 0
 1263 000e BB69     		ldr	r3, [r7, #24]
 1264 0010 0093     		str	r3, [sp]
 1265 0012 3B68     		ldr	r3, [r7]
 1266 0014 7A68     		ldr	r2, [r7, #4]
 1267 0016 B968     		ldr	r1, [r7, #8]
 1268 0018 F868     		ldr	r0, [r7, #12]
 1269 001a FFF7FEFF 		bl	maxim_peaks_above_min_height
 236:algorithm.c   ****     maxim_remove_close_peaks( pn_locs, pn_npks, pn_x, n_min_distance );
 1270              		.loc 1 236 0
 1271 001e FB69     		ldr	r3, [r7, #28]
 1272 0020 7A68     		ldr	r2, [r7, #4]
 1273 0022 B968     		ldr	r1, [r7, #8]
 1274 0024 F868     		ldr	r0, [r7, #12]
 1275 0026 FFF7FEFF 		bl	maxim_remove_close_peaks
 237:algorithm.c   ****     *pn_npks = min( *pn_npks, n_max_num );
 1276              		.loc 1 237 0
 1277 002a BB68     		ldr	r3, [r7, #8]
 1278 002c 1A68     		ldr	r2, [r3]
 1279 002e 3B6A     		ldr	r3, [r7, #32]
 1280 0030 9A42     		cmp	r2, r3
 1281 0032 A8BF     		it	ge
 1282 0034 1A46     		movge	r2, r3
 1283 0036 BB68     		ldr	r3, [r7, #8]
 1284 0038 1A60     		str	r2, [r3]
 238:algorithm.c   **** }
 1285              		.loc 1 238 0
 1286 003a 00BF     		nop
 1287 003c 1037     		adds	r7, r7, #16
 1288              		.cfi_def_cfa_offset 8
 1289 003e BD46     		mov	sp, r7
 1290              		.cfi_def_cfa_register 13
 1291              		@ sp needed
 1292 0040 80BD     		pop	{r7, pc}
 1293              		.cfi_endproc
 1294              	.LFE64:
 1295              		.size	maxim_find_peaks, .-maxim_find_peaks
 1296 0042 00BF     		.section	.text.maxim_peaks_above_min_height,"ax",%progbits
 1297              		.align	2
 1298              		.global	maxim_peaks_above_min_height
 1299              		.thumb
 1300              		.thumb_func
 1301              		.type	maxim_peaks_above_min_height, %function
 1302              	maxim_peaks_above_min_height:
 1303              	.LFB65:
 239:algorithm.c   **** 
 240:algorithm.c   **** void maxim_peaks_above_min_height(int32_t *pn_locs, int32_t *pn_npks, int32_t  *pn_x, int32_t n_siz
 241:algorithm.c   **** /**
 242:algorithm.c   **** * \brief        Find peaks above n_min_height
 243:algorithm.c   **** * \par          Details
 244:algorithm.c   **** *               Find all peaks above MIN_HEIGHT
 245:algorithm.c   **** *
 246:algorithm.c   **** * \retval       None
 247:algorithm.c   **** */
ARM GAS  C:\Users\Perro\AppData\Local\Temp\ccaxo3yg.s 			page 29


 248:algorithm.c   **** {
 1304              		.loc 1 248 0
 1305              		.cfi_startproc
 1306              		@ args = 4, pretend = 0, frame = 24
 1307              		@ frame_needed = 1, uses_anonymous_args = 0
 1308              		@ link register save eliminated.
 1309 0000 80B4     		push	{r7}
 1310              		.cfi_def_cfa_offset 4
 1311              		.cfi_offset 7, -4
 1312 0002 87B0     		sub	sp, sp, #28
 1313              		.cfi_def_cfa_offset 32
 1314 0004 00AF     		add	r7, sp, #0
 1315              		.cfi_def_cfa_register 7
 1316 0006 F860     		str	r0, [r7, #12]
 1317 0008 B960     		str	r1, [r7, #8]
 1318 000a 7A60     		str	r2, [r7, #4]
 1319 000c 3B60     		str	r3, [r7]
 249:algorithm.c   ****     int32_t i = 1, n_width;
 1320              		.loc 1 249 0
 1321 000e 0123     		movs	r3, #1
 1322 0010 7B61     		str	r3, [r7, #20]
 250:algorithm.c   ****     *pn_npks = 0;
 1323              		.loc 1 250 0
 1324 0012 BB68     		ldr	r3, [r7, #8]
 1325 0014 0022     		movs	r2, #0
 1326 0016 1A60     		str	r2, [r3]
 251:algorithm.c   ****     
 252:algorithm.c   ****     while (i < n_size-1){
 1327              		.loc 1 252 0
 1328 0018 5AE0     		b	.L65
 1329              	.L72:
 253:algorithm.c   ****         if (pn_x[i] > n_min_height && pn_x[i] > pn_x[i-1]){            // find left edge of potenti
 1330              		.loc 1 253 0
 1331 001a 7B69     		ldr	r3, [r7, #20]
 1332 001c 9B00     		lsls	r3, r3, #2
 1333 001e 7A68     		ldr	r2, [r7, #4]
 1334 0020 1344     		add	r3, r3, r2
 1335 0022 1A68     		ldr	r2, [r3]
 1336 0024 3B6A     		ldr	r3, [r7, #32]
 1337 0026 9A42     		cmp	r2, r3
 1338 0028 4FDD     		ble	.L66
 1339              		.loc 1 253 0 is_stmt 0 discriminator 1
 1340 002a 7B69     		ldr	r3, [r7, #20]
 1341 002c 9B00     		lsls	r3, r3, #2
 1342 002e 7A68     		ldr	r2, [r7, #4]
 1343 0030 1344     		add	r3, r3, r2
 1344 0032 1A68     		ldr	r2, [r3]
 1345 0034 7B69     		ldr	r3, [r7, #20]
 1346 0036 03F18043 		add	r3, r3, #1073741824
 1347 003a 013B     		subs	r3, r3, #1
 1348 003c 9B00     		lsls	r3, r3, #2
 1349 003e 7968     		ldr	r1, [r7, #4]
 1350 0040 0B44     		add	r3, r3, r1
 1351 0042 1B68     		ldr	r3, [r3]
 1352 0044 9A42     		cmp	r2, r3
 1353 0046 40DD     		ble	.L66
 254:algorithm.c   ****             n_width = 1;
ARM GAS  C:\Users\Perro\AppData\Local\Temp\ccaxo3yg.s 			page 30


 1354              		.loc 1 254 0 is_stmt 1
 1355 0048 0123     		movs	r3, #1
 1356 004a 3B61     		str	r3, [r7, #16]
 255:algorithm.c   ****             while (i+n_width < n_size && pn_x[i] == pn_x[i+n_width])    // find flat peaks
 1357              		.loc 1 255 0
 1358 004c 02E0     		b	.L67
 1359              	.L69:
 256:algorithm.c   ****                 n_width++;
 1360              		.loc 1 256 0
 1361 004e 3B69     		ldr	r3, [r7, #16]
 1362 0050 0133     		adds	r3, r3, #1
 1363 0052 3B61     		str	r3, [r7, #16]
 1364              	.L67:
 255:algorithm.c   ****             while (i+n_width < n_size && pn_x[i] == pn_x[i+n_width])    // find flat peaks
 1365              		.loc 1 255 0
 1366 0054 7A69     		ldr	r2, [r7, #20]
 1367 0056 3B69     		ldr	r3, [r7, #16]
 1368 0058 1A44     		add	r2, r2, r3
 1369 005a 3B68     		ldr	r3, [r7]
 1370 005c 9A42     		cmp	r2, r3
 1371 005e 0DDA     		bge	.L68
 255:algorithm.c   ****             while (i+n_width < n_size && pn_x[i] == pn_x[i+n_width])    // find flat peaks
 1372              		.loc 1 255 0 is_stmt 0 discriminator 1
 1373 0060 7B69     		ldr	r3, [r7, #20]
 1374 0062 9B00     		lsls	r3, r3, #2
 1375 0064 7A68     		ldr	r2, [r7, #4]
 1376 0066 1344     		add	r3, r3, r2
 1377 0068 1A68     		ldr	r2, [r3]
 1378 006a 7969     		ldr	r1, [r7, #20]
 1379 006c 3B69     		ldr	r3, [r7, #16]
 1380 006e 0B44     		add	r3, r3, r1
 1381 0070 9B00     		lsls	r3, r3, #2
 1382 0072 7968     		ldr	r1, [r7, #4]
 1383 0074 0B44     		add	r3, r3, r1
 1384 0076 1B68     		ldr	r3, [r3]
 1385 0078 9A42     		cmp	r2, r3
 1386 007a E8D0     		beq	.L69
 1387              	.L68:
 257:algorithm.c   ****             if (pn_x[i] > pn_x[i+n_width] && (*pn_npks) < 15 ){                            // find 
 1388              		.loc 1 257 0 is_stmt 1
 1389 007c 7B69     		ldr	r3, [r7, #20]
 1390 007e 9B00     		lsls	r3, r3, #2
 1391 0080 7A68     		ldr	r2, [r7, #4]
 1392 0082 1344     		add	r3, r3, r2
 1393 0084 1A68     		ldr	r2, [r3]
 1394 0086 7969     		ldr	r1, [r7, #20]
 1395 0088 3B69     		ldr	r3, [r7, #16]
 1396 008a 0B44     		add	r3, r3, r1
 1397 008c 9B00     		lsls	r3, r3, #2
 1398 008e 7968     		ldr	r1, [r7, #4]
 1399 0090 0B44     		add	r3, r3, r1
 1400 0092 1B68     		ldr	r3, [r3]
 1401 0094 9A42     		cmp	r2, r3
 1402 0096 13DD     		ble	.L70
 1403              		.loc 1 257 0 is_stmt 0 discriminator 1
 1404 0098 BB68     		ldr	r3, [r7, #8]
 1405 009a 1B68     		ldr	r3, [r3]
ARM GAS  C:\Users\Perro\AppData\Local\Temp\ccaxo3yg.s 			page 31


 1406 009c 0E2B     		cmp	r3, #14
 1407 009e 0FDC     		bgt	.L70
 258:algorithm.c   ****                 pn_locs[(*pn_npks)++] = i;        
 1408              		.loc 1 258 0 is_stmt 1
 1409 00a0 BB68     		ldr	r3, [r7, #8]
 1410 00a2 1B68     		ldr	r3, [r3]
 1411 00a4 591C     		adds	r1, r3, #1
 1412 00a6 BA68     		ldr	r2, [r7, #8]
 1413 00a8 1160     		str	r1, [r2]
 1414 00aa 9B00     		lsls	r3, r3, #2
 1415 00ac FA68     		ldr	r2, [r7, #12]
 1416 00ae 1344     		add	r3, r3, r2
 1417 00b0 7A69     		ldr	r2, [r7, #20]
 1418 00b2 1A60     		str	r2, [r3]
 259:algorithm.c   ****                 // for flat peaks, peak location is left edge
 260:algorithm.c   ****                 i += n_width+1;
 1419              		.loc 1 260 0
 1420 00b4 3B69     		ldr	r3, [r7, #16]
 1421 00b6 0133     		adds	r3, r3, #1
 1422 00b8 7A69     		ldr	r2, [r7, #20]
 1423 00ba 1344     		add	r3, r3, r2
 1424 00bc 7B61     		str	r3, [r7, #20]
 1425 00be 03E0     		b	.L71
 1426              	.L70:
 261:algorithm.c   ****             }
 262:algorithm.c   ****             else
 263:algorithm.c   ****                 i += n_width;
 1427              		.loc 1 263 0
 1428 00c0 7A69     		ldr	r2, [r7, #20]
 1429 00c2 3B69     		ldr	r3, [r7, #16]
 1430 00c4 1344     		add	r3, r3, r2
 1431 00c6 7B61     		str	r3, [r7, #20]
 1432              	.L71:
 257:algorithm.c   ****                 pn_locs[(*pn_npks)++] = i;        
 1433              		.loc 1 257 0
 1434 00c8 02E0     		b	.L65
 1435              	.L66:
 264:algorithm.c   ****         }
 265:algorithm.c   ****         else
 266:algorithm.c   ****             i++;
 1436              		.loc 1 266 0
 1437 00ca 7B69     		ldr	r3, [r7, #20]
 1438 00cc 0133     		adds	r3, r3, #1
 1439 00ce 7B61     		str	r3, [r7, #20]
 1440              	.L65:
 252:algorithm.c   ****         if (pn_x[i] > n_min_height && pn_x[i] > pn_x[i-1]){            // find left edge of potenti
 1441              		.loc 1 252 0
 1442 00d0 3B68     		ldr	r3, [r7]
 1443 00d2 5A1E     		subs	r2, r3, #1
 1444 00d4 7B69     		ldr	r3, [r7, #20]
 1445 00d6 9A42     		cmp	r2, r3
 1446 00d8 9FDC     		bgt	.L72
 267:algorithm.c   ****     }
 268:algorithm.c   **** }
 1447              		.loc 1 268 0
 1448 00da 00BF     		nop
 1449 00dc 1C37     		adds	r7, r7, #28
ARM GAS  C:\Users\Perro\AppData\Local\Temp\ccaxo3yg.s 			page 32


 1450              		.cfi_def_cfa_offset 4
 1451 00de BD46     		mov	sp, r7
 1452              		.cfi_def_cfa_register 13
 1453              		@ sp needed
 1454 00e0 80BC     		pop	{r7}
 1455              		.cfi_restore 7
 1456              		.cfi_def_cfa_offset 0
 1457 00e2 7047     		bx	lr
 1458              		.cfi_endproc
 1459              	.LFE65:
 1460              		.size	maxim_peaks_above_min_height, .-maxim_peaks_above_min_height
 1461              		.section	.text.maxim_remove_close_peaks,"ax",%progbits
 1462              		.align	2
 1463              		.global	maxim_remove_close_peaks
 1464              		.thumb
 1465              		.thumb_func
 1466              		.type	maxim_remove_close_peaks, %function
 1467              	maxim_remove_close_peaks:
 1468              	.LFB66:
 269:algorithm.c   **** 
 270:algorithm.c   **** 
 271:algorithm.c   **** void maxim_remove_close_peaks(int32_t *pn_locs, int32_t *pn_npks, int32_t *pn_x, int32_t n_min_dist
 272:algorithm.c   **** /**
 273:algorithm.c   **** * \brief        Remove peaks
 274:algorithm.c   **** * \par          Details
 275:algorithm.c   **** *               Remove peaks separated by less than MIN_DISTANCE
 276:algorithm.c   **** *
 277:algorithm.c   **** * \retval       None
 278:algorithm.c   **** */
 279:algorithm.c   **** {
 1469              		.loc 1 279 0
 1470              		.cfi_startproc
 1471              		@ args = 0, pretend = 0, frame = 32
 1472              		@ frame_needed = 1, uses_anonymous_args = 0
 1473 0000 80B5     		push	{r7, lr}
 1474              		.cfi_def_cfa_offset 8
 1475              		.cfi_offset 7, -8
 1476              		.cfi_offset 14, -4
 1477 0002 88B0     		sub	sp, sp, #32
 1478              		.cfi_def_cfa_offset 40
 1479 0004 00AF     		add	r7, sp, #0
 1480              		.cfi_def_cfa_register 7
 1481 0006 F860     		str	r0, [r7, #12]
 1482 0008 B960     		str	r1, [r7, #8]
 1483 000a 7A60     		str	r2, [r7, #4]
 1484 000c 3B60     		str	r3, [r7]
 280:algorithm.c   ****     
 281:algorithm.c   ****     int32_t i, j, n_old_npks, n_dist;
 282:algorithm.c   ****     
 283:algorithm.c   ****     /* Order peaks from large to small */
 284:algorithm.c   ****     maxim_sort_indices_descend( pn_x, pn_locs, *pn_npks );
 1485              		.loc 1 284 0
 1486 000e BB68     		ldr	r3, [r7, #8]
 1487 0010 1B68     		ldr	r3, [r3]
 1488 0012 1A46     		mov	r2, r3
 1489 0014 F968     		ldr	r1, [r7, #12]
 1490 0016 7868     		ldr	r0, [r7, #4]
ARM GAS  C:\Users\Perro\AppData\Local\Temp\ccaxo3yg.s 			page 33


 1491 0018 FFF7FEFF 		bl	maxim_sort_indices_descend
 285:algorithm.c   **** 
 286:algorithm.c   ****     for ( i = -1; i < *pn_npks; i++ ){
 1492              		.loc 1 286 0
 1493 001c 4FF0FF33 		mov	r3, #-1
 1494 0020 FB61     		str	r3, [r7, #28]
 1495 0022 3EE0     		b	.L74
 1496              	.L81:
 287:algorithm.c   ****         n_old_npks = *pn_npks;
 1497              		.loc 1 287 0
 1498 0024 BB68     		ldr	r3, [r7, #8]
 1499 0026 1B68     		ldr	r3, [r3]
 1500 0028 7B61     		str	r3, [r7, #20]
 288:algorithm.c   ****         *pn_npks = i+1;
 1501              		.loc 1 288 0
 1502 002a FB69     		ldr	r3, [r7, #28]
 1503 002c 5A1C     		adds	r2, r3, #1
 1504 002e BB68     		ldr	r3, [r7, #8]
 1505 0030 1A60     		str	r2, [r3]
 289:algorithm.c   ****         for ( j = i+1; j < n_old_npks; j++ ){
 1506              		.loc 1 289 0
 1507 0032 FB69     		ldr	r3, [r7, #28]
 1508 0034 0133     		adds	r3, r3, #1
 1509 0036 BB61     		str	r3, [r7, #24]
 1510 0038 2CE0     		b	.L75
 1511              	.L80:
 290:algorithm.c   ****             n_dist =  pn_locs[j] - ( i == -1 ? -1 : pn_locs[i] ); // lag-zero peak of autocorr is a
 1512              		.loc 1 290 0
 1513 003a BB69     		ldr	r3, [r7, #24]
 1514 003c 9B00     		lsls	r3, r3, #2
 1515 003e FA68     		ldr	r2, [r7, #12]
 1516 0040 1344     		add	r3, r3, r2
 1517 0042 1A68     		ldr	r2, [r3]
 1518 0044 FB69     		ldr	r3, [r7, #28]
 1519 0046 B3F1FF3F 		cmp	r3, #-1
 1520 004a 05D0     		beq	.L76
 1521              		.loc 1 290 0 is_stmt 0 discriminator 1
 1522 004c FB69     		ldr	r3, [r7, #28]
 1523 004e 9B00     		lsls	r3, r3, #2
 1524 0050 F968     		ldr	r1, [r7, #12]
 1525 0052 0B44     		add	r3, r3, r1
 1526 0054 1B68     		ldr	r3, [r3]
 1527 0056 01E0     		b	.L77
 1528              	.L76:
 1529              		.loc 1 290 0 discriminator 2
 1530 0058 4FF0FF33 		mov	r3, #-1
 1531              	.L77:
 1532              		.loc 1 290 0 discriminator 4
 1533 005c D31A     		subs	r3, r2, r3
 1534 005e 3B61     		str	r3, [r7, #16]
 291:algorithm.c   ****             if ( n_dist > n_min_distance || n_dist < -n_min_distance )
 1535              		.loc 1 291 0 is_stmt 1 discriminator 4
 1536 0060 3A69     		ldr	r2, [r7, #16]
 1537 0062 3B68     		ldr	r3, [r7]
 1538 0064 9A42     		cmp	r2, r3
 1539 0066 04DC     		bgt	.L78
 1540              		.loc 1 291 0 is_stmt 0 discriminator 1
ARM GAS  C:\Users\Perro\AppData\Local\Temp\ccaxo3yg.s 			page 34


 1541 0068 3B68     		ldr	r3, [r7]
 1542 006a 5A42     		negs	r2, r3
 1543 006c 3B69     		ldr	r3, [r7, #16]
 1544 006e 9A42     		cmp	r2, r3
 1545 0070 0DDD     		ble	.L79
 1546              	.L78:
 292:algorithm.c   ****                 pn_locs[(*pn_npks)++] = pn_locs[j];
 1547              		.loc 1 292 0 is_stmt 1
 1548 0072 BB68     		ldr	r3, [r7, #8]
 1549 0074 1B68     		ldr	r3, [r3]
 1550 0076 591C     		adds	r1, r3, #1
 1551 0078 BA68     		ldr	r2, [r7, #8]
 1552 007a 1160     		str	r1, [r2]
 1553 007c 9B00     		lsls	r3, r3, #2
 1554 007e FA68     		ldr	r2, [r7, #12]
 1555 0080 1344     		add	r3, r3, r2
 1556 0082 BA69     		ldr	r2, [r7, #24]
 1557 0084 9200     		lsls	r2, r2, #2
 1558 0086 F968     		ldr	r1, [r7, #12]
 1559 0088 0A44     		add	r2, r2, r1
 1560 008a 1268     		ldr	r2, [r2]
 1561 008c 1A60     		str	r2, [r3]
 1562              	.L79:
 289:algorithm.c   ****             n_dist =  pn_locs[j] - ( i == -1 ? -1 : pn_locs[i] ); // lag-zero peak of autocorr is a
 1563              		.loc 1 289 0 discriminator 2
 1564 008e BB69     		ldr	r3, [r7, #24]
 1565 0090 0133     		adds	r3, r3, #1
 1566 0092 BB61     		str	r3, [r7, #24]
 1567              	.L75:
 289:algorithm.c   ****             n_dist =  pn_locs[j] - ( i == -1 ? -1 : pn_locs[i] ); // lag-zero peak of autocorr is a
 1568              		.loc 1 289 0 is_stmt 0 discriminator 1
 1569 0094 BA69     		ldr	r2, [r7, #24]
 1570 0096 7B69     		ldr	r3, [r7, #20]
 1571 0098 9A42     		cmp	r2, r3
 1572 009a CEDB     		blt	.L80
 286:algorithm.c   ****         n_old_npks = *pn_npks;
 1573              		.loc 1 286 0 is_stmt 1 discriminator 2
 1574 009c FB69     		ldr	r3, [r7, #28]
 1575 009e 0133     		adds	r3, r3, #1
 1576 00a0 FB61     		str	r3, [r7, #28]
 1577              	.L74:
 286:algorithm.c   ****         n_old_npks = *pn_npks;
 1578              		.loc 1 286 0 is_stmt 0 discriminator 1
 1579 00a2 BB68     		ldr	r3, [r7, #8]
 1580 00a4 1A68     		ldr	r2, [r3]
 1581 00a6 FB69     		ldr	r3, [r7, #28]
 1582 00a8 9A42     		cmp	r2, r3
 1583 00aa BBDC     		bgt	.L81
 293:algorithm.c   ****         }
 294:algorithm.c   ****     }
 295:algorithm.c   **** 
 296:algorithm.c   ****     // Resort indices longo ascending order
 297:algorithm.c   ****     maxim_sort_ascend( pn_locs, *pn_npks );
 1584              		.loc 1 297 0 is_stmt 1
 1585 00ac BB68     		ldr	r3, [r7, #8]
 1586 00ae 1B68     		ldr	r3, [r3]
 1587 00b0 1946     		mov	r1, r3
ARM GAS  C:\Users\Perro\AppData\Local\Temp\ccaxo3yg.s 			page 35


 1588 00b2 F868     		ldr	r0, [r7, #12]
 1589 00b4 FFF7FEFF 		bl	maxim_sort_ascend
 298:algorithm.c   **** }
 1590              		.loc 1 298 0
 1591 00b8 00BF     		nop
 1592 00ba 2037     		adds	r7, r7, #32
 1593              		.cfi_def_cfa_offset 8
 1594 00bc BD46     		mov	sp, r7
 1595              		.cfi_def_cfa_register 13
 1596              		@ sp needed
 1597 00be 80BD     		pop	{r7, pc}
 1598              		.cfi_endproc
 1599              	.LFE66:
 1600              		.size	maxim_remove_close_peaks, .-maxim_remove_close_peaks
 1601              		.section	.text.maxim_sort_ascend,"ax",%progbits
 1602              		.align	2
 1603              		.global	maxim_sort_ascend
 1604              		.thumb
 1605              		.thumb_func
 1606              		.type	maxim_sort_ascend, %function
 1607              	maxim_sort_ascend:
 1608              	.LFB67:
 299:algorithm.c   **** 
 300:algorithm.c   **** void maxim_sort_ascend(int32_t *pn_x,int32_t n_size) 
 301:algorithm.c   **** /**
 302:algorithm.c   **** * \brief        Sort array
 303:algorithm.c   **** * \par          Details
 304:algorithm.c   **** *               Sort array in ascending order (insertion sort algorithm)
 305:algorithm.c   **** *
 306:algorithm.c   **** * \retval       None
 307:algorithm.c   **** */
 308:algorithm.c   **** {
 1609              		.loc 1 308 0
 1610              		.cfi_startproc
 1611              		@ args = 0, pretend = 0, frame = 24
 1612              		@ frame_needed = 1, uses_anonymous_args = 0
 1613              		@ link register save eliminated.
 1614 0000 80B4     		push	{r7}
 1615              		.cfi_def_cfa_offset 4
 1616              		.cfi_offset 7, -4
 1617 0002 87B0     		sub	sp, sp, #28
 1618              		.cfi_def_cfa_offset 32
 1619 0004 00AF     		add	r7, sp, #0
 1620              		.cfi_def_cfa_register 7
 1621 0006 7860     		str	r0, [r7, #4]
 1622 0008 3960     		str	r1, [r7]
 309:algorithm.c   ****     int32_t i, j, n_temp;
 310:algorithm.c   ****     for (i = 1; i < n_size; i++) {
 1623              		.loc 1 310 0
 1624 000a 0123     		movs	r3, #1
 1625 000c 7B61     		str	r3, [r7, #20]
 1626 000e 2FE0     		b	.L83
 1627              	.L87:
 311:algorithm.c   ****         n_temp = pn_x[i];
 1628              		.loc 1 311 0
 1629 0010 7B69     		ldr	r3, [r7, #20]
 1630 0012 9B00     		lsls	r3, r3, #2
ARM GAS  C:\Users\Perro\AppData\Local\Temp\ccaxo3yg.s 			page 36


 1631 0014 7A68     		ldr	r2, [r7, #4]
 1632 0016 1344     		add	r3, r3, r2
 1633 0018 1B68     		ldr	r3, [r3]
 1634 001a FB60     		str	r3, [r7, #12]
 312:algorithm.c   ****         for (j = i; j > 0 && n_temp < pn_x[j-1]; j--)
 1635              		.loc 1 312 0
 1636 001c 7B69     		ldr	r3, [r7, #20]
 1637 001e 3B61     		str	r3, [r7, #16]
 1638 0020 0FE0     		b	.L84
 1639              	.L86:
 313:algorithm.c   ****             pn_x[j] = pn_x[j-1];
 1640              		.loc 1 313 0 discriminator 4
 1641 0022 3B69     		ldr	r3, [r7, #16]
 1642 0024 9B00     		lsls	r3, r3, #2
 1643 0026 7A68     		ldr	r2, [r7, #4]
 1644 0028 1A44     		add	r2, r2, r3
 1645 002a 3B69     		ldr	r3, [r7, #16]
 1646 002c 03F18043 		add	r3, r3, #1073741824
 1647 0030 013B     		subs	r3, r3, #1
 1648 0032 9B00     		lsls	r3, r3, #2
 1649 0034 7968     		ldr	r1, [r7, #4]
 1650 0036 0B44     		add	r3, r3, r1
 1651 0038 1B68     		ldr	r3, [r3]
 1652 003a 1360     		str	r3, [r2]
 312:algorithm.c   ****         for (j = i; j > 0 && n_temp < pn_x[j-1]; j--)
 1653              		.loc 1 312 0 discriminator 4
 1654 003c 3B69     		ldr	r3, [r7, #16]
 1655 003e 013B     		subs	r3, r3, #1
 1656 0040 3B61     		str	r3, [r7, #16]
 1657              	.L84:
 312:algorithm.c   ****         for (j = i; j > 0 && n_temp < pn_x[j-1]; j--)
 1658              		.loc 1 312 0 is_stmt 0 discriminator 1
 1659 0042 3B69     		ldr	r3, [r7, #16]
 1660 0044 002B     		cmp	r3, #0
 1661 0046 0ADD     		ble	.L85
 312:algorithm.c   ****         for (j = i; j > 0 && n_temp < pn_x[j-1]; j--)
 1662              		.loc 1 312 0 discriminator 3
 1663 0048 3B69     		ldr	r3, [r7, #16]
 1664 004a 03F18043 		add	r3, r3, #1073741824
 1665 004e 013B     		subs	r3, r3, #1
 1666 0050 9B00     		lsls	r3, r3, #2
 1667 0052 7A68     		ldr	r2, [r7, #4]
 1668 0054 1344     		add	r3, r3, r2
 1669 0056 1A68     		ldr	r2, [r3]
 1670 0058 FB68     		ldr	r3, [r7, #12]
 1671 005a 9A42     		cmp	r2, r3
 1672 005c E1DC     		bgt	.L86
 1673              	.L85:
 314:algorithm.c   ****         pn_x[j] = n_temp;
 1674              		.loc 1 314 0 is_stmt 1 discriminator 2
 1675 005e 3B69     		ldr	r3, [r7, #16]
 1676 0060 9B00     		lsls	r3, r3, #2
 1677 0062 7A68     		ldr	r2, [r7, #4]
 1678 0064 1344     		add	r3, r3, r2
 1679 0066 FA68     		ldr	r2, [r7, #12]
 1680 0068 1A60     		str	r2, [r3]
 310:algorithm.c   ****         n_temp = pn_x[i];
ARM GAS  C:\Users\Perro\AppData\Local\Temp\ccaxo3yg.s 			page 37


 1681              		.loc 1 310 0 discriminator 2
 1682 006a 7B69     		ldr	r3, [r7, #20]
 1683 006c 0133     		adds	r3, r3, #1
 1684 006e 7B61     		str	r3, [r7, #20]
 1685              	.L83:
 310:algorithm.c   ****         n_temp = pn_x[i];
 1686              		.loc 1 310 0 is_stmt 0 discriminator 1
 1687 0070 7A69     		ldr	r2, [r7, #20]
 1688 0072 3B68     		ldr	r3, [r7]
 1689 0074 9A42     		cmp	r2, r3
 1690 0076 CBDB     		blt	.L87
 315:algorithm.c   ****     }
 316:algorithm.c   **** }
 1691              		.loc 1 316 0 is_stmt 1
 1692 0078 00BF     		nop
 1693 007a 1C37     		adds	r7, r7, #28
 1694              		.cfi_def_cfa_offset 4
 1695 007c BD46     		mov	sp, r7
 1696              		.cfi_def_cfa_register 13
 1697              		@ sp needed
 1698 007e 80BC     		pop	{r7}
 1699              		.cfi_restore 7
 1700              		.cfi_def_cfa_offset 0
 1701 0080 7047     		bx	lr
 1702              		.cfi_endproc
 1703              	.LFE67:
 1704              		.size	maxim_sort_ascend, .-maxim_sort_ascend
 1705 0082 00BF     		.section	.text.maxim_sort_indices_descend,"ax",%progbits
 1706              		.align	2
 1707              		.global	maxim_sort_indices_descend
 1708              		.thumb
 1709              		.thumb_func
 1710              		.type	maxim_sort_indices_descend, %function
 1711              	maxim_sort_indices_descend:
 1712              	.LFB68:
 317:algorithm.c   **** 
 318:algorithm.c   **** void maxim_sort_indices_descend(int32_t *pn_x, int32_t *pn_indx, int32_t n_size)
 319:algorithm.c   **** /**
 320:algorithm.c   **** * \brief        Sort indices
 321:algorithm.c   **** * \par          Details
 322:algorithm.c   **** *               Sort indices according to descending order (insertion sort algorithm)
 323:algorithm.c   **** *
 324:algorithm.c   **** * \retval       None
 325:algorithm.c   **** */ 
 326:algorithm.c   **** {
 1713              		.loc 1 326 0
 1714              		.cfi_startproc
 1715              		@ args = 0, pretend = 0, frame = 32
 1716              		@ frame_needed = 1, uses_anonymous_args = 0
 1717              		@ link register save eliminated.
 1718 0000 80B4     		push	{r7}
 1719              		.cfi_def_cfa_offset 4
 1720              		.cfi_offset 7, -4
 1721 0002 89B0     		sub	sp, sp, #36
 1722              		.cfi_def_cfa_offset 40
 1723 0004 00AF     		add	r7, sp, #0
 1724              		.cfi_def_cfa_register 7
ARM GAS  C:\Users\Perro\AppData\Local\Temp\ccaxo3yg.s 			page 38


 1725 0006 F860     		str	r0, [r7, #12]
 1726 0008 B960     		str	r1, [r7, #8]
 1727 000a 7A60     		str	r2, [r7, #4]
 327:algorithm.c   ****     int32_t i, j, n_temp;
 328:algorithm.c   ****     for (i = 1; i < n_size; i++) {
 1728              		.loc 1 328 0
 1729 000c 0123     		movs	r3, #1
 1730 000e FB61     		str	r3, [r7, #28]
 1731 0010 37E0     		b	.L89
 1732              	.L93:
 329:algorithm.c   ****         n_temp = pn_indx[i];
 1733              		.loc 1 329 0
 1734 0012 FB69     		ldr	r3, [r7, #28]
 1735 0014 9B00     		lsls	r3, r3, #2
 1736 0016 BA68     		ldr	r2, [r7, #8]
 1737 0018 1344     		add	r3, r3, r2
 1738 001a 1B68     		ldr	r3, [r3]
 1739 001c 7B61     		str	r3, [r7, #20]
 330:algorithm.c   ****         for (j = i; j > 0 && pn_x[n_temp] > pn_x[pn_indx[j-1]]; j--)
 1740              		.loc 1 330 0
 1741 001e FB69     		ldr	r3, [r7, #28]
 1742 0020 BB61     		str	r3, [r7, #24]
 1743 0022 0FE0     		b	.L90
 1744              	.L92:
 331:algorithm.c   ****             pn_indx[j] = pn_indx[j-1];
 1745              		.loc 1 331 0 discriminator 4
 1746 0024 BB69     		ldr	r3, [r7, #24]
 1747 0026 9B00     		lsls	r3, r3, #2
 1748 0028 BA68     		ldr	r2, [r7, #8]
 1749 002a 1A44     		add	r2, r2, r3
 1750 002c BB69     		ldr	r3, [r7, #24]
 1751 002e 03F18043 		add	r3, r3, #1073741824
 1752 0032 013B     		subs	r3, r3, #1
 1753 0034 9B00     		lsls	r3, r3, #2
 1754 0036 B968     		ldr	r1, [r7, #8]
 1755 0038 0B44     		add	r3, r3, r1
 1756 003a 1B68     		ldr	r3, [r3]
 1757 003c 1360     		str	r3, [r2]
 330:algorithm.c   ****         for (j = i; j > 0 && pn_x[n_temp] > pn_x[pn_indx[j-1]]; j--)
 1758              		.loc 1 330 0 discriminator 4
 1759 003e BB69     		ldr	r3, [r7, #24]
 1760 0040 013B     		subs	r3, r3, #1
 1761 0042 BB61     		str	r3, [r7, #24]
 1762              	.L90:
 330:algorithm.c   ****         for (j = i; j > 0 && pn_x[n_temp] > pn_x[pn_indx[j-1]]; j--)
 1763              		.loc 1 330 0 is_stmt 0 discriminator 1
 1764 0044 BB69     		ldr	r3, [r7, #24]
 1765 0046 002B     		cmp	r3, #0
 1766 0048 12DD     		ble	.L91
 330:algorithm.c   ****         for (j = i; j > 0 && pn_x[n_temp] > pn_x[pn_indx[j-1]]; j--)
 1767              		.loc 1 330 0 discriminator 3
 1768 004a 7B69     		ldr	r3, [r7, #20]
 1769 004c 9B00     		lsls	r3, r3, #2
 1770 004e FA68     		ldr	r2, [r7, #12]
 1771 0050 1344     		add	r3, r3, r2
 1772 0052 1A68     		ldr	r2, [r3]
 1773 0054 BB69     		ldr	r3, [r7, #24]
ARM GAS  C:\Users\Perro\AppData\Local\Temp\ccaxo3yg.s 			page 39


 1774 0056 03F18043 		add	r3, r3, #1073741824
 1775 005a 013B     		subs	r3, r3, #1
 1776 005c 9B00     		lsls	r3, r3, #2
 1777 005e B968     		ldr	r1, [r7, #8]
 1778 0060 0B44     		add	r3, r3, r1
 1779 0062 1B68     		ldr	r3, [r3]
 1780 0064 9B00     		lsls	r3, r3, #2
 1781 0066 F968     		ldr	r1, [r7, #12]
 1782 0068 0B44     		add	r3, r3, r1
 1783 006a 1B68     		ldr	r3, [r3]
 1784 006c 9A42     		cmp	r2, r3
 1785 006e D9DC     		bgt	.L92
 1786              	.L91:
 332:algorithm.c   ****         pn_indx[j] = n_temp;
 1787              		.loc 1 332 0 is_stmt 1 discriminator 2
 1788 0070 BB69     		ldr	r3, [r7, #24]
 1789 0072 9B00     		lsls	r3, r3, #2
 1790 0074 BA68     		ldr	r2, [r7, #8]
 1791 0076 1344     		add	r3, r3, r2
 1792 0078 7A69     		ldr	r2, [r7, #20]
 1793 007a 1A60     		str	r2, [r3]
 328:algorithm.c   ****         n_temp = pn_indx[i];
 1794              		.loc 1 328 0 discriminator 2
 1795 007c FB69     		ldr	r3, [r7, #28]
 1796 007e 0133     		adds	r3, r3, #1
 1797 0080 FB61     		str	r3, [r7, #28]
 1798              	.L89:
 328:algorithm.c   ****         n_temp = pn_indx[i];
 1799              		.loc 1 328 0 is_stmt 0 discriminator 1
 1800 0082 FA69     		ldr	r2, [r7, #28]
 1801 0084 7B68     		ldr	r3, [r7, #4]
 1802 0086 9A42     		cmp	r2, r3
 1803 0088 C3DB     		blt	.L93
 333:algorithm.c   ****     }
 334:algorithm.c   **** }
 1804              		.loc 1 334 0 is_stmt 1
 1805 008a 00BF     		nop
 1806 008c 2437     		adds	r7, r7, #36
 1807              		.cfi_def_cfa_offset 4
 1808 008e BD46     		mov	sp, r7
 1809              		.cfi_def_cfa_register 13
 1810              		@ sp needed
 1811 0090 80BC     		pop	{r7}
 1812              		.cfi_restore 7
 1813              		.cfi_def_cfa_offset 0
 1814 0092 7047     		bx	lr
 1815              		.cfi_endproc
 1816              	.LFE68:
 1817              		.size	maxim_sort_indices_descend, .-maxim_sort_indices_descend
 1818              		.text
 1819              	.Letext0:
 1820              		.file 2 "c:\\program files (x86)\\cypress\\psoc creator\\4.4\\psoc creator\\import\\gnu\\arm\\5.4.
 1821              		.file 3 "c:\\program files (x86)\\cypress\\psoc creator\\4.4\\psoc creator\\import\\gnu\\arm\\5.4.
 1822              		.file 4 "Generated_Source\\PSoC5/core_cm3.h"
 1823              		.section	.debug_info,"",%progbits
 1824              	.Ldebug_info0:
 1825 0000 26060000 		.4byte	0x626
ARM GAS  C:\Users\Perro\AppData\Local\Temp\ccaxo3yg.s 			page 40


 1826 0004 0400     		.2byte	0x4
 1827 0006 00000000 		.4byte	.Ldebug_abbrev0
 1828 000a 04       		.byte	0x4
 1829 000b 01       		.uleb128 0x1
 1830 000c D5000000 		.4byte	.LASF78
 1831 0010 0C       		.byte	0xc
 1832 0011 5A020000 		.4byte	.LASF79
 1833 0015 61000000 		.4byte	.LASF80
 1834 0019 00000000 		.4byte	.Ldebug_ranges0+0
 1835 001d 00000000 		.4byte	0
 1836 0021 00000000 		.4byte	.Ldebug_line0
 1837 0025 02       		.uleb128 0x2
 1838 0026 69030000 		.4byte	.LASF0
 1839 002a 02       		.byte	0x2
 1840 002b 1B       		.byte	0x1b
 1841 002c 30000000 		.4byte	0x30
 1842 0030 03       		.uleb128 0x3
 1843 0031 01       		.byte	0x1
 1844 0032 06       		.byte	0x6
 1845 0033 28040000 		.4byte	.LASF2
 1846 0037 02       		.uleb128 0x2
 1847 0038 A3040000 		.4byte	.LASF1
 1848 003c 02       		.byte	0x2
 1849 003d 1D       		.byte	0x1d
 1850 003e 42000000 		.4byte	0x42
 1851 0042 03       		.uleb128 0x3
 1852 0043 01       		.byte	0x1
 1853 0044 08       		.byte	0x8
 1854 0045 CE020000 		.4byte	.LASF3
 1855 0049 03       		.uleb128 0x3
 1856 004a 02       		.byte	0x2
 1857 004b 05       		.byte	0x5
 1858 004c 41000000 		.4byte	.LASF4
 1859 0050 02       		.uleb128 0x2
 1860 0051 C0010000 		.4byte	.LASF5
 1861 0055 02       		.byte	0x2
 1862 0056 2B       		.byte	0x2b
 1863 0057 5B000000 		.4byte	0x5b
 1864 005b 03       		.uleb128 0x3
 1865 005c 02       		.byte	0x2
 1866 005d 07       		.byte	0x7
 1867 005e 56030000 		.4byte	.LASF6
 1868 0062 02       		.uleb128 0x2
 1869 0063 14040000 		.4byte	.LASF7
 1870 0067 02       		.byte	0x2
 1871 0068 3F       		.byte	0x3f
 1872 0069 6D000000 		.4byte	0x6d
 1873 006d 03       		.uleb128 0x3
 1874 006e 04       		.byte	0x4
 1875 006f 05       		.byte	0x5
 1876 0070 74020000 		.4byte	.LASF8
 1877 0074 02       		.uleb128 0x2
 1878 0075 88010000 		.4byte	.LASF9
 1879 0079 02       		.byte	0x2
 1880 007a 41       		.byte	0x41
 1881 007b 7F000000 		.4byte	0x7f
 1882 007f 03       		.uleb128 0x3
ARM GAS  C:\Users\Perro\AppData\Local\Temp\ccaxo3yg.s 			page 41


 1883 0080 04       		.byte	0x4
 1884 0081 07       		.byte	0x7
 1885 0082 B9030000 		.4byte	.LASF10
 1886 0086 03       		.uleb128 0x3
 1887 0087 08       		.byte	0x8
 1888 0088 05       		.byte	0x5
 1889 0089 66020000 		.4byte	.LASF11
 1890 008d 03       		.uleb128 0x3
 1891 008e 08       		.byte	0x8
 1892 008f 07       		.byte	0x7
 1893 0090 04030000 		.4byte	.LASF12
 1894 0094 04       		.uleb128 0x4
 1895 0095 04       		.byte	0x4
 1896 0096 05       		.byte	0x5
 1897 0097 696E7400 		.ascii	"int\000"
 1898 009b 03       		.uleb128 0x3
 1899 009c 04       		.byte	0x4
 1900 009d 07       		.byte	0x7
 1901 009e 24030000 		.4byte	.LASF13
 1902 00a2 02       		.uleb128 0x2
 1903 00a3 3A000000 		.4byte	.LASF14
 1904 00a7 03       		.byte	0x3
 1905 00a8 14       		.byte	0x14
 1906 00a9 25000000 		.4byte	0x25
 1907 00ad 02       		.uleb128 0x2
 1908 00ae CB010000 		.4byte	.LASF15
 1909 00b2 03       		.byte	0x3
 1910 00b3 18       		.byte	0x18
 1911 00b4 37000000 		.4byte	0x37
 1912 00b8 02       		.uleb128 0x2
 1913 00b9 3E030000 		.4byte	.LASF16
 1914 00bd 03       		.byte	0x3
 1915 00be 24       		.byte	0x24
 1916 00bf 50000000 		.4byte	0x50
 1917 00c3 02       		.uleb128 0x2
 1918 00c4 7F030000 		.4byte	.LASF17
 1919 00c8 03       		.byte	0x3
 1920 00c9 2C       		.byte	0x2c
 1921 00ca 62000000 		.4byte	0x62
 1922 00ce 02       		.uleb128 0x2
 1923 00cf 1B030000 		.4byte	.LASF18
 1924 00d3 03       		.byte	0x3
 1925 00d4 30       		.byte	0x30
 1926 00d5 74000000 		.4byte	0x74
 1927 00d9 03       		.uleb128 0x3
 1928 00da 04       		.byte	0x4
 1929 00db 04       		.byte	0x4
 1930 00dc 19000000 		.4byte	.LASF19
 1931 00e0 03       		.uleb128 0x3
 1932 00e1 08       		.byte	0x8
 1933 00e2 04       		.byte	0x4
 1934 00e3 63040000 		.4byte	.LASF20
 1935 00e7 03       		.uleb128 0x3
 1936 00e8 01       		.byte	0x1
 1937 00e9 08       		.byte	0x8
 1938 00ea 7A030000 		.4byte	.LASF21
 1939 00ee 03       		.uleb128 0x3
ARM GAS  C:\Users\Perro\AppData\Local\Temp\ccaxo3yg.s 			page 42


 1940 00ef 08       		.byte	0x8
 1941 00f0 04       		.byte	0x4
 1942 00f1 7C010000 		.4byte	.LASF22
 1943 00f5 03       		.uleb128 0x3
 1944 00f6 04       		.byte	0x4
 1945 00f7 07       		.byte	0x7
 1946 00f8 4B000000 		.4byte	.LASF23
 1947 00fc 05       		.uleb128 0x5
 1948 00fd 0D020000 		.4byte	.LASF54
 1949 0101 01       		.byte	0x1
 1950 0102 22       		.byte	0x22
 1951 0103 00000000 		.4byte	.LFB63
 1952 0107 38090000 		.4byte	.LFE63-.LFB63
 1953 010b 01       		.uleb128 0x1
 1954 010c 9C       		.byte	0x9c
 1955 010d F9020000 		.4byte	0x2f9
 1956 0111 06       		.uleb128 0x6
 1957 0112 F8010000 		.4byte	.LASF24
 1958 0116 01       		.byte	0x1
 1959 0117 22       		.byte	0x22
 1960 0118 F9020000 		.4byte	0x2f9
 1961 011c 03       		.uleb128 0x3
 1962 011d 91       		.byte	0x91
 1963 011e C47D     		.sleb128 -316
 1964 0120 06       		.uleb128 0x6
 1965 0121 6A040000 		.4byte	.LASF25
 1966 0125 01       		.byte	0x1
 1967 0126 22       		.byte	0x22
 1968 0127 C3000000 		.4byte	0xc3
 1969 012b 03       		.uleb128 0x3
 1970 012c 91       		.byte	0x91
 1971 012d C07D     		.sleb128 -320
 1972 012f 06       		.uleb128 0x6
 1973 0130 4B020000 		.4byte	.LASF26
 1974 0134 01       		.byte	0x1
 1975 0135 22       		.byte	0x22
 1976 0136 F9020000 		.4byte	0x2f9
 1977 013a 03       		.uleb128 0x3
 1978 013b 91       		.byte	0x91
 1979 013c BC7D     		.sleb128 -324
 1980 013e 06       		.uleb128 0x6
 1981 013f F1020000 		.4byte	.LASF27
 1982 0143 01       		.byte	0x1
 1983 0144 22       		.byte	0x22
 1984 0145 FF020000 		.4byte	0x2ff
 1985 0149 03       		.uleb128 0x3
 1986 014a 91       		.byte	0x91
 1987 014b B87D     		.sleb128 -328
 1988 014d 06       		.uleb128 0x6
 1989 014e 7D020000 		.4byte	.LASF28
 1990 0152 01       		.byte	0x1
 1991 0153 22       		.byte	0x22
 1992 0154 05030000 		.4byte	0x305
 1993 0158 02       		.uleb128 0x2
 1994 0159 91       		.byte	0x91
 1995 015a 00       		.sleb128 0
 1996 015b 06       		.uleb128 0x6
ARM GAS  C:\Users\Perro\AppData\Local\Temp\ccaxo3yg.s 			page 43


 1997 015c 8C020000 		.4byte	.LASF29
 1998 0160 01       		.byte	0x1
 1999 0161 23       		.byte	0x23
 2000 0162 FF020000 		.4byte	0x2ff
 2001 0166 02       		.uleb128 0x2
 2002 0167 91       		.byte	0x91
 2003 0168 04       		.sleb128 4
 2004 0169 06       		.uleb128 0x6
 2005 016a 54000000 		.4byte	.LASF30
 2006 016e 01       		.byte	0x1
 2007 016f 23       		.byte	0x23
 2008 0170 05030000 		.4byte	0x305
 2009 0174 02       		.uleb128 0x2
 2010 0175 91       		.byte	0x91
 2011 0176 08       		.sleb128 8
 2012 0177 07       		.uleb128 0x7
 2013 0178 9F030000 		.4byte	.LASF31
 2014 017c 01       		.byte	0x1
 2015 017d 36       		.byte	0x36
 2016 017e CE000000 		.4byte	0xce
 2017 0182 02       		.uleb128 0x2
 2018 0183 91       		.byte	0x91
 2019 0184 6C       		.sleb128 -20
 2020 0185 07       		.uleb128 0x7
 2021 0186 31030000 		.4byte	.LASF32
 2022 018a 01       		.byte	0x1
 2023 018b 36       		.byte	0x36
 2024 018c CE000000 		.4byte	0xce
 2025 0190 02       		.uleb128 0x2
 2026 0191 91       		.byte	0x91
 2027 0192 68       		.sleb128 -24
 2028 0193 08       		.uleb128 0x8
 2029 0194 6B00     		.ascii	"k\000"
 2030 0196 01       		.byte	0x1
 2031 0197 37       		.byte	0x37
 2032 0198 C3000000 		.4byte	0xc3
 2033 019c 02       		.uleb128 0x2
 2034 019d 91       		.byte	0x91
 2035 019e 64       		.sleb128 -28
 2036 019f 07       		.uleb128 0x7
 2037 01a0 3B020000 		.4byte	.LASF33
 2038 01a4 01       		.byte	0x1
 2039 01a5 37       		.byte	0x37
 2040 01a6 C3000000 		.4byte	0xc3
 2041 01aa 02       		.uleb128 0x2
 2042 01ab 91       		.byte	0x91
 2043 01ac 60       		.sleb128 -32
 2044 01ad 08       		.uleb128 0x8
 2045 01ae 6900     		.ascii	"i\000"
 2046 01b0 01       		.byte	0x1
 2047 01b1 38       		.byte	0x38
 2048 01b2 C3000000 		.4byte	0xc3
 2049 01b6 02       		.uleb128 0x2
 2050 01b7 91       		.byte	0x91
 2051 01b8 5C       		.sleb128 -36
 2052 01b9 08       		.uleb128 0x8
 2053 01ba 7300     		.ascii	"s\000"
ARM GAS  C:\Users\Perro\AppData\Local\Temp\ccaxo3yg.s 			page 44


 2054 01bc 01       		.byte	0x1
 2055 01bd 38       		.byte	0x38
 2056 01be C3000000 		.4byte	0xc3
 2057 01c2 02       		.uleb128 0x2
 2058 01c3 91       		.byte	0x91
 2059 01c4 58       		.sleb128 -40
 2060 01c5 08       		.uleb128 0x8
 2061 01c6 6D00     		.ascii	"m\000"
 2062 01c8 01       		.byte	0x1
 2063 01c9 38       		.byte	0x38
 2064 01ca C3000000 		.4byte	0xc3
 2065 01ce 03       		.uleb128 0x3
 2066 01cf 91       		.byte	0x91
 2067 01d0 AC7F     		.sleb128 -84
 2068 01d2 07       		.uleb128 0x7
 2069 01d3 A2020000 		.4byte	.LASF34
 2070 01d7 01       		.byte	0x1
 2071 01d8 38       		.byte	0x38
 2072 01d9 C3000000 		.4byte	0xc3
 2073 01dd 02       		.uleb128 0x2
 2074 01de 91       		.byte	0x91
 2075 01df 54       		.sleb128 -44
 2076 01e0 07       		.uleb128 0x7
 2077 01e1 63010000 		.4byte	.LASF35
 2078 01e5 01       		.byte	0x1
 2079 01e6 38       		.byte	0x38
 2080 01e7 C3000000 		.4byte	0xc3
 2081 01eb 03       		.uleb128 0x3
 2082 01ec 91       		.byte	0x91
 2083 01ed 9C7F     		.sleb128 -100
 2084 01ef 07       		.uleb128 0x7
 2085 01f0 D2030000 		.4byte	.LASF36
 2086 01f4 01       		.byte	0x1
 2087 01f5 39       		.byte	0x39
 2088 01f6 C3000000 		.4byte	0xc3
 2089 01fa 02       		.uleb128 0x2
 2090 01fb 91       		.byte	0x91
 2091 01fc 50       		.sleb128 -48
 2092 01fd 07       		.uleb128 0x7
 2093 01fe 9C040000 		.4byte	.LASF37
 2094 0202 01       		.byte	0x1
 2095 0203 39       		.byte	0x39
 2096 0204 C3000000 		.4byte	0xc3
 2097 0208 03       		.uleb128 0x3
 2098 0209 91       		.byte	0x91
 2099 020a 947F     		.sleb128 -108
 2100 020c 07       		.uleb128 0x7
 2101 020d D3010000 		.4byte	.LASF38
 2102 0211 01       		.byte	0x1
 2103 0212 39       		.byte	0x39
 2104 0213 C3000000 		.4byte	0xc3
 2105 0217 02       		.uleb128 0x2
 2106 0218 91       		.byte	0x91
 2107 0219 4C       		.sleb128 -52
 2108 021a 07       		.uleb128 0x7
 2109 021b E6010000 		.4byte	.LASF39
 2110 021f 01       		.byte	0x1
ARM GAS  C:\Users\Perro\AppData\Local\Temp\ccaxo3yg.s 			page 45


 2111 0220 3A       		.byte	0x3a
 2112 0221 0B030000 		.4byte	0x30b
 2113 0225 03       		.uleb128 0x3
 2114 0226 91       		.byte	0x91
 2115 0227 D87E     		.sleb128 -168
 2116 0229 07       		.uleb128 0x7
 2117 022a AC000000 		.4byte	.LASF40
 2118 022e 01       		.byte	0x1
 2119 022f 3B       		.byte	0x3b
 2120 0230 0B030000 		.4byte	0x30b
 2121 0234 03       		.uleb128 0x3
 2122 0235 91       		.byte	0x91
 2123 0236 9C7E     		.sleb128 -228
 2124 0238 07       		.uleb128 0x7
 2125 0239 04040000 		.4byte	.LASF41
 2126 023d 01       		.byte	0x1
 2127 023e 3C       		.byte	0x3c
 2128 023f 0B030000 		.4byte	0x30b
 2129 0243 03       		.uleb128 0x3
 2130 0244 91       		.byte	0x91
 2131 0245 E07D     		.sleb128 -288
 2132 0247 07       		.uleb128 0x7
 2133 0248 26000000 		.4byte	.LASF42
 2134 024c 01       		.byte	0x1
 2135 024d 3D       		.byte	0x3d
 2136 024e C3000000 		.4byte	0xc3
 2137 0252 02       		.uleb128 0x2
 2138 0253 91       		.byte	0x91
 2139 0254 48       		.sleb128 -56
 2140 0255 07       		.uleb128 0x7
 2141 0256 1F000000 		.4byte	.LASF43
 2142 025a 01       		.byte	0x1
 2143 025b 3F       		.byte	0x3f
 2144 025c C3000000 		.4byte	0xc3
 2145 0260 03       		.uleb128 0x3
 2146 0261 91       		.byte	0x91
 2147 0262 A87F     		.sleb128 -88
 2148 0264 07       		.uleb128 0x7
 2149 0265 CB030000 		.4byte	.LASF44
 2150 0269 01       		.byte	0x1
 2151 026a 3F       		.byte	0x3f
 2152 026b C3000000 		.4byte	0xc3
 2153 026f 03       		.uleb128 0x3
 2154 0270 91       		.byte	0x91
 2155 0271 A47F     		.sleb128 -92
 2156 0273 07       		.uleb128 0x7
 2157 0274 70010000 		.4byte	.LASF45
 2158 0278 01       		.byte	0x1
 2159 0279 40       		.byte	0x40
 2160 027a C3000000 		.4byte	0xc3
 2161 027e 03       		.uleb128 0x3
 2162 027f 91       		.byte	0x91
 2163 0280 987F     		.sleb128 -104
 2164 0282 07       		.uleb128 0x7
 2165 0283 3B040000 		.4byte	.LASF46
 2166 0287 01       		.byte	0x1
 2167 0288 41       		.byte	0x41
ARM GAS  C:\Users\Perro\AppData\Local\Temp\ccaxo3yg.s 			page 46


 2168 0289 C3000000 		.4byte	0xc3
 2169 028d 02       		.uleb128 0x2
 2170 028e 91       		.byte	0x91
 2171 028f 44       		.sleb128 -60
 2172 0290 07       		.uleb128 0x7
 2173 0291 F9020000 		.4byte	.LASF47
 2174 0295 01       		.byte	0x1
 2175 0296 41       		.byte	0x41
 2176 0297 C3000000 		.4byte	0xc3
 2177 029b 02       		.uleb128 0x2
 2178 029c 91       		.byte	0x91
 2179 029d 40       		.sleb128 -64
 2180 029e 07       		.uleb128 0x7
 2181 029f BF020000 		.4byte	.LASF48
 2182 02a3 01       		.byte	0x1
 2183 02a4 42       		.byte	0x42
 2184 02a5 C3000000 		.4byte	0xc3
 2185 02a9 03       		.uleb128 0x3
 2186 02aa 91       		.byte	0x91
 2187 02ab BC7F     		.sleb128 -68
 2188 02ad 07       		.uleb128 0x7
 2189 02ae D8030000 		.4byte	.LASF49
 2190 02b2 01       		.byte	0x1
 2191 02b3 42       		.byte	0x42
 2192 02b4 C3000000 		.4byte	0xc3
 2193 02b8 03       		.uleb128 0x3
 2194 02b9 91       		.byte	0x91
 2195 02ba B87F     		.sleb128 -72
 2196 02bc 07       		.uleb128 0x7
 2197 02bd 96030000 		.4byte	.LASF50
 2198 02c1 01       		.byte	0x1
 2199 02c2 43       		.byte	0x43
 2200 02c3 1B030000 		.4byte	0x31b
 2201 02c7 03       		.uleb128 0x3
 2202 02c8 91       		.byte	0x91
 2203 02c9 CC7D     		.sleb128 -308
 2204 02cb 07       		.uleb128 0x7
 2205 02cc E7030000 		.4byte	.LASF51
 2206 02d0 01       		.byte	0x1
 2207 02d1 43       		.byte	0x43
 2208 02d2 C3000000 		.4byte	0xc3
 2209 02d6 03       		.uleb128 0x3
 2210 02d7 91       		.byte	0x91
 2211 02d8 B47F     		.sleb128 -76
 2212 02da 07       		.uleb128 0x7
 2213 02db 34040000 		.4byte	.LASF52
 2214 02df 01       		.byte	0x1
 2215 02e0 44       		.byte	0x44
 2216 02e1 C3000000 		.4byte	0xc3
 2217 02e5 03       		.uleb128 0x3
 2218 02e6 91       		.byte	0x91
 2219 02e7 A07F     		.sleb128 -96
 2220 02e9 07       		.uleb128 0x7
 2221 02ea 72030000 		.4byte	.LASF53
 2222 02ee 01       		.byte	0x1
 2223 02ef 44       		.byte	0x44
 2224 02f0 C3000000 		.4byte	0xc3
ARM GAS  C:\Users\Perro\AppData\Local\Temp\ccaxo3yg.s 			page 47


 2225 02f4 03       		.uleb128 0x3
 2226 02f5 91       		.byte	0x91
 2227 02f6 B07F     		.sleb128 -80
 2228 02f8 00       		.byte	0
 2229 02f9 09       		.uleb128 0x9
 2230 02fa 04       		.byte	0x4
 2231 02fb CE000000 		.4byte	0xce
 2232 02ff 09       		.uleb128 0x9
 2233 0300 04       		.byte	0x4
 2234 0301 C3000000 		.4byte	0xc3
 2235 0305 09       		.uleb128 0x9
 2236 0306 04       		.byte	0x4
 2237 0307 A2000000 		.4byte	0xa2
 2238 030b 0A       		.uleb128 0xa
 2239 030c C3000000 		.4byte	0xc3
 2240 0310 1B030000 		.4byte	0x31b
 2241 0314 0B       		.uleb128 0xb
 2242 0315 F5000000 		.4byte	0xf5
 2243 0319 0E       		.byte	0xe
 2244 031a 00       		.byte	0
 2245 031b 0A       		.uleb128 0xa
 2246 031c C3000000 		.4byte	0xc3
 2247 0320 2B030000 		.4byte	0x32b
 2248 0324 0B       		.uleb128 0xb
 2249 0325 F5000000 		.4byte	0xf5
 2250 0329 04       		.byte	0x4
 2251 032a 00       		.byte	0
 2252 032b 05       		.uleb128 0x5
 2253 032c C4000000 		.4byte	.LASF55
 2254 0330 01       		.byte	0x1
 2255 0331 E2       		.byte	0xe2
 2256 0332 00000000 		.4byte	.LFB64
 2257 0336 42000000 		.4byte	.LFE64-.LFB64
 2258 033a 01       		.uleb128 0x1
 2259 033b 9C       		.byte	0x9c
 2260 033c A3030000 		.4byte	0x3a3
 2261 0340 06       		.uleb128 0x6
 2262 0341 94040000 		.4byte	.LASF56
 2263 0345 01       		.byte	0x1
 2264 0346 E2       		.byte	0xe2
 2265 0347 FF020000 		.4byte	0x2ff
 2266 034b 02       		.uleb128 0x2
 2267 034c 91       		.byte	0x91
 2268 034d 74       		.sleb128 -12
 2269 034e 06       		.uleb128 0x6
 2270 034f 9A020000 		.4byte	.LASF57
 2271 0353 01       		.byte	0x1
 2272 0354 E2       		.byte	0xe2
 2273 0355 FF020000 		.4byte	0x2ff
 2274 0359 02       		.uleb128 0x2
 2275 035a 91       		.byte	0x91
 2276 035b 70       		.sleb128 -16
 2277 035c 06       		.uleb128 0x6
 2278 035d FF030000 		.4byte	.LASF58
 2279 0361 01       		.byte	0x1
 2280 0362 E2       		.byte	0xe2
 2281 0363 FF020000 		.4byte	0x2ff
ARM GAS  C:\Users\Perro\AppData\Local\Temp\ccaxo3yg.s 			page 48


 2282 0367 02       		.uleb128 0x2
 2283 0368 91       		.byte	0x91
 2284 0369 6C       		.sleb128 -20
 2285 036a 06       		.uleb128 0x6
 2286 036b AD040000 		.4byte	.LASF59
 2287 036f 01       		.byte	0x1
 2288 0370 E2       		.byte	0xe2
 2289 0371 C3000000 		.4byte	0xc3
 2290 0375 02       		.uleb128 0x2
 2291 0376 91       		.byte	0x91
 2292 0377 68       		.sleb128 -24
 2293 0378 06       		.uleb128 0x6
 2294 0379 E4020000 		.4byte	.LASF60
 2295 037d 01       		.byte	0x1
 2296 037e E2       		.byte	0xe2
 2297 037f C3000000 		.4byte	0xc3
 2298 0383 02       		.uleb128 0x2
 2299 0384 91       		.byte	0x91
 2300 0385 00       		.sleb128 0
 2301 0386 06       		.uleb128 0x6
 2302 0387 47030000 		.4byte	.LASF61
 2303 038b 01       		.byte	0x1
 2304 038c E2       		.byte	0xe2
 2305 038d C3000000 		.4byte	0xc3
 2306 0391 02       		.uleb128 0x2
 2307 0392 91       		.byte	0x91
 2308 0393 04       		.sleb128 4
 2309 0394 06       		.uleb128 0x6
 2310 0395 1E040000 		.4byte	.LASF62
 2311 0399 01       		.byte	0x1
 2312 039a E2       		.byte	0xe2
 2313 039b C3000000 		.4byte	0xc3
 2314 039f 02       		.uleb128 0x2
 2315 03a0 91       		.byte	0x91
 2316 03a1 08       		.sleb128 8
 2317 03a2 00       		.byte	0
 2318 03a3 0C       		.uleb128 0xc
 2319 03a4 46040000 		.4byte	.LASF63
 2320 03a8 01       		.byte	0x1
 2321 03a9 F0       		.byte	0xf0
 2322 03aa 00000000 		.4byte	.LFB65
 2323 03ae E4000000 		.4byte	.LFE65-.LFB65
 2324 03b2 01       		.uleb128 0x1
 2325 03b3 9C       		.byte	0x9c
 2326 03b4 19040000 		.4byte	0x419
 2327 03b8 06       		.uleb128 0x6
 2328 03b9 94040000 		.4byte	.LASF56
 2329 03bd 01       		.byte	0x1
 2330 03be F0       		.byte	0xf0
 2331 03bf FF020000 		.4byte	0x2ff
 2332 03c3 02       		.uleb128 0x2
 2333 03c4 91       		.byte	0x91
 2334 03c5 6C       		.sleb128 -20
 2335 03c6 06       		.uleb128 0x6
 2336 03c7 9A020000 		.4byte	.LASF57
 2337 03cb 01       		.byte	0x1
 2338 03cc F0       		.byte	0xf0
ARM GAS  C:\Users\Perro\AppData\Local\Temp\ccaxo3yg.s 			page 49


 2339 03cd FF020000 		.4byte	0x2ff
 2340 03d1 02       		.uleb128 0x2
 2341 03d2 91       		.byte	0x91
 2342 03d3 68       		.sleb128 -24
 2343 03d4 06       		.uleb128 0x6
 2344 03d5 FF030000 		.4byte	.LASF58
 2345 03d9 01       		.byte	0x1
 2346 03da F0       		.byte	0xf0
 2347 03db FF020000 		.4byte	0x2ff
 2348 03df 02       		.uleb128 0x2
 2349 03e0 91       		.byte	0x91
 2350 03e1 64       		.sleb128 -28
 2351 03e2 06       		.uleb128 0x6
 2352 03e3 AD040000 		.4byte	.LASF59
 2353 03e7 01       		.byte	0x1
 2354 03e8 F0       		.byte	0xf0
 2355 03e9 C3000000 		.4byte	0xc3
 2356 03ed 02       		.uleb128 0x2
 2357 03ee 91       		.byte	0x91
 2358 03ef 60       		.sleb128 -32
 2359 03f0 06       		.uleb128 0x6
 2360 03f1 E4020000 		.4byte	.LASF60
 2361 03f5 01       		.byte	0x1
 2362 03f6 F0       		.byte	0xf0
 2363 03f7 C3000000 		.4byte	0xc3
 2364 03fb 02       		.uleb128 0x2
 2365 03fc 91       		.byte	0x91
 2366 03fd 00       		.sleb128 0
 2367 03fe 08       		.uleb128 0x8
 2368 03ff 6900     		.ascii	"i\000"
 2369 0401 01       		.byte	0x1
 2370 0402 F9       		.byte	0xf9
 2371 0403 C3000000 		.4byte	0xc3
 2372 0407 02       		.uleb128 0x2
 2373 0408 91       		.byte	0x91
 2374 0409 74       		.sleb128 -12
 2375 040a 07       		.uleb128 0x7
 2376 040b F7030000 		.4byte	.LASF64
 2377 040f 01       		.byte	0x1
 2378 0410 F9       		.byte	0xf9
 2379 0411 C3000000 		.4byte	0xc3
 2380 0415 02       		.uleb128 0x2
 2381 0416 91       		.byte	0x91
 2382 0417 70       		.sleb128 -16
 2383 0418 00       		.byte	0
 2384 0419 0D       		.uleb128 0xd
 2385 041a 00000000 		.4byte	.LASF65
 2386 041e 01       		.byte	0x1
 2387 041f 0F01     		.2byte	0x10f
 2388 0421 00000000 		.4byte	.LFB66
 2389 0425 C0000000 		.4byte	.LFE66-.LFB66
 2390 0429 01       		.uleb128 0x1
 2391 042a 9C       		.byte	0x9c
 2392 042b A4040000 		.4byte	0x4a4
 2393 042f 0E       		.uleb128 0xe
 2394 0430 94040000 		.4byte	.LASF56
 2395 0434 01       		.byte	0x1
ARM GAS  C:\Users\Perro\AppData\Local\Temp\ccaxo3yg.s 			page 50


 2396 0435 0F01     		.2byte	0x10f
 2397 0437 FF020000 		.4byte	0x2ff
 2398 043b 02       		.uleb128 0x2
 2399 043c 91       		.byte	0x91
 2400 043d 64       		.sleb128 -28
 2401 043e 0E       		.uleb128 0xe
 2402 043f 9A020000 		.4byte	.LASF57
 2403 0443 01       		.byte	0x1
 2404 0444 0F01     		.2byte	0x10f
 2405 0446 FF020000 		.4byte	0x2ff
 2406 044a 02       		.uleb128 0x2
 2407 044b 91       		.byte	0x91
 2408 044c 60       		.sleb128 -32
 2409 044d 0E       		.uleb128 0xe
 2410 044e FF030000 		.4byte	.LASF58
 2411 0452 01       		.byte	0x1
 2412 0453 0F01     		.2byte	0x10f
 2413 0455 FF020000 		.4byte	0x2ff
 2414 0459 02       		.uleb128 0x2
 2415 045a 91       		.byte	0x91
 2416 045b 5C       		.sleb128 -36
 2417 045c 0E       		.uleb128 0xe
 2418 045d 47030000 		.4byte	.LASF61
 2419 0461 01       		.byte	0x1
 2420 0462 0F01     		.2byte	0x10f
 2421 0464 C3000000 		.4byte	0xc3
 2422 0468 02       		.uleb128 0x2
 2423 0469 91       		.byte	0x91
 2424 046a 58       		.sleb128 -40
 2425 046b 0F       		.uleb128 0xf
 2426 046c 6900     		.ascii	"i\000"
 2427 046e 01       		.byte	0x1
 2428 046f 1901     		.2byte	0x119
 2429 0471 C3000000 		.4byte	0xc3
 2430 0475 02       		.uleb128 0x2
 2431 0476 91       		.byte	0x91
 2432 0477 74       		.sleb128 -12
 2433 0478 0F       		.uleb128 0xf
 2434 0479 6A00     		.ascii	"j\000"
 2435 047b 01       		.byte	0x1
 2436 047c 1901     		.2byte	0x119
 2437 047e C3000000 		.4byte	0xc3
 2438 0482 02       		.uleb128 0x2
 2439 0483 91       		.byte	0x91
 2440 0484 70       		.sleb128 -16
 2441 0485 10       		.uleb128 0x10
 2442 0486 DB010000 		.4byte	.LASF66
 2443 048a 01       		.byte	0x1
 2444 048b 1901     		.2byte	0x119
 2445 048d C3000000 		.4byte	0xc3
 2446 0491 02       		.uleb128 0x2
 2447 0492 91       		.byte	0x91
 2448 0493 6C       		.sleb128 -20
 2449 0494 10       		.uleb128 0x10
 2450 0495 34020000 		.4byte	.LASF67
 2451 0499 01       		.byte	0x1
 2452 049a 1901     		.2byte	0x119
ARM GAS  C:\Users\Perro\AppData\Local\Temp\ccaxo3yg.s 			page 51


 2453 049c C3000000 		.4byte	0xc3
 2454 04a0 02       		.uleb128 0x2
 2455 04a1 91       		.byte	0x91
 2456 04a2 68       		.sleb128 -24
 2457 04a3 00       		.byte	0
 2458 04a4 11       		.uleb128 0x11
 2459 04a5 93010000 		.4byte	.LASF68
 2460 04a9 01       		.byte	0x1
 2461 04aa 2C01     		.2byte	0x12c
 2462 04ac 00000000 		.4byte	.LFB67
 2463 04b0 82000000 		.4byte	.LFE67-.LFB67
 2464 04b4 01       		.uleb128 0x1
 2465 04b5 9C       		.byte	0x9c
 2466 04b6 02050000 		.4byte	0x502
 2467 04ba 0E       		.uleb128 0xe
 2468 04bb FF030000 		.4byte	.LASF58
 2469 04bf 01       		.byte	0x1
 2470 04c0 2C01     		.2byte	0x12c
 2471 04c2 FF020000 		.4byte	0x2ff
 2472 04c6 02       		.uleb128 0x2
 2473 04c7 91       		.byte	0x91
 2474 04c8 64       		.sleb128 -28
 2475 04c9 0E       		.uleb128 0xe
 2476 04ca AD040000 		.4byte	.LASF59
 2477 04ce 01       		.byte	0x1
 2478 04cf 2C01     		.2byte	0x12c
 2479 04d1 C3000000 		.4byte	0xc3
 2480 04d5 02       		.uleb128 0x2
 2481 04d6 91       		.byte	0x91
 2482 04d7 60       		.sleb128 -32
 2483 04d8 0F       		.uleb128 0xf
 2484 04d9 6900     		.ascii	"i\000"
 2485 04db 01       		.byte	0x1
 2486 04dc 3501     		.2byte	0x135
 2487 04de C3000000 		.4byte	0xc3
 2488 04e2 02       		.uleb128 0x2
 2489 04e3 91       		.byte	0x91
 2490 04e4 74       		.sleb128 -12
 2491 04e5 0F       		.uleb128 0xf
 2492 04e6 6A00     		.ascii	"j\000"
 2493 04e8 01       		.byte	0x1
 2494 04e9 3501     		.2byte	0x135
 2495 04eb C3000000 		.4byte	0xc3
 2496 04ef 02       		.uleb128 0x2
 2497 04f0 91       		.byte	0x91
 2498 04f1 70       		.sleb128 -16
 2499 04f2 10       		.uleb128 0x10
 2500 04f3 06020000 		.4byte	.LASF69
 2501 04f7 01       		.byte	0x1
 2502 04f8 3501     		.2byte	0x135
 2503 04fa C3000000 		.4byte	0xc3
 2504 04fe 02       		.uleb128 0x2
 2505 04ff 91       		.byte	0x91
 2506 0500 6C       		.sleb128 -20
 2507 0501 00       		.byte	0
 2508 0502 11       		.uleb128 0x11
 2509 0503 A5010000 		.4byte	.LASF70
ARM GAS  C:\Users\Perro\AppData\Local\Temp\ccaxo3yg.s 			page 52


 2510 0507 01       		.byte	0x1
 2511 0508 3E01     		.2byte	0x13e
 2512 050a 00000000 		.4byte	.LFB68
 2513 050e 94000000 		.4byte	.LFE68-.LFB68
 2514 0512 01       		.uleb128 0x1
 2515 0513 9C       		.byte	0x9c
 2516 0514 6F050000 		.4byte	0x56f
 2517 0518 0E       		.uleb128 0xe
 2518 0519 FF030000 		.4byte	.LASF58
 2519 051d 01       		.byte	0x1
 2520 051e 3E01     		.2byte	0x13e
 2521 0520 FF020000 		.4byte	0x2ff
 2522 0524 02       		.uleb128 0x2
 2523 0525 91       		.byte	0x91
 2524 0526 64       		.sleb128 -28
 2525 0527 0E       		.uleb128 0xe
 2526 0528 DC020000 		.4byte	.LASF71
 2527 052c 01       		.byte	0x1
 2528 052d 3E01     		.2byte	0x13e
 2529 052f FF020000 		.4byte	0x2ff
 2530 0533 02       		.uleb128 0x2
 2531 0534 91       		.byte	0x91
 2532 0535 60       		.sleb128 -32
 2533 0536 0E       		.uleb128 0xe
 2534 0537 AD040000 		.4byte	.LASF59
 2535 053b 01       		.byte	0x1
 2536 053c 3E01     		.2byte	0x13e
 2537 053e C3000000 		.4byte	0xc3
 2538 0542 02       		.uleb128 0x2
 2539 0543 91       		.byte	0x91
 2540 0544 5C       		.sleb128 -36
 2541 0545 0F       		.uleb128 0xf
 2542 0546 6900     		.ascii	"i\000"
 2543 0548 01       		.byte	0x1
 2544 0549 4701     		.2byte	0x147
 2545 054b C3000000 		.4byte	0xc3
 2546 054f 02       		.uleb128 0x2
 2547 0550 91       		.byte	0x91
 2548 0551 74       		.sleb128 -12
 2549 0552 0F       		.uleb128 0xf
 2550 0553 6A00     		.ascii	"j\000"
 2551 0555 01       		.byte	0x1
 2552 0556 4701     		.2byte	0x147
 2553 0558 C3000000 		.4byte	0xc3
 2554 055c 02       		.uleb128 0x2
 2555 055d 91       		.byte	0x91
 2556 055e 70       		.sleb128 -16
 2557 055f 10       		.uleb128 0x10
 2558 0560 06020000 		.4byte	.LASF69
 2559 0564 01       		.byte	0x1
 2560 0565 4701     		.2byte	0x147
 2561 0567 C3000000 		.4byte	0xc3
 2562 056b 02       		.uleb128 0x2
 2563 056c 91       		.byte	0x91
 2564 056d 6C       		.sleb128 -20
 2565 056e 00       		.byte	0
 2566 056f 0A       		.uleb128 0xa
ARM GAS  C:\Users\Perro\AppData\Local\Temp\ccaxo3yg.s 			page 53


 2567 0570 C3000000 		.4byte	0xc3
 2568 0574 7F050000 		.4byte	0x57f
 2569 0578 0B       		.uleb128 0xb
 2570 0579 F5000000 		.4byte	0xf5
 2571 057d 2D       		.byte	0x2d
 2572 057e 00       		.byte	0
 2573 057f 07       		.uleb128 0x7
 2574 0580 AA030000 		.4byte	.LASF72
 2575 0584 01       		.byte	0x1
 2576 0585 1E       		.byte	0x1e
 2577 0586 6F050000 		.4byte	0x56f
 2578 058a 05       		.uleb128 0x5
 2579 058b 03       		.byte	0x3
 2580 058c 00000000 		.4byte	an_dx
 2581 0590 0A       		.uleb128 0xa
 2582 0591 C3000000 		.4byte	0xc3
 2583 0595 A0050000 		.4byte	0x5a0
 2584 0599 0B       		.uleb128 0xb
 2585 059a F5000000 		.4byte	0xf5
 2586 059e 31       		.byte	0x31
 2587 059f 00       		.byte	0
 2588 05a0 07       		.uleb128 0x7
 2589 05a1 7D040000 		.4byte	.LASF73
 2590 05a5 01       		.byte	0x1
 2591 05a6 1F       		.byte	0x1f
 2592 05a7 90050000 		.4byte	0x590
 2593 05ab 05       		.uleb128 0x5
 2594 05ac 03       		.byte	0x3
 2595 05ad B8000000 		.4byte	an_x
 2596 05b1 07       		.uleb128 0x7
 2597 05b2 82040000 		.4byte	.LASF74
 2598 05b6 01       		.byte	0x1
 2599 05b7 20       		.byte	0x20
 2600 05b8 90050000 		.4byte	0x590
 2601 05bc 05       		.uleb128 0x5
 2602 05bd 03       		.byte	0x3
 2603 05be 80010000 		.4byte	an_y
 2604 05c2 12       		.uleb128 0x12
 2605 05c3 87040000 		.4byte	.LASF75
 2606 05c7 04       		.byte	0x4
 2607 05c8 1207     		.2byte	0x712
 2608 05ca CE050000 		.4byte	0x5ce
 2609 05ce 13       		.uleb128 0x13
 2610 05cf C3000000 		.4byte	0xc3
 2611 05d3 0A       		.uleb128 0xa
 2612 05d4 E3050000 		.4byte	0x5e3
 2613 05d8 E3050000 		.4byte	0x5e3
 2614 05dc 0B       		.uleb128 0xb
 2615 05dd F5000000 		.4byte	0xf5
 2616 05e1 1E       		.byte	0x1e
 2617 05e2 00       		.byte	0
 2618 05e3 14       		.uleb128 0x14
 2619 05e4 B8000000 		.4byte	0xb8
 2620 05e8 15       		.uleb128 0x15
 2621 05e9 B0030000 		.4byte	.LASF76
 2622 05ed 01       		.byte	0x1
 2623 05ee 12       		.byte	0x12
ARM GAS  C:\Users\Perro\AppData\Local\Temp\ccaxo3yg.s 			page 54


 2624 05ef F9050000 		.4byte	0x5f9
 2625 05f3 05       		.uleb128 0x5
 2626 05f4 03       		.byte	0x3
 2627 05f5 00000000 		.4byte	auw_hamm
 2628 05f9 14       		.uleb128 0x14
 2629 05fa D3050000 		.4byte	0x5d3
 2630 05fe 0A       		.uleb128 0xa
 2631 05ff 0E060000 		.4byte	0x60e
 2632 0603 0E060000 		.4byte	0x60e
 2633 0607 0B       		.uleb128 0xb
 2634 0608 F5000000 		.4byte	0xf5
 2635 060c B7       		.byte	0xb7
 2636 060d 00       		.byte	0
 2637 060e 14       		.uleb128 0x14
 2638 060f AD000000 		.4byte	0xad
 2639 0613 15       		.uleb128 0x15
 2640 0614 87030000 		.4byte	.LASF77
 2641 0618 01       		.byte	0x1
 2642 0619 14       		.byte	0x14
 2643 061a 24060000 		.4byte	0x624
 2644 061e 05       		.uleb128 0x5
 2645 061f 03       		.byte	0x3
 2646 0620 00000000 		.4byte	uch_spo2_table
 2647 0624 14       		.uleb128 0x14
 2648 0625 FE050000 		.4byte	0x5fe
 2649 0629 00       		.byte	0
 2650              		.section	.debug_abbrev,"",%progbits
 2651              	.Ldebug_abbrev0:
 2652 0000 01       		.uleb128 0x1
 2653 0001 11       		.uleb128 0x11
 2654 0002 01       		.byte	0x1
 2655 0003 25       		.uleb128 0x25
 2656 0004 0E       		.uleb128 0xe
 2657 0005 13       		.uleb128 0x13
 2658 0006 0B       		.uleb128 0xb
 2659 0007 03       		.uleb128 0x3
 2660 0008 0E       		.uleb128 0xe
 2661 0009 1B       		.uleb128 0x1b
 2662 000a 0E       		.uleb128 0xe
 2663 000b 55       		.uleb128 0x55
 2664 000c 17       		.uleb128 0x17
 2665 000d 11       		.uleb128 0x11
 2666 000e 01       		.uleb128 0x1
 2667 000f 10       		.uleb128 0x10
 2668 0010 17       		.uleb128 0x17
 2669 0011 00       		.byte	0
 2670 0012 00       		.byte	0
 2671 0013 02       		.uleb128 0x2
 2672 0014 16       		.uleb128 0x16
 2673 0015 00       		.byte	0
 2674 0016 03       		.uleb128 0x3
 2675 0017 0E       		.uleb128 0xe
 2676 0018 3A       		.uleb128 0x3a
 2677 0019 0B       		.uleb128 0xb
 2678 001a 3B       		.uleb128 0x3b
 2679 001b 0B       		.uleb128 0xb
 2680 001c 49       		.uleb128 0x49
ARM GAS  C:\Users\Perro\AppData\Local\Temp\ccaxo3yg.s 			page 55


 2681 001d 13       		.uleb128 0x13
 2682 001e 00       		.byte	0
 2683 001f 00       		.byte	0
 2684 0020 03       		.uleb128 0x3
 2685 0021 24       		.uleb128 0x24
 2686 0022 00       		.byte	0
 2687 0023 0B       		.uleb128 0xb
 2688 0024 0B       		.uleb128 0xb
 2689 0025 3E       		.uleb128 0x3e
 2690 0026 0B       		.uleb128 0xb
 2691 0027 03       		.uleb128 0x3
 2692 0028 0E       		.uleb128 0xe
 2693 0029 00       		.byte	0
 2694 002a 00       		.byte	0
 2695 002b 04       		.uleb128 0x4
 2696 002c 24       		.uleb128 0x24
 2697 002d 00       		.byte	0
 2698 002e 0B       		.uleb128 0xb
 2699 002f 0B       		.uleb128 0xb
 2700 0030 3E       		.uleb128 0x3e
 2701 0031 0B       		.uleb128 0xb
 2702 0032 03       		.uleb128 0x3
 2703 0033 08       		.uleb128 0x8
 2704 0034 00       		.byte	0
 2705 0035 00       		.byte	0
 2706 0036 05       		.uleb128 0x5
 2707 0037 2E       		.uleb128 0x2e
 2708 0038 01       		.byte	0x1
 2709 0039 3F       		.uleb128 0x3f
 2710 003a 19       		.uleb128 0x19
 2711 003b 03       		.uleb128 0x3
 2712 003c 0E       		.uleb128 0xe
 2713 003d 3A       		.uleb128 0x3a
 2714 003e 0B       		.uleb128 0xb
 2715 003f 3B       		.uleb128 0x3b
 2716 0040 0B       		.uleb128 0xb
 2717 0041 27       		.uleb128 0x27
 2718 0042 19       		.uleb128 0x19
 2719 0043 11       		.uleb128 0x11
 2720 0044 01       		.uleb128 0x1
 2721 0045 12       		.uleb128 0x12
 2722 0046 06       		.uleb128 0x6
 2723 0047 40       		.uleb128 0x40
 2724 0048 18       		.uleb128 0x18
 2725 0049 9642     		.uleb128 0x2116
 2726 004b 19       		.uleb128 0x19
 2727 004c 01       		.uleb128 0x1
 2728 004d 13       		.uleb128 0x13
 2729 004e 00       		.byte	0
 2730 004f 00       		.byte	0
 2731 0050 06       		.uleb128 0x6
 2732 0051 05       		.uleb128 0x5
 2733 0052 00       		.byte	0
 2734 0053 03       		.uleb128 0x3
 2735 0054 0E       		.uleb128 0xe
 2736 0055 3A       		.uleb128 0x3a
 2737 0056 0B       		.uleb128 0xb
ARM GAS  C:\Users\Perro\AppData\Local\Temp\ccaxo3yg.s 			page 56


 2738 0057 3B       		.uleb128 0x3b
 2739 0058 0B       		.uleb128 0xb
 2740 0059 49       		.uleb128 0x49
 2741 005a 13       		.uleb128 0x13
 2742 005b 02       		.uleb128 0x2
 2743 005c 18       		.uleb128 0x18
 2744 005d 00       		.byte	0
 2745 005e 00       		.byte	0
 2746 005f 07       		.uleb128 0x7
 2747 0060 34       		.uleb128 0x34
 2748 0061 00       		.byte	0
 2749 0062 03       		.uleb128 0x3
 2750 0063 0E       		.uleb128 0xe
 2751 0064 3A       		.uleb128 0x3a
 2752 0065 0B       		.uleb128 0xb
 2753 0066 3B       		.uleb128 0x3b
 2754 0067 0B       		.uleb128 0xb
 2755 0068 49       		.uleb128 0x49
 2756 0069 13       		.uleb128 0x13
 2757 006a 02       		.uleb128 0x2
 2758 006b 18       		.uleb128 0x18
 2759 006c 00       		.byte	0
 2760 006d 00       		.byte	0
 2761 006e 08       		.uleb128 0x8
 2762 006f 34       		.uleb128 0x34
 2763 0070 00       		.byte	0
 2764 0071 03       		.uleb128 0x3
 2765 0072 08       		.uleb128 0x8
 2766 0073 3A       		.uleb128 0x3a
 2767 0074 0B       		.uleb128 0xb
 2768 0075 3B       		.uleb128 0x3b
 2769 0076 0B       		.uleb128 0xb
 2770 0077 49       		.uleb128 0x49
 2771 0078 13       		.uleb128 0x13
 2772 0079 02       		.uleb128 0x2
 2773 007a 18       		.uleb128 0x18
 2774 007b 00       		.byte	0
 2775 007c 00       		.byte	0
 2776 007d 09       		.uleb128 0x9
 2777 007e 0F       		.uleb128 0xf
 2778 007f 00       		.byte	0
 2779 0080 0B       		.uleb128 0xb
 2780 0081 0B       		.uleb128 0xb
 2781 0082 49       		.uleb128 0x49
 2782 0083 13       		.uleb128 0x13
 2783 0084 00       		.byte	0
 2784 0085 00       		.byte	0
 2785 0086 0A       		.uleb128 0xa
 2786 0087 01       		.uleb128 0x1
 2787 0088 01       		.byte	0x1
 2788 0089 49       		.uleb128 0x49
 2789 008a 13       		.uleb128 0x13
 2790 008b 01       		.uleb128 0x1
 2791 008c 13       		.uleb128 0x13
 2792 008d 00       		.byte	0
 2793 008e 00       		.byte	0
 2794 008f 0B       		.uleb128 0xb
ARM GAS  C:\Users\Perro\AppData\Local\Temp\ccaxo3yg.s 			page 57


 2795 0090 21       		.uleb128 0x21
 2796 0091 00       		.byte	0
 2797 0092 49       		.uleb128 0x49
 2798 0093 13       		.uleb128 0x13
 2799 0094 2F       		.uleb128 0x2f
 2800 0095 0B       		.uleb128 0xb
 2801 0096 00       		.byte	0
 2802 0097 00       		.byte	0
 2803 0098 0C       		.uleb128 0xc
 2804 0099 2E       		.uleb128 0x2e
 2805 009a 01       		.byte	0x1
 2806 009b 3F       		.uleb128 0x3f
 2807 009c 19       		.uleb128 0x19
 2808 009d 03       		.uleb128 0x3
 2809 009e 0E       		.uleb128 0xe
 2810 009f 3A       		.uleb128 0x3a
 2811 00a0 0B       		.uleb128 0xb
 2812 00a1 3B       		.uleb128 0x3b
 2813 00a2 0B       		.uleb128 0xb
 2814 00a3 27       		.uleb128 0x27
 2815 00a4 19       		.uleb128 0x19
 2816 00a5 11       		.uleb128 0x11
 2817 00a6 01       		.uleb128 0x1
 2818 00a7 12       		.uleb128 0x12
 2819 00a8 06       		.uleb128 0x6
 2820 00a9 40       		.uleb128 0x40
 2821 00aa 18       		.uleb128 0x18
 2822 00ab 9742     		.uleb128 0x2117
 2823 00ad 19       		.uleb128 0x19
 2824 00ae 01       		.uleb128 0x1
 2825 00af 13       		.uleb128 0x13
 2826 00b0 00       		.byte	0
 2827 00b1 00       		.byte	0
 2828 00b2 0D       		.uleb128 0xd
 2829 00b3 2E       		.uleb128 0x2e
 2830 00b4 01       		.byte	0x1
 2831 00b5 3F       		.uleb128 0x3f
 2832 00b6 19       		.uleb128 0x19
 2833 00b7 03       		.uleb128 0x3
 2834 00b8 0E       		.uleb128 0xe
 2835 00b9 3A       		.uleb128 0x3a
 2836 00ba 0B       		.uleb128 0xb
 2837 00bb 3B       		.uleb128 0x3b
 2838 00bc 05       		.uleb128 0x5
 2839 00bd 27       		.uleb128 0x27
 2840 00be 19       		.uleb128 0x19
 2841 00bf 11       		.uleb128 0x11
 2842 00c0 01       		.uleb128 0x1
 2843 00c1 12       		.uleb128 0x12
 2844 00c2 06       		.uleb128 0x6
 2845 00c3 40       		.uleb128 0x40
 2846 00c4 18       		.uleb128 0x18
 2847 00c5 9642     		.uleb128 0x2116
 2848 00c7 19       		.uleb128 0x19
 2849 00c8 01       		.uleb128 0x1
 2850 00c9 13       		.uleb128 0x13
 2851 00ca 00       		.byte	0
ARM GAS  C:\Users\Perro\AppData\Local\Temp\ccaxo3yg.s 			page 58


 2852 00cb 00       		.byte	0
 2853 00cc 0E       		.uleb128 0xe
 2854 00cd 05       		.uleb128 0x5
 2855 00ce 00       		.byte	0
 2856 00cf 03       		.uleb128 0x3
 2857 00d0 0E       		.uleb128 0xe
 2858 00d1 3A       		.uleb128 0x3a
 2859 00d2 0B       		.uleb128 0xb
 2860 00d3 3B       		.uleb128 0x3b
 2861 00d4 05       		.uleb128 0x5
 2862 00d5 49       		.uleb128 0x49
 2863 00d6 13       		.uleb128 0x13
 2864 00d7 02       		.uleb128 0x2
 2865 00d8 18       		.uleb128 0x18
 2866 00d9 00       		.byte	0
 2867 00da 00       		.byte	0
 2868 00db 0F       		.uleb128 0xf
 2869 00dc 34       		.uleb128 0x34
 2870 00dd 00       		.byte	0
 2871 00de 03       		.uleb128 0x3
 2872 00df 08       		.uleb128 0x8
 2873 00e0 3A       		.uleb128 0x3a
 2874 00e1 0B       		.uleb128 0xb
 2875 00e2 3B       		.uleb128 0x3b
 2876 00e3 05       		.uleb128 0x5
 2877 00e4 49       		.uleb128 0x49
 2878 00e5 13       		.uleb128 0x13
 2879 00e6 02       		.uleb128 0x2
 2880 00e7 18       		.uleb128 0x18
 2881 00e8 00       		.byte	0
 2882 00e9 00       		.byte	0
 2883 00ea 10       		.uleb128 0x10
 2884 00eb 34       		.uleb128 0x34
 2885 00ec 00       		.byte	0
 2886 00ed 03       		.uleb128 0x3
 2887 00ee 0E       		.uleb128 0xe
 2888 00ef 3A       		.uleb128 0x3a
 2889 00f0 0B       		.uleb128 0xb
 2890 00f1 3B       		.uleb128 0x3b
 2891 00f2 05       		.uleb128 0x5
 2892 00f3 49       		.uleb128 0x49
 2893 00f4 13       		.uleb128 0x13
 2894 00f5 02       		.uleb128 0x2
 2895 00f6 18       		.uleb128 0x18
 2896 00f7 00       		.byte	0
 2897 00f8 00       		.byte	0
 2898 00f9 11       		.uleb128 0x11
 2899 00fa 2E       		.uleb128 0x2e
 2900 00fb 01       		.byte	0x1
 2901 00fc 3F       		.uleb128 0x3f
 2902 00fd 19       		.uleb128 0x19
 2903 00fe 03       		.uleb128 0x3
 2904 00ff 0E       		.uleb128 0xe
 2905 0100 3A       		.uleb128 0x3a
 2906 0101 0B       		.uleb128 0xb
 2907 0102 3B       		.uleb128 0x3b
 2908 0103 05       		.uleb128 0x5
ARM GAS  C:\Users\Perro\AppData\Local\Temp\ccaxo3yg.s 			page 59


 2909 0104 27       		.uleb128 0x27
 2910 0105 19       		.uleb128 0x19
 2911 0106 11       		.uleb128 0x11
 2912 0107 01       		.uleb128 0x1
 2913 0108 12       		.uleb128 0x12
 2914 0109 06       		.uleb128 0x6
 2915 010a 40       		.uleb128 0x40
 2916 010b 18       		.uleb128 0x18
 2917 010c 9742     		.uleb128 0x2117
 2918 010e 19       		.uleb128 0x19
 2919 010f 01       		.uleb128 0x1
 2920 0110 13       		.uleb128 0x13
 2921 0111 00       		.byte	0
 2922 0112 00       		.byte	0
 2923 0113 12       		.uleb128 0x12
 2924 0114 34       		.uleb128 0x34
 2925 0115 00       		.byte	0
 2926 0116 03       		.uleb128 0x3
 2927 0117 0E       		.uleb128 0xe
 2928 0118 3A       		.uleb128 0x3a
 2929 0119 0B       		.uleb128 0xb
 2930 011a 3B       		.uleb128 0x3b
 2931 011b 05       		.uleb128 0x5
 2932 011c 49       		.uleb128 0x49
 2933 011d 13       		.uleb128 0x13
 2934 011e 3F       		.uleb128 0x3f
 2935 011f 19       		.uleb128 0x19
 2936 0120 3C       		.uleb128 0x3c
 2937 0121 19       		.uleb128 0x19
 2938 0122 00       		.byte	0
 2939 0123 00       		.byte	0
 2940 0124 13       		.uleb128 0x13
 2941 0125 35       		.uleb128 0x35
 2942 0126 00       		.byte	0
 2943 0127 49       		.uleb128 0x49
 2944 0128 13       		.uleb128 0x13
 2945 0129 00       		.byte	0
 2946 012a 00       		.byte	0
 2947 012b 14       		.uleb128 0x14
 2948 012c 26       		.uleb128 0x26
 2949 012d 00       		.byte	0
 2950 012e 49       		.uleb128 0x49
 2951 012f 13       		.uleb128 0x13
 2952 0130 00       		.byte	0
 2953 0131 00       		.byte	0
 2954 0132 15       		.uleb128 0x15
 2955 0133 34       		.uleb128 0x34
 2956 0134 00       		.byte	0
 2957 0135 03       		.uleb128 0x3
 2958 0136 0E       		.uleb128 0xe
 2959 0137 3A       		.uleb128 0x3a
 2960 0138 0B       		.uleb128 0xb
 2961 0139 3B       		.uleb128 0x3b
 2962 013a 0B       		.uleb128 0xb
 2963 013b 49       		.uleb128 0x49
 2964 013c 13       		.uleb128 0x13
 2965 013d 3F       		.uleb128 0x3f
ARM GAS  C:\Users\Perro\AppData\Local\Temp\ccaxo3yg.s 			page 60


 2966 013e 19       		.uleb128 0x19
 2967 013f 02       		.uleb128 0x2
 2968 0140 18       		.uleb128 0x18
 2969 0141 00       		.byte	0
 2970 0142 00       		.byte	0
 2971 0143 00       		.byte	0
 2972              		.section	.debug_aranges,"",%progbits
 2973 0000 44000000 		.4byte	0x44
 2974 0004 0200     		.2byte	0x2
 2975 0006 00000000 		.4byte	.Ldebug_info0
 2976 000a 04       		.byte	0x4
 2977 000b 00       		.byte	0
 2978 000c 0000     		.2byte	0
 2979 000e 0000     		.2byte	0
 2980 0010 00000000 		.4byte	.LFB63
 2981 0014 38090000 		.4byte	.LFE63-.LFB63
 2982 0018 00000000 		.4byte	.LFB64
 2983 001c 42000000 		.4byte	.LFE64-.LFB64
 2984 0020 00000000 		.4byte	.LFB65
 2985 0024 E4000000 		.4byte	.LFE65-.LFB65
 2986 0028 00000000 		.4byte	.LFB66
 2987 002c C0000000 		.4byte	.LFE66-.LFB66
 2988 0030 00000000 		.4byte	.LFB67
 2989 0034 82000000 		.4byte	.LFE67-.LFB67
 2990 0038 00000000 		.4byte	.LFB68
 2991 003c 94000000 		.4byte	.LFE68-.LFB68
 2992 0040 00000000 		.4byte	0
 2993 0044 00000000 		.4byte	0
 2994              		.section	.debug_ranges,"",%progbits
 2995              	.Ldebug_ranges0:
 2996 0000 00000000 		.4byte	.LFB63
 2997 0004 38090000 		.4byte	.LFE63
 2998 0008 00000000 		.4byte	.LFB64
 2999 000c 42000000 		.4byte	.LFE64
 3000 0010 00000000 		.4byte	.LFB65
 3001 0014 E4000000 		.4byte	.LFE65
 3002 0018 00000000 		.4byte	.LFB66
 3003 001c C0000000 		.4byte	.LFE66
 3004 0020 00000000 		.4byte	.LFB67
 3005 0024 82000000 		.4byte	.LFE67
 3006 0028 00000000 		.4byte	.LFB68
 3007 002c 94000000 		.4byte	.LFE68
 3008 0030 00000000 		.4byte	0
 3009 0034 00000000 		.4byte	0
 3010              		.section	.debug_line,"",%progbits
 3011              	.Ldebug_line0:
 3012 0000 29040000 		.section	.debug_str,"MS",%progbits,1
 3012      02004401 
 3012      00000201 
 3012      FB0E0D00 
 3012      01010101 
 3013              	.LASF65:
 3014 0000 6D617869 		.ascii	"maxim_remove_close_peaks\000"
 3014      6D5F7265 
 3014      6D6F7665 
 3014      5F636C6F 
 3014      73655F70 
ARM GAS  C:\Users\Perro\AppData\Local\Temp\ccaxo3yg.s 			page 61


 3015              	.LASF19:
 3016 0019 666C6F61 		.ascii	"float\000"
 3016      7400
 3017              	.LASF43:
 3018 001f 6E5F795F 		.ascii	"n_y_ac\000"
 3018      616300
 3019              	.LASF42:
 3020 0026 6E5F7065 		.ascii	"n_peak_interval_sum\000"
 3020      616B5F69 
 3020      6E746572 
 3020      76616C5F 
 3020      73756D00 
 3021              	.LASF14:
 3022 003a 696E7438 		.ascii	"int8_t\000"
 3022      5F7400
 3023              	.LASF4:
 3024 0041 73686F72 		.ascii	"short int\000"
 3024      7420696E 
 3024      7400
 3025              	.LASF23:
 3026 004b 73697A65 		.ascii	"sizetype\000"
 3026      74797065 
 3026      00
 3027              	.LASF30:
 3028 0054 7063685F 		.ascii	"pch_hr_valid\000"
 3028      68725F76 
 3028      616C6964 
 3028      00
 3029              	.LASF80:
 3030 0061 433A5C55 		.ascii	"C:\\Users\\Perro\\Desktop\\AY2122_II_Project-1\\Pro"
 3030      73657273 
 3030      5C506572 
 3030      726F5C44 
 3030      65736B74 
 3031 008f 6A656374 		.ascii	"ject_LTEBS\\Saturimetro.cydsn\000"
 3031      5F4C5445 
 3031      42535C53 
 3031      61747572 
 3031      696D6574 
 3032              	.LASF40:
 3033 00ac 616E5F65 		.ascii	"an_exact_ir_valley_locs\000"
 3033      78616374 
 3033      5F69725F 
 3033      76616C6C 
 3033      65795F6C 
 3034              	.LASF55:
 3035 00c4 6D617869 		.ascii	"maxim_find_peaks\000"
 3035      6D5F6669 
 3035      6E645F70 
 3035      65616B73 
 3035      00
 3036              	.LASF78:
 3037 00d5 474E5520 		.ascii	"GNU C11 5.4.1 20160609 (release) [ARM/embedded-5-br"
 3037      43313120 
 3037      352E342E 
 3037      31203230 
 3037      31363036 
ARM GAS  C:\Users\Perro\AppData\Local\Temp\ccaxo3yg.s 			page 62


 3038 0108 616E6368 		.ascii	"anch revision 237715] -mcpu=cortex-m3 -mthumb -g -O"
 3038      20726576 
 3038      6973696F 
 3038      6E203233 
 3038      37373135 
 3039 013b 30202D66 		.ascii	"0 -ffunction-sections -ffat-lto-objects\000"
 3039      66756E63 
 3039      74696F6E 
 3039      2D736563 
 3039      74696F6E 
 3040              	.LASF35:
 3041 0163 6E5F6D69 		.ascii	"n_middle_idx\000"
 3041      64646C65 
 3041      5F696478 
 3041      00
 3042              	.LASF45:
 3043 0170 6E5F7370 		.ascii	"n_spo2_calc\000"
 3043      6F325F63 
 3043      616C6300 
 3044              	.LASF22:
 3045 017c 6C6F6E67 		.ascii	"long double\000"
 3045      20646F75 
 3045      626C6500 
 3046              	.LASF9:
 3047 0188 5F5F7569 		.ascii	"__uint32_t\000"
 3047      6E743332 
 3047      5F7400
 3048              	.LASF68:
 3049 0193 6D617869 		.ascii	"maxim_sort_ascend\000"
 3049      6D5F736F 
 3049      72745F61 
 3049      7363656E 
 3049      6400
 3050              	.LASF70:
 3051 01a5 6D617869 		.ascii	"maxim_sort_indices_descend\000"
 3051      6D5F736F 
 3051      72745F69 
 3051      6E646963 
 3051      65735F64 
 3052              	.LASF5:
 3053 01c0 5F5F7569 		.ascii	"__uint16_t\000"
 3053      6E743136 
 3053      5F7400
 3054              	.LASF15:
 3055 01cb 75696E74 		.ascii	"uint8_t\000"
 3055      385F7400 
 3056              	.LASF38:
 3057 01d3 6E5F635F 		.ascii	"n_c_min\000"
 3057      6D696E00 
 3058              	.LASF66:
 3059 01db 6E5F6F6C 		.ascii	"n_old_npks\000"
 3059      645F6E70 
 3059      6B7300
 3060              	.LASF39:
 3061 01e6 616E5F69 		.ascii	"an_ir_valley_locs\000"
 3061      725F7661 
 3061      6C6C6579 
ARM GAS  C:\Users\Perro\AppData\Local\Temp\ccaxo3yg.s 			page 63


 3061      5F6C6F63 
 3061      7300
 3062              	.LASF24:
 3063 01f8 70756E5F 		.ascii	"pun_ir_buffer\000"
 3063      69725F62 
 3063      75666665 
 3063      7200
 3064              	.LASF69:
 3065 0206 6E5F7465 		.ascii	"n_temp\000"
 3065      6D7000
 3066              	.LASF54:
 3067 020d 6D617869 		.ascii	"maxim_heart_rate_and_oxygen_saturation\000"
 3067      6D5F6865 
 3067      6172745F 
 3067      72617465 
 3067      5F616E64 
 3068              	.LASF67:
 3069 0234 6E5F6469 		.ascii	"n_dist\000"
 3069      737400
 3070              	.LASF33:
 3071 023b 6E5F695F 		.ascii	"n_i_ratio_count\000"
 3071      72617469 
 3071      6F5F636F 
 3071      756E7400 
 3072              	.LASF26:
 3073 024b 70756E5F 		.ascii	"pun_red_buffer\000"
 3073      7265645F 
 3073      62756666 
 3073      657200
 3074              	.LASF79:
 3075 025a 616C676F 		.ascii	"algorithm.c\000"
 3075      72697468 
 3075      6D2E6300 
 3076              	.LASF11:
 3077 0266 6C6F6E67 		.ascii	"long long int\000"
 3077      206C6F6E 
 3077      6720696E 
 3077      7400
 3078              	.LASF8:
 3079 0274 6C6F6E67 		.ascii	"long int\000"
 3079      20696E74 
 3079      00
 3080              	.LASF28:
 3081 027d 7063685F 		.ascii	"pch_spo2_valid\000"
 3081      73706F32 
 3081      5F76616C 
 3081      696400
 3082              	.LASF29:
 3083 028c 706E5F68 		.ascii	"pn_heart_rate\000"
 3083      65617274 
 3083      5F726174 
 3083      6500
 3084              	.LASF57:
 3085 029a 706E5F6E 		.ascii	"pn_npks\000"
 3085      706B7300 
 3086              	.LASF34:
 3087 02a2 6E5F6578 		.ascii	"n_exact_ir_valley_locs_count\000"
ARM GAS  C:\Users\Perro\AppData\Local\Temp\ccaxo3yg.s 			page 64


 3087      6163745F 
 3087      69725F76 
 3087      616C6C65 
 3087      795F6C6F 
 3088              	.LASF48:
 3089 02bf 6E5F795F 		.ascii	"n_y_dc_max_idx\000"
 3089      64635F6D 
 3089      61785F69 
 3089      647800
 3090              	.LASF3:
 3091 02ce 756E7369 		.ascii	"unsigned char\000"
 3091      676E6564 
 3091      20636861 
 3091      7200
 3092              	.LASF71:
 3093 02dc 706E5F69 		.ascii	"pn_indx\000"
 3093      6E647800 
 3094              	.LASF60:
 3095 02e4 6E5F6D69 		.ascii	"n_min_height\000"
 3095      6E5F6865 
 3095      69676874 
 3095      00
 3096              	.LASF27:
 3097 02f1 706E5F73 		.ascii	"pn_spo2\000"
 3097      706F3200 
 3098              	.LASF47:
 3099 02f9 6E5F785F 		.ascii	"n_x_dc_max\000"
 3099      64635F6D 
 3099      617800
 3100              	.LASF12:
 3101 0304 6C6F6E67 		.ascii	"long long unsigned int\000"
 3101      206C6F6E 
 3101      6720756E 
 3101      7369676E 
 3101      65642069 
 3102              	.LASF18:
 3103 031b 75696E74 		.ascii	"uint32_t\000"
 3103      33325F74 
 3103      00
 3104              	.LASF13:
 3105 0324 756E7369 		.ascii	"unsigned int\000"
 3105      676E6564 
 3105      20696E74 
 3105      00
 3106              	.LASF32:
 3107 0331 756E5F6F 		.ascii	"un_only_once\000"
 3107      6E6C795F 
 3107      6F6E6365 
 3107      00
 3108              	.LASF16:
 3109 033e 75696E74 		.ascii	"uint16_t\000"
 3109      31365F74 
 3109      00
 3110              	.LASF61:
 3111 0347 6E5F6D69 		.ascii	"n_min_distance\000"
 3111      6E5F6469 
 3111      7374616E 
ARM GAS  C:\Users\Perro\AppData\Local\Temp\ccaxo3yg.s 			page 65


 3111      636500
 3112              	.LASF6:
 3113 0356 73686F72 		.ascii	"short unsigned int\000"
 3113      7420756E 
 3113      7369676E 
 3113      65642069 
 3113      6E7400
 3114              	.LASF0:
 3115 0369 5F5F696E 		.ascii	"__int8_t\000"
 3115      74385F74 
 3115      00
 3116              	.LASF53:
 3117 0372 6E5F6465 		.ascii	"n_denom\000"
 3117      6E6F6D00 
 3118              	.LASF21:
 3119 037a 63686172 		.ascii	"char\000"
 3119      00
 3120              	.LASF17:
 3121 037f 696E7433 		.ascii	"int32_t\000"
 3121      325F7400 
 3122              	.LASF77:
 3123 0387 7563685F 		.ascii	"uch_spo2_table\000"
 3123      73706F32 
 3123      5F746162 
 3123      6C6500
 3124              	.LASF50:
 3125 0396 616E5F72 		.ascii	"an_ratio\000"
 3125      6174696F 
 3125      00
 3126              	.LASF31:
 3127 039f 756E5F69 		.ascii	"un_ir_mean\000"
 3127      725F6D65 
 3127      616E00
 3128              	.LASF72:
 3129 03aa 616E5F64 		.ascii	"an_dx\000"
 3129      7800
 3130              	.LASF76:
 3131 03b0 6175775F 		.ascii	"auw_hamm\000"
 3131      68616D6D 
 3131      00
 3132              	.LASF10:
 3133 03b9 6C6F6E67 		.ascii	"long unsigned int\000"
 3133      20756E73 
 3133      69676E65 
 3133      6420696E 
 3133      7400
 3134              	.LASF44:
 3135 03cb 6E5F785F 		.ascii	"n_x_ac\000"
 3135      616300
 3136              	.LASF36:
 3137 03d2 6E5F7468 		.ascii	"n_th1\000"
 3137      3100
 3138              	.LASF49:
 3139 03d8 6E5F785F 		.ascii	"n_x_dc_max_idx\000"
 3139      64635F6D 
 3139      61785F69 
 3139      647800
ARM GAS  C:\Users\Perro\AppData\Local\Temp\ccaxo3yg.s 			page 66


 3140              	.LASF51:
 3141 03e7 6E5F7261 		.ascii	"n_ratio_average\000"
 3141      74696F5F 
 3141      61766572 
 3141      61676500 
 3142              	.LASF64:
 3143 03f7 6E5F7769 		.ascii	"n_width\000"
 3143      64746800 
 3144              	.LASF58:
 3145 03ff 706E5F78 		.ascii	"pn_x\000"
 3145      00
 3146              	.LASF41:
 3147 0404 616E5F64 		.ascii	"an_dx_peak_locs\000"
 3147      785F7065 
 3147      616B5F6C 
 3147      6F637300 
 3148              	.LASF7:
 3149 0414 5F5F696E 		.ascii	"__int32_t\000"
 3149      7433325F 
 3149      7400
 3150              	.LASF62:
 3151 041e 6E5F6D61 		.ascii	"n_max_num\000"
 3151      785F6E75 
 3151      6D00
 3152              	.LASF2:
 3153 0428 7369676E 		.ascii	"signed char\000"
 3153      65642063 
 3153      68617200 
 3154              	.LASF52:
 3155 0434 6E5F6E75 		.ascii	"n_nume\000"
 3155      6D6500
 3156              	.LASF46:
 3157 043b 6E5F795F 		.ascii	"n_y_dc_max\000"
 3157      64635F6D 
 3157      617800
 3158              	.LASF63:
 3159 0446 6D617869 		.ascii	"maxim_peaks_above_min_height\000"
 3159      6D5F7065 
 3159      616B735F 
 3159      61626F76 
 3159      655F6D69 
 3160              	.LASF20:
 3161 0463 646F7562 		.ascii	"double\000"
 3161      6C6500
 3162              	.LASF25:
 3163 046a 6E5F6972 		.ascii	"n_ir_buffer_length\000"
 3163      5F627566 
 3163      6665725F 
 3163      6C656E67 
 3163      746800
 3164              	.LASF73:
 3165 047d 616E5F78 		.ascii	"an_x\000"
 3165      00
 3166              	.LASF74:
 3167 0482 616E5F79 		.ascii	"an_y\000"
 3167      00
 3168              	.LASF75:
ARM GAS  C:\Users\Perro\AppData\Local\Temp\ccaxo3yg.s 			page 67


 3169 0487 49544D5F 		.ascii	"ITM_RxBuffer\000"
 3169      52784275 
 3169      66666572 
 3169      00
 3170              	.LASF56:
 3171 0494 706E5F6C 		.ascii	"pn_locs\000"
 3171      6F637300 
 3172              	.LASF37:
 3173 049c 6E5F6E70 		.ascii	"n_npks\000"
 3173      6B7300
 3174              	.LASF1:
 3175 04a3 5F5F7569 		.ascii	"__uint8_t\000"
 3175      6E74385F 
 3175      7400
 3176              	.LASF59:
 3177 04ad 6E5F7369 		.ascii	"n_size\000"
 3177      7A6500
 3178              		.ident	"GCC: (GNU Tools for ARM Embedded Processors) 5.4.1 20160609 (release) [ARM/embedded-5-bran
