ARM GAS  C:\Users\Perro\AppData\Local\Temp\ccpCZqQh.s 			page 1


   1              		.syntax unified
   2              		.cpu cortex-m3
   3              		.fpu softvfp
   4              		.eabi_attribute 20, 1
   5              		.eabi_attribute 21, 1
   6              		.eabi_attribute 23, 3
   7              		.eabi_attribute 24, 1
   8              		.eabi_attribute 25, 1
   9              		.eabi_attribute 26, 1
  10              		.eabi_attribute 30, 6
  11              		.eabi_attribute 34, 1
  12              		.eabi_attribute 18, 4
  13              		.thumb
  14              		.syntax unified
  15              		.file	"HeartRate.c"
  16              		.text
  17              	.Ltext0:
  18              		.cfi_sections	.debug_frame
  19              		.global	IR_AC_Max
  20              		.data
  21              		.align	1
  22              		.type	IR_AC_Max, %object
  23              		.size	IR_AC_Max, 2
  24              	IR_AC_Max:
  25 0000 1400     		.short	20
  26              		.global	IR_AC_Min
  27              		.align	1
  28              		.type	IR_AC_Min, %object
  29              		.size	IR_AC_Min, 2
  30              	IR_AC_Min:
  31 0002 ECFF     		.short	-20
  32              		.global	IR_AC_Signal_Current
  33              		.bss
  34              		.align	1
  35              		.type	IR_AC_Signal_Current, %object
  36              		.size	IR_AC_Signal_Current, 2
  37              	IR_AC_Signal_Current:
  38 0000 0000     		.space	2
  39              		.comm	IR_AC_Signal_Previous,2,2
  40              		.global	IR_AC_Signal_min
  41              		.align	1
  42              		.type	IR_AC_Signal_min, %object
  43              		.size	IR_AC_Signal_min, 2
  44              	IR_AC_Signal_min:
  45 0002 0000     		.space	2
  46              		.global	IR_AC_Signal_max
  47              		.align	1
  48              		.type	IR_AC_Signal_max, %object
  49              		.size	IR_AC_Signal_max, 2
  50              	IR_AC_Signal_max:
  51 0004 0000     		.space	2
  52              		.comm	IR_Average_Estimated,2,2
  53              		.global	positiveEdge
  54              		.align	1
  55              		.type	positiveEdge, %object
  56              		.size	positiveEdge, 2
  57              	positiveEdge:
ARM GAS  C:\Users\Perro\AppData\Local\Temp\ccpCZqQh.s 			page 2


  58 0006 0000     		.space	2
  59              		.global	negativeEdge
  60              		.align	1
  61              		.type	negativeEdge, %object
  62              		.size	negativeEdge, 2
  63              	negativeEdge:
  64 0008 0000     		.space	2
  65              		.global	ir_avg_reg
  66 000a 0000     		.align	2
  67              		.type	ir_avg_reg, %object
  68              		.size	ir_avg_reg, 4
  69              	ir_avg_reg:
  70 000c 00000000 		.space	4
  71              		.comm	cbuf,64,4
  72              		.global	offset
  73              		.type	offset, %object
  74              		.size	offset, 1
  75              	offset:
  76 0010 00       		.space	1
  77              		.section	.rodata
  78              		.align	2
  79              		.type	FIRCoeffs, %object
  80              		.size	FIRCoeffs, 24
  81              	FIRCoeffs:
  82 0000 AC00     		.short	172
  83 0002 4101     		.short	321
  84 0004 4302     		.short	579
  85 0006 9F03     		.short	927
  86 0008 5005     		.short	1360
  87 000a 4207     		.short	1858
  88 000c 5609     		.short	2390
  89 000e 640B     		.short	2916
  90 0010 3F0D     		.short	3391
  91 0012 B80E     		.short	3768
  92 0014 AC0F     		.short	4012
  93 0016 0010     		.short	4096
  94              		.section	.text.checkForBeat,"ax",%progbits
  95              		.align	2
  96              		.global	checkForBeat
  97              		.thumb
  98              		.thumb_func
  99              		.type	checkForBeat, %function
 100              	checkForBeat:
 101              	.LFB63:
 102              		.file 1 "HeartRate.c"
   1:HeartRate.c   **** /* ========================================
   2:HeartRate.c   ****  *
   3:HeartRate.c   ****  * Copyright YOUR COMPANY, THE YEAR
   4:HeartRate.c   ****  * All Rights Reserved
   5:HeartRate.c   ****  * UNPUBLISHED, LICENSED SOFTWARE.
   6:HeartRate.c   ****  *
   7:HeartRate.c   ****  * CONFIDENTIAL AND PROPRIETARY INFORMATION
   8:HeartRate.c   ****  * WHICH IS THE PROPERTY OF your company.
   9:HeartRate.c   ****  *
  10:HeartRate.c   ****  * ========================================
  11:HeartRate.c   **** */
  12:HeartRate.c   **** 
ARM GAS  C:\Users\Perro\AppData\Local\Temp\ccpCZqQh.s 			page 3


  13:HeartRate.c   **** #include "HeartRate.h"
  14:HeartRate.c   **** 
  15:HeartRate.c   **** int16 IR_AC_Max = 20;
  16:HeartRate.c   **** int16 IR_AC_Min = -20;
  17:HeartRate.c   **** 
  18:HeartRate.c   **** int16 IR_AC_Signal_Current = 0;
  19:HeartRate.c   **** int16 IR_AC_Signal_Previous;
  20:HeartRate.c   **** int16 IR_AC_Signal_min = 0;
  21:HeartRate.c   **** int16 IR_AC_Signal_max = 0;
  22:HeartRate.c   **** int16 IR_Average_Estimated;
  23:HeartRate.c   **** 
  24:HeartRate.c   **** int16 positiveEdge = 0;
  25:HeartRate.c   **** int16 negativeEdge = 0;
  26:HeartRate.c   **** int32 ir_avg_reg = 0;
  27:HeartRate.c   **** 
  28:HeartRate.c   **** int16 cbuf[32];
  29:HeartRate.c   **** uint8 offset = 0;
  30:HeartRate.c   **** 
  31:HeartRate.c   **** static const uint16_t FIRCoeffs[12] = {172, 321, 579, 927, 1360, 1858, 2390, 2916, 3391, 3768, 4012
  32:HeartRate.c   **** 
  33:HeartRate.c   **** //  Heart Rate Monitor functions takes a sample value and the sample number
  34:HeartRate.c   **** //  Returns true if a beat is detected
  35:HeartRate.c   **** //  A running average of four samples is recommended for display on the screen.
  36:HeartRate.c   **** bool checkForBeat(int32 sample)
  37:HeartRate.c   **** 
  38:HeartRate.c   **** {
 103              		.loc 1 38 0
 104              		.cfi_startproc
 105              		@ args = 0, pretend = 0, frame = 16
 106              		@ frame_needed = 1, uses_anonymous_args = 0
 107 0000 80B5     		push	{r7, lr}
 108              		.cfi_def_cfa_offset 8
 109              		.cfi_offset 7, -8
 110              		.cfi_offset 14, -4
 111 0002 84B0     		sub	sp, sp, #16
 112              		.cfi_def_cfa_offset 24
 113 0004 00AF     		add	r7, sp, #0
 114              		.cfi_def_cfa_register 7
 115 0006 7860     		str	r0, [r7, #4]
  39:HeartRate.c   ****   bool beatDetected = false;
 116              		.loc 1 39 0
 117 0008 0023     		movs	r3, #0
 118 000a FB73     		strb	r3, [r7, #15]
  40:HeartRate.c   **** 
  41:HeartRate.c   ****   //  Save current state
  42:HeartRate.c   ****   IR_AC_Signal_Previous = IR_AC_Signal_Current;
 119              		.loc 1 42 0
 120 000c 5A4B     		ldr	r3, .L7
 121 000e B3F90020 		ldrsh	r2, [r3]
 122 0012 5A4B     		ldr	r3, .L7+4
 123 0014 1A80     		strh	r2, [r3]	@ movhi
  43:HeartRate.c   ****   
  44:HeartRate.c   ****   //This is good to view for debugging
  45:HeartRate.c   ****   //Serial.print("Signal_Current: ");
  46:HeartRate.c   ****   //Serial.println(IR_AC_Signal_Current);
  47:HeartRate.c   **** 
  48:HeartRate.c   ****   //  Process next data sample
ARM GAS  C:\Users\Perro\AppData\Local\Temp\ccpCZqQh.s 			page 4


  49:HeartRate.c   ****   IR_Average_Estimated = averageDCEstimator(&ir_avg_reg, sample);
 124              		.loc 1 49 0
 125 0016 7B68     		ldr	r3, [r7, #4]
 126 0018 9BB2     		uxth	r3, r3
 127 001a 1946     		mov	r1, r3
 128 001c 5848     		ldr	r0, .L7+8
 129 001e FFF7FEFF 		bl	averageDCEstimator
 130 0022 0346     		mov	r3, r0
 131 0024 1A46     		mov	r2, r3
 132 0026 574B     		ldr	r3, .L7+12
 133 0028 1A80     		strh	r2, [r3]	@ movhi
  50:HeartRate.c   ****   IR_AC_Signal_Current = lowPassFIRFilter(sample - IR_Average_Estimated);
 134              		.loc 1 50 0
 135 002a 7B68     		ldr	r3, [r7, #4]
 136 002c 9AB2     		uxth	r2, r3
 137 002e 554B     		ldr	r3, .L7+12
 138 0030 B3F90030 		ldrsh	r3, [r3]
 139 0034 9BB2     		uxth	r3, r3
 140 0036 D31A     		subs	r3, r2, r3
 141 0038 9BB2     		uxth	r3, r3
 142 003a 1BB2     		sxth	r3, r3
 143 003c 1846     		mov	r0, r3
 144 003e FFF7FEFF 		bl	lowPassFIRFilter
 145 0042 0346     		mov	r3, r0
 146 0044 1A46     		mov	r2, r3
 147 0046 4C4B     		ldr	r3, .L7
 148 0048 1A80     		strh	r2, [r3]	@ movhi
  51:HeartRate.c   **** 
  52:HeartRate.c   ****   //  Detect positive zero crossing (rising edge)
  53:HeartRate.c   ****   if ((IR_AC_Signal_Previous < 0) & (IR_AC_Signal_Current >= 0))
 149              		.loc 1 53 0
 150 004a 4C4B     		ldr	r3, .L7+4
 151 004c B3F90030 		ldrsh	r3, [r3]
 152 0050 9BB2     		uxth	r3, r3
 153 0052 DB0B     		lsrs	r3, r3, #15
 154 0054 DAB2     		uxtb	r2, r3
 155 0056 484B     		ldr	r3, .L7
 156 0058 B3F90030 		ldrsh	r3, [r3]
 157 005c DB43     		mvns	r3, r3
 158 005e 9BB2     		uxth	r3, r3
 159 0060 DB0B     		lsrs	r3, r3, #15
 160 0062 DBB2     		uxtb	r3, r3
 161 0064 1340     		ands	r3, r3, r2
 162 0066 DBB2     		uxtb	r3, r3
 163 0068 002B     		cmp	r3, #0
 164 006a 34D0     		beq	.L2
  54:HeartRate.c   ****   {
  55:HeartRate.c   ****   
  56:HeartRate.c   ****     IR_AC_Max = IR_AC_Signal_max; //Adjust our AC max and min
 165              		.loc 1 56 0
 166 006c 464B     		ldr	r3, .L7+16
 167 006e B3F90020 		ldrsh	r2, [r3]
 168 0072 464B     		ldr	r3, .L7+20
 169 0074 1A80     		strh	r2, [r3]	@ movhi
  57:HeartRate.c   ****     IR_AC_Min = IR_AC_Signal_min;
 170              		.loc 1 57 0
 171 0076 464B     		ldr	r3, .L7+24
ARM GAS  C:\Users\Perro\AppData\Local\Temp\ccpCZqQh.s 			page 5


 172 0078 B3F90020 		ldrsh	r2, [r3]
 173 007c 454B     		ldr	r3, .L7+28
 174 007e 1A80     		strh	r2, [r3]	@ movhi
  58:HeartRate.c   **** 
  59:HeartRate.c   ****     positiveEdge = 1;
 175              		.loc 1 59 0
 176 0080 454B     		ldr	r3, .L7+32
 177 0082 0122     		movs	r2, #1
 178 0084 1A80     		strh	r2, [r3]	@ movhi
  60:HeartRate.c   ****     negativeEdge = 0;
 179              		.loc 1 60 0
 180 0086 454B     		ldr	r3, .L7+36
 181 0088 0022     		movs	r2, #0
 182 008a 1A80     		strh	r2, [r3]	@ movhi
  61:HeartRate.c   ****     IR_AC_Signal_max = 0;
 183              		.loc 1 61 0
 184 008c 3E4B     		ldr	r3, .L7+16
 185 008e 0022     		movs	r2, #0
 186 0090 1A80     		strh	r2, [r3]	@ movhi
  62:HeartRate.c   **** 
  63:HeartRate.c   ****     //if ((IR_AC_Max - IR_AC_Min) > 100 & (IR_AC_Max - IR_AC_Min) < 1000)
  64:HeartRate.c   ****     if (((IR_AC_Max - IR_AC_Min) > 20) & ((IR_AC_Max - IR_AC_Min) < 1000))
 187              		.loc 1 64 0
 188 0092 3E4B     		ldr	r3, .L7+20
 189 0094 B3F90030 		ldrsh	r3, [r3]
 190 0098 1A46     		mov	r2, r3
 191 009a 3E4B     		ldr	r3, .L7+28
 192 009c B3F90030 		ldrsh	r3, [r3]
 193 00a0 D31A     		subs	r3, r2, r3
 194 00a2 142B     		cmp	r3, #20
 195 00a4 CCBF     		ite	gt
 196 00a6 0123     		movgt	r3, #1
 197 00a8 0023     		movle	r3, #0
 198 00aa DAB2     		uxtb	r2, r3
 199 00ac 374B     		ldr	r3, .L7+20
 200 00ae B3F90030 		ldrsh	r3, [r3]
 201 00b2 1946     		mov	r1, r3
 202 00b4 374B     		ldr	r3, .L7+28
 203 00b6 B3F90030 		ldrsh	r3, [r3]
 204 00ba CB1A     		subs	r3, r1, r3
 205 00bc 40F2E731 		movw	r1, #999
 206 00c0 8B42     		cmp	r3, r1
 207 00c2 D4BF     		ite	le
 208 00c4 0123     		movle	r3, #1
 209 00c6 0023     		movgt	r3, #0
 210 00c8 DBB2     		uxtb	r3, r3
 211 00ca 1340     		ands	r3, r3, r2
 212 00cc DBB2     		uxtb	r3, r3
 213 00ce 002B     		cmp	r3, #0
 214 00d0 01D0     		beq	.L2
  65:HeartRate.c   ****     {
  66:HeartRate.c   ****       //Heart beat!!!
  67:HeartRate.c   ****       beatDetected = true;
 215              		.loc 1 67 0
 216 00d2 0123     		movs	r3, #1
 217 00d4 FB73     		strb	r3, [r7, #15]
 218              	.L2:
ARM GAS  C:\Users\Perro\AppData\Local\Temp\ccpCZqQh.s 			page 6


  68:HeartRate.c   ****     }
  69:HeartRate.c   ****   }
  70:HeartRate.c   **** 
  71:HeartRate.c   ****   //  Detect negative zero crossing (falling edge)
  72:HeartRate.c   ****   if ((IR_AC_Signal_Previous > 0) & (IR_AC_Signal_Current <= 0))
 219              		.loc 1 72 0
 220 00d6 294B     		ldr	r3, .L7+4
 221 00d8 B3F90030 		ldrsh	r3, [r3]
 222 00dc 002B     		cmp	r3, #0
 223 00de CCBF     		ite	gt
 224 00e0 0123     		movgt	r3, #1
 225 00e2 0023     		movle	r3, #0
 226 00e4 DAB2     		uxtb	r2, r3
 227 00e6 244B     		ldr	r3, .L7
 228 00e8 B3F90030 		ldrsh	r3, [r3]
 229 00ec 002B     		cmp	r3, #0
 230 00ee D4BF     		ite	le
 231 00f0 0123     		movle	r3, #1
 232 00f2 0023     		movgt	r3, #0
 233 00f4 DBB2     		uxtb	r3, r3
 234 00f6 1340     		ands	r3, r3, r2
 235 00f8 DBB2     		uxtb	r3, r3
 236 00fa 002B     		cmp	r3, #0
 237 00fc 08D0     		beq	.L3
  73:HeartRate.c   ****   {
  74:HeartRate.c   ****     positiveEdge = 0;
 238              		.loc 1 74 0
 239 00fe 264B     		ldr	r3, .L7+32
 240 0100 0022     		movs	r2, #0
 241 0102 1A80     		strh	r2, [r3]	@ movhi
  75:HeartRate.c   ****     negativeEdge = 1;
 242              		.loc 1 75 0
 243 0104 254B     		ldr	r3, .L7+36
 244 0106 0122     		movs	r2, #1
 245 0108 1A80     		strh	r2, [r3]	@ movhi
  76:HeartRate.c   ****     IR_AC_Signal_min = 0;
 246              		.loc 1 76 0
 247 010a 214B     		ldr	r3, .L7+24
 248 010c 0022     		movs	r2, #0
 249 010e 1A80     		strh	r2, [r3]	@ movhi
 250              	.L3:
  77:HeartRate.c   ****   }
  78:HeartRate.c   **** 
  79:HeartRate.c   ****   //  Find Maximum value in positive cycle
  80:HeartRate.c   ****   if (positiveEdge & (IR_AC_Signal_Current > IR_AC_Signal_Previous))
 251              		.loc 1 80 0
 252 0110 214B     		ldr	r3, .L7+32
 253 0112 B3F90030 		ldrsh	r3, [r3]
 254 0116 1946     		mov	r1, r3
 255 0118 174B     		ldr	r3, .L7
 256 011a B3F90020 		ldrsh	r2, [r3]
 257 011e 174B     		ldr	r3, .L7+4
 258 0120 B3F90030 		ldrsh	r3, [r3]
 259 0124 9A42     		cmp	r2, r3
 260 0126 CCBF     		ite	gt
 261 0128 0123     		movgt	r3, #1
 262 012a 0023     		movle	r3, #0
ARM GAS  C:\Users\Perro\AppData\Local\Temp\ccpCZqQh.s 			page 7


 263 012c DBB2     		uxtb	r3, r3
 264 012e 0B40     		ands	r3, r3, r1
 265 0130 002B     		cmp	r3, #0
 266 0132 04D0     		beq	.L4
  81:HeartRate.c   ****   {
  82:HeartRate.c   ****     IR_AC_Signal_max = IR_AC_Signal_Current;
 267              		.loc 1 82 0
 268 0134 104B     		ldr	r3, .L7
 269 0136 B3F90020 		ldrsh	r2, [r3]
 270 013a 134B     		ldr	r3, .L7+16
 271 013c 1A80     		strh	r2, [r3]	@ movhi
 272              	.L4:
  83:HeartRate.c   ****   }
  84:HeartRate.c   **** 
  85:HeartRate.c   ****   //  Find Minimum value in negative cycle
  86:HeartRate.c   ****   if (negativeEdge & (IR_AC_Signal_Current < IR_AC_Signal_Previous))
 273              		.loc 1 86 0
 274 013e 174B     		ldr	r3, .L7+36
 275 0140 B3F90030 		ldrsh	r3, [r3]
 276 0144 1946     		mov	r1, r3
 277 0146 0C4B     		ldr	r3, .L7
 278 0148 B3F90020 		ldrsh	r2, [r3]
 279 014c 0B4B     		ldr	r3, .L7+4
 280 014e B3F90030 		ldrsh	r3, [r3]
 281 0152 9A42     		cmp	r2, r3
 282 0154 B4BF     		ite	lt
 283 0156 0123     		movlt	r3, #1
 284 0158 0023     		movge	r3, #0
 285 015a DBB2     		uxtb	r3, r3
 286 015c 0B40     		ands	r3, r3, r1
 287 015e 002B     		cmp	r3, #0
 288 0160 04D0     		beq	.L5
  87:HeartRate.c   ****   {
  88:HeartRate.c   ****     IR_AC_Signal_min = IR_AC_Signal_Current;
 289              		.loc 1 88 0
 290 0162 054B     		ldr	r3, .L7
 291 0164 B3F90020 		ldrsh	r2, [r3]
 292 0168 094B     		ldr	r3, .L7+24
 293 016a 1A80     		strh	r2, [r3]	@ movhi
 294              	.L5:
  89:HeartRate.c   ****   }
  90:HeartRate.c   ****   
  91:HeartRate.c   ****   return(beatDetected);
 295              		.loc 1 91 0
 296 016c FB7B     		ldrb	r3, [r7, #15]	@ zero_extendqisi2
  92:HeartRate.c   **** }
 297              		.loc 1 92 0
 298 016e 1846     		mov	r0, r3
 299 0170 1037     		adds	r7, r7, #16
 300              		.cfi_def_cfa_offset 8
 301 0172 BD46     		mov	sp, r7
 302              		.cfi_def_cfa_register 13
 303              		@ sp needed
 304 0174 80BD     		pop	{r7, pc}
 305              	.L8:
 306 0176 00BF     		.align	2
 307              	.L7:
ARM GAS  C:\Users\Perro\AppData\Local\Temp\ccpCZqQh.s 			page 8


 308 0178 00000000 		.word	IR_AC_Signal_Current
 309 017c 00000000 		.word	IR_AC_Signal_Previous
 310 0180 00000000 		.word	ir_avg_reg
 311 0184 00000000 		.word	IR_Average_Estimated
 312 0188 00000000 		.word	IR_AC_Signal_max
 313 018c 00000000 		.word	IR_AC_Max
 314 0190 00000000 		.word	IR_AC_Signal_min
 315 0194 00000000 		.word	IR_AC_Min
 316 0198 00000000 		.word	positiveEdge
 317 019c 00000000 		.word	negativeEdge
 318              		.cfi_endproc
 319              	.LFE63:
 320              		.size	checkForBeat, .-checkForBeat
 321              		.section	.text.averageDCEstimator,"ax",%progbits
 322              		.align	2
 323              		.global	averageDCEstimator
 324              		.thumb
 325              		.thumb_func
 326              		.type	averageDCEstimator, %function
 327              	averageDCEstimator:
 328              	.LFB64:
  93:HeartRate.c   **** 
  94:HeartRate.c   **** //  Average DC Estimator
  95:HeartRate.c   **** int16_t averageDCEstimator(int32 *p, uint16_t x)
  96:HeartRate.c   **** {
 329              		.loc 1 96 0
 330              		.cfi_startproc
 331              		@ args = 0, pretend = 0, frame = 8
 332              		@ frame_needed = 1, uses_anonymous_args = 0
 333              		@ link register save eliminated.
 334 0000 80B4     		push	{r7}
 335              		.cfi_def_cfa_offset 4
 336              		.cfi_offset 7, -4
 337 0002 83B0     		sub	sp, sp, #12
 338              		.cfi_def_cfa_offset 16
 339 0004 00AF     		add	r7, sp, #0
 340              		.cfi_def_cfa_register 7
 341 0006 7860     		str	r0, [r7, #4]
 342 0008 0B46     		mov	r3, r1
 343 000a 7B80     		strh	r3, [r7, #2]	@ movhi
  97:HeartRate.c   ****   *p += ((((long) x << 15) - *p) >> 4);
 344              		.loc 1 97 0
 345 000c 7B68     		ldr	r3, [r7, #4]
 346 000e 1A68     		ldr	r2, [r3]
 347 0010 7B88     		ldrh	r3, [r7, #2]
 348 0012 D903     		lsls	r1, r3, #15
 349 0014 7B68     		ldr	r3, [r7, #4]
 350 0016 1B68     		ldr	r3, [r3]
 351 0018 CB1A     		subs	r3, r1, r3
 352 001a 1B11     		asrs	r3, r3, #4
 353 001c 1A44     		add	r2, r2, r3
 354 001e 7B68     		ldr	r3, [r7, #4]
 355 0020 1A60     		str	r2, [r3]
  98:HeartRate.c   ****   return (*p >> 15);
 356              		.loc 1 98 0
 357 0022 7B68     		ldr	r3, [r7, #4]
 358 0024 1B68     		ldr	r3, [r3]
ARM GAS  C:\Users\Perro\AppData\Local\Temp\ccpCZqQh.s 			page 9


 359 0026 DB13     		asrs	r3, r3, #15
 360 0028 1BB2     		sxth	r3, r3
  99:HeartRate.c   **** }
 361              		.loc 1 99 0
 362 002a 1846     		mov	r0, r3
 363 002c 0C37     		adds	r7, r7, #12
 364              		.cfi_def_cfa_offset 4
 365 002e BD46     		mov	sp, r7
 366              		.cfi_def_cfa_register 13
 367              		@ sp needed
 368 0030 80BC     		pop	{r7}
 369              		.cfi_restore 7
 370              		.cfi_def_cfa_offset 0
 371 0032 7047     		bx	lr
 372              		.cfi_endproc
 373              	.LFE64:
 374              		.size	averageDCEstimator, .-averageDCEstimator
 375              		.section	.text.lowPassFIRFilter,"ax",%progbits
 376              		.align	2
 377              		.global	lowPassFIRFilter
 378              		.thumb
 379              		.thumb_func
 380              		.type	lowPassFIRFilter, %function
 381              	lowPassFIRFilter:
 382              	.LFB65:
 100:HeartRate.c   **** 
 101:HeartRate.c   **** //  Low Pass FIR Filter
 102:HeartRate.c   **** int16_t lowPassFIRFilter(int16 din)
 103:HeartRate.c   **** {  
 383              		.loc 1 103 0
 384              		.cfi_startproc
 385              		@ args = 0, pretend = 0, frame = 16
 386              		@ frame_needed = 1, uses_anonymous_args = 0
 387 0000 80B5     		push	{r7, lr}
 388              		.cfi_def_cfa_offset 8
 389              		.cfi_offset 7, -8
 390              		.cfi_offset 14, -4
 391 0002 84B0     		sub	sp, sp, #16
 392              		.cfi_def_cfa_offset 24
 393 0004 00AF     		add	r7, sp, #0
 394              		.cfi_def_cfa_register 7
 395 0006 0346     		mov	r3, r0
 396 0008 FB80     		strh	r3, [r7, #6]	@ movhi
 104:HeartRate.c   ****   cbuf[offset] = din;
 397              		.loc 1 104 0
 398 000a 2C4B     		ldr	r3, .L15
 399 000c 1B78     		ldrb	r3, [r3]	@ zero_extendqisi2
 400 000e 1946     		mov	r1, r3
 401 0010 2B4A     		ldr	r2, .L15+4
 402 0012 FB88     		ldrh	r3, [r7, #6]	@ movhi
 403 0014 22F81130 		strh	r3, [r2, r1, lsl #1]	@ movhi
 105:HeartRate.c   **** 
 106:HeartRate.c   ****   int32_t z = mul16(FIRCoeffs[11], cbuf[(offset - 11) & 0x1F]);
 404              		.loc 1 106 0
 405 0018 4FF48053 		mov	r3, #4096
 406 001c 18B2     		sxth	r0, r3
 407 001e 274B     		ldr	r3, .L15
ARM GAS  C:\Users\Perro\AppData\Local\Temp\ccpCZqQh.s 			page 10


 408 0020 1B78     		ldrb	r3, [r3]	@ zero_extendqisi2
 409 0022 0B3B     		subs	r3, r3, #11
 410 0024 03F01F03 		and	r3, r3, #31
 411 0028 254A     		ldr	r2, .L15+4
 412 002a 32F91330 		ldrsh	r3, [r2, r3, lsl #1]
 413 002e 1946     		mov	r1, r3
 414 0030 FFF7FEFF 		bl	mul16
 415 0034 F860     		str	r0, [r7, #12]
 416              	.LBB2:
 107:HeartRate.c   ****   
 108:HeartRate.c   ****   for (uint8 i = 0 ; i < 11 ; i++)
 417              		.loc 1 108 0
 418 0036 0023     		movs	r3, #0
 419 0038 FB72     		strb	r3, [r7, #11]
 420 003a 28E0     		b	.L12
 421              	.L13:
 109:HeartRate.c   ****   {
 110:HeartRate.c   ****     z += mul16(FIRCoeffs[i], cbuf[(offset - i) & 0x1F] + cbuf[(offset - 22 + i) & 0x1F]);
 422              		.loc 1 110 0 discriminator 3
 423 003c FB7A     		ldrb	r3, [r7, #11]	@ zero_extendqisi2
 424 003e 214A     		ldr	r2, .L15+8
 425 0040 32F81330 		ldrh	r3, [r2, r3, lsl #1]
 426 0044 18B2     		sxth	r0, r3
 427 0046 1D4B     		ldr	r3, .L15
 428 0048 1B78     		ldrb	r3, [r3]	@ zero_extendqisi2
 429 004a 1A46     		mov	r2, r3
 430 004c FB7A     		ldrb	r3, [r7, #11]	@ zero_extendqisi2
 431 004e D31A     		subs	r3, r2, r3
 432 0050 03F01F03 		and	r3, r3, #31
 433 0054 1A4A     		ldr	r2, .L15+4
 434 0056 32F91330 		ldrsh	r3, [r2, r3, lsl #1]
 435 005a 9AB2     		uxth	r2, r3
 436 005c 174B     		ldr	r3, .L15
 437 005e 1B78     		ldrb	r3, [r3]	@ zero_extendqisi2
 438 0060 A3F11601 		sub	r1, r3, #22
 439 0064 FB7A     		ldrb	r3, [r7, #11]	@ zero_extendqisi2
 440 0066 0B44     		add	r3, r3, r1
 441 0068 03F01F03 		and	r3, r3, #31
 442 006c 1449     		ldr	r1, .L15+4
 443 006e 31F91330 		ldrsh	r3, [r1, r3, lsl #1]
 444 0072 9BB2     		uxth	r3, r3
 445 0074 1344     		add	r3, r3, r2
 446 0076 9BB2     		uxth	r3, r3
 447 0078 1BB2     		sxth	r3, r3
 448 007a 1946     		mov	r1, r3
 449 007c FFF7FEFF 		bl	mul16
 450 0080 0246     		mov	r2, r0
 451 0082 FB68     		ldr	r3, [r7, #12]
 452 0084 1344     		add	r3, r3, r2
 453 0086 FB60     		str	r3, [r7, #12]
 108:HeartRate.c   ****   {
 454              		.loc 1 108 0 discriminator 3
 455 0088 FB7A     		ldrb	r3, [r7, #11]	@ zero_extendqisi2
 456 008a 0133     		adds	r3, r3, #1
 457 008c FB72     		strb	r3, [r7, #11]
 458              	.L12:
 108:HeartRate.c   ****   {
ARM GAS  C:\Users\Perro\AppData\Local\Temp\ccpCZqQh.s 			page 11


 459              		.loc 1 108 0 is_stmt 0 discriminator 1
 460 008e FB7A     		ldrb	r3, [r7, #11]	@ zero_extendqisi2
 461 0090 0A2B     		cmp	r3, #10
 462 0092 D3D9     		bls	.L13
 463              	.LBE2:
 111:HeartRate.c   ****   }
 112:HeartRate.c   **** 
 113:HeartRate.c   ****   offset++;
 464              		.loc 1 113 0 is_stmt 1
 465 0094 094B     		ldr	r3, .L15
 466 0096 1B78     		ldrb	r3, [r3]	@ zero_extendqisi2
 467 0098 0133     		adds	r3, r3, #1
 468 009a DAB2     		uxtb	r2, r3
 469 009c 074B     		ldr	r3, .L15
 470 009e 1A70     		strb	r2, [r3]
 114:HeartRate.c   ****   offset %= 32; //Wrap condition
 471              		.loc 1 114 0
 472 00a0 064B     		ldr	r3, .L15
 473 00a2 1B78     		ldrb	r3, [r3]	@ zero_extendqisi2
 474 00a4 03F01F03 		and	r3, r3, #31
 475 00a8 DAB2     		uxtb	r2, r3
 476 00aa 044B     		ldr	r3, .L15
 477 00ac 1A70     		strb	r2, [r3]
 115:HeartRate.c   **** 
 116:HeartRate.c   ****   return(z >> 15);
 478              		.loc 1 116 0
 479 00ae FB68     		ldr	r3, [r7, #12]
 480 00b0 DB13     		asrs	r3, r3, #15
 481 00b2 1BB2     		sxth	r3, r3
 117:HeartRate.c   **** }
 482              		.loc 1 117 0
 483 00b4 1846     		mov	r0, r3
 484 00b6 1037     		adds	r7, r7, #16
 485              		.cfi_def_cfa_offset 8
 486 00b8 BD46     		mov	sp, r7
 487              		.cfi_def_cfa_register 13
 488              		@ sp needed
 489 00ba 80BD     		pop	{r7, pc}
 490              	.L16:
 491              		.align	2
 492              	.L15:
 493 00bc 00000000 		.word	offset
 494 00c0 00000000 		.word	cbuf
 495 00c4 00000000 		.word	FIRCoeffs
 496              		.cfi_endproc
 497              	.LFE65:
 498              		.size	lowPassFIRFilter, .-lowPassFIRFilter
 499              		.section	.text.mul16,"ax",%progbits
 500              		.align	2
 501              		.global	mul16
 502              		.thumb
 503              		.thumb_func
 504              		.type	mul16, %function
 505              	mul16:
 506              	.LFB66:
 118:HeartRate.c   **** 
 119:HeartRate.c   **** //  Integer multiplier
ARM GAS  C:\Users\Perro\AppData\Local\Temp\ccpCZqQh.s 			page 12


 120:HeartRate.c   **** int32 mul16(int16 x, int16 y)
 121:HeartRate.c   **** {
 507              		.loc 1 121 0
 508              		.cfi_startproc
 509              		@ args = 0, pretend = 0, frame = 8
 510              		@ frame_needed = 1, uses_anonymous_args = 0
 511              		@ link register save eliminated.
 512 0000 80B4     		push	{r7}
 513              		.cfi_def_cfa_offset 4
 514              		.cfi_offset 7, -4
 515 0002 83B0     		sub	sp, sp, #12
 516              		.cfi_def_cfa_offset 16
 517 0004 00AF     		add	r7, sp, #0
 518              		.cfi_def_cfa_register 7
 519 0006 0346     		mov	r3, r0
 520 0008 0A46     		mov	r2, r1
 521 000a FB80     		strh	r3, [r7, #6]	@ movhi
 522 000c 1346     		mov	r3, r2	@ movhi
 523 000e BB80     		strh	r3, [r7, #4]	@ movhi
 122:HeartRate.c   ****   return((long)x * (long)y);
 524              		.loc 1 122 0
 525 0010 B7F90630 		ldrsh	r3, [r7, #6]
 526 0014 B7F90420 		ldrsh	r2, [r7, #4]
 527 0018 02FB03F3 		mul	r3, r2, r3
 123:HeartRate.c   **** }
 528              		.loc 1 123 0
 529 001c 1846     		mov	r0, r3
 530 001e 0C37     		adds	r7, r7, #12
 531              		.cfi_def_cfa_offset 4
 532 0020 BD46     		mov	sp, r7
 533              		.cfi_def_cfa_register 13
 534              		@ sp needed
 535 0022 80BC     		pop	{r7}
 536              		.cfi_restore 7
 537              		.cfi_def_cfa_offset 0
 538 0024 7047     		bx	lr
 539              		.cfi_endproc
 540              	.LFE66:
 541              		.size	mul16, .-mul16
 542 0026 00BF     		.text
 543              	.Letext0:
 544              		.file 2 "c:\\program files (x86)\\cypress\\psoc creator\\4.4\\psoc creator\\import\\gnu\\arm\\5.4.
 545              		.file 3 "c:\\program files (x86)\\cypress\\psoc creator\\4.4\\psoc creator\\import\\gnu\\arm\\5.4.
 546              		.file 4 "Generated_Source\\PSoC5/cytypes.h"
 547              		.file 5 "Generated_Source\\PSoC5/core_cm3.h"