ARM GAS  C:\Users\Perro\AppData\Local\Temp\ccp3yBFa.s 			page 1


   1              		.syntax unified
   2              		.cpu cortex-m3
   3              		.fpu softvfp
   4              		.eabi_attribute 20, 1
   5              		.eabi_attribute 21, 1
   6              		.eabi_attribute 23, 3
   7              		.eabi_attribute 24, 1
   8              		.eabi_attribute 25, 1
   9              		.eabi_attribute 26, 1
  10              		.eabi_attribute 30, 6
  11              		.eabi_attribute 34, 1
  12              		.eabi_attribute 18, 4
  13              		.thumb
  14              		.syntax unified
  15              		.file	"I2C_Interface.c"
  16              		.text
  17              	.Ltext0:
  18              		.cfi_sections	.debug_frame
  19              		.section	.text.I2C_Peripheral_Start,"ax",%progbits
  20              		.align	2
  21              		.global	I2C_Peripheral_Start
  22              		.thumb
  23              		.thumb_func
  24              		.type	I2C_Peripheral_Start, %function
  25              	I2C_Peripheral_Start:
  26              	.LFB0:
  27              		.file 1 "I2C_Interface.c"
   1:I2C_Interface.c **** /*
   2:I2C_Interface.c **** * This file includes all the required source code to interface
   3:I2C_Interface.c **** * the I2C peripheral.
   4:I2C_Interface.c **** */
   5:I2C_Interface.c **** 
   6:I2C_Interface.c **** 
   7:I2C_Interface.c **** #include "I2C_Interface.h" 
   8:I2C_Interface.c **** #include "I2C_Master.h"
   9:I2C_Interface.c **** 
  10:I2C_Interface.c ****     uint8_t I2C_Peripheral_Start(void) 
  11:I2C_Interface.c ****     {
  28              		.loc 1 11 0
  29              		.cfi_startproc
  30              		@ args = 0, pretend = 0, frame = 0
  31              		@ frame_needed = 1, uses_anonymous_args = 0
  32 0000 80B5     		push	{r7, lr}
  33              		.cfi_def_cfa_offset 8
  34              		.cfi_offset 7, -8
  35              		.cfi_offset 14, -4
  36 0002 00AF     		add	r7, sp, #0
  37              		.cfi_def_cfa_register 7
  12:I2C_Interface.c ****         // Start I2C peripheral
  13:I2C_Interface.c ****         I2C_Master_Start();  
  38              		.loc 1 13 0
  39 0004 FFF7FEFF 		bl	I2C_Master_Start
  14:I2C_Interface.c ****         
  15:I2C_Interface.c ****         // Return no error since start function does not return any error
  16:I2C_Interface.c ****         return I2C_NO_ERROR;
  40              		.loc 1 16 0
  41 0008 0023     		movs	r3, #0
ARM GAS  C:\Users\Perro\AppData\Local\Temp\ccp3yBFa.s 			page 2


  17:I2C_Interface.c ****     }
  42              		.loc 1 17 0
  43 000a 1846     		mov	r0, r3
  44 000c 80BD     		pop	{r7, pc}
  45              		.cfi_endproc
  46              	.LFE0:
  47              		.size	I2C_Peripheral_Start, .-I2C_Peripheral_Start
  48 000e 00BF     		.section	.text.I2C_Peripheral_Stop,"ax",%progbits
  49              		.align	2
  50              		.global	I2C_Peripheral_Stop
  51              		.thumb
  52              		.thumb_func
  53              		.type	I2C_Peripheral_Stop, %function
  54              	I2C_Peripheral_Stop:
  55              	.LFB1:
  18:I2C_Interface.c ****     
  19:I2C_Interface.c ****     
  20:I2C_Interface.c ****     uint8_t I2C_Peripheral_Stop(void)
  21:I2C_Interface.c ****     {
  56              		.loc 1 21 0
  57              		.cfi_startproc
  58              		@ args = 0, pretend = 0, frame = 0
  59              		@ frame_needed = 1, uses_anonymous_args = 0
  60 0000 80B5     		push	{r7, lr}
  61              		.cfi_def_cfa_offset 8
  62              		.cfi_offset 7, -8
  63              		.cfi_offset 14, -4
  64 0002 00AF     		add	r7, sp, #0
  65              		.cfi_def_cfa_register 7
  22:I2C_Interface.c ****         // Stop I2C peripheral
  23:I2C_Interface.c ****         I2C_Master_Stop();
  66              		.loc 1 23 0
  67 0004 FFF7FEFF 		bl	I2C_Master_Stop
  24:I2C_Interface.c ****         // Return no error since stop function does not return any error
  25:I2C_Interface.c ****         return I2C_NO_ERROR;
  68              		.loc 1 25 0
  69 0008 0023     		movs	r3, #0
  26:I2C_Interface.c ****     }
  70              		.loc 1 26 0
  71 000a 1846     		mov	r0, r3
  72 000c 80BD     		pop	{r7, pc}
  73              		.cfi_endproc
  74              	.LFE1:
  75              		.size	I2C_Peripheral_Stop, .-I2C_Peripheral_Stop
  76 000e 00BF     		.section	.text.I2C_Peripheral_SendStop,"ax",%progbits
  77              		.align	2
  78              		.global	I2C_Peripheral_SendStop
  79              		.thumb
  80              		.thumb_func
  81              		.type	I2C_Peripheral_SendStop, %function
  82              	I2C_Peripheral_SendStop:
  83              	.LFB2:
  27:I2C_Interface.c ****     
  28:I2C_Interface.c ****     uint8_t I2C_Peripheral_SendStop(void)
  29:I2C_Interface.c ****     {
  84              		.loc 1 29 0
  85              		.cfi_startproc
ARM GAS  C:\Users\Perro\AppData\Local\Temp\ccp3yBFa.s 			page 3


  86              		@ args = 0, pretend = 0, frame = 0
  87              		@ frame_needed = 1, uses_anonymous_args = 0
  88 0000 80B5     		push	{r7, lr}
  89              		.cfi_def_cfa_offset 8
  90              		.cfi_offset 7, -8
  91              		.cfi_offset 14, -4
  92 0002 00AF     		add	r7, sp, #0
  93              		.cfi_def_cfa_register 7
  30:I2C_Interface.c ****         I2C_Master_MasterSendStop();
  94              		.loc 1 30 0
  95 0004 FFF7FEFF 		bl	I2C_Master_MasterSendStop
  31:I2C_Interface.c ****         return I2C_NO_ERROR;
  96              		.loc 1 31 0
  97 0008 0023     		movs	r3, #0
  32:I2C_Interface.c ****     }
  98              		.loc 1 32 0
  99 000a 1846     		mov	r0, r3
 100 000c 80BD     		pop	{r7, pc}
 101              		.cfi_endproc
 102              	.LFE2:
 103              		.size	I2C_Peripheral_SendStop, .-I2C_Peripheral_SendStop
 104 000e 00BF     		.section	.text.I2C_Peripheral_ReadRegister,"ax",%progbits
 105              		.align	2
 106              		.global	I2C_Peripheral_ReadRegister
 107              		.thumb
 108              		.thumb_func
 109              		.type	I2C_Peripheral_ReadRegister, %function
 110              	I2C_Peripheral_ReadRegister:
 111              	.LFB3:
  33:I2C_Interface.c ****     
  34:I2C_Interface.c ****     uint8_t I2C_Peripheral_ReadRegister(uint8_t device_address, 
  35:I2C_Interface.c ****                                             uint8_t register_address,
  36:I2C_Interface.c ****                                             uint8_t* data)
  37:I2C_Interface.c ****     {
 112              		.loc 1 37 0
 113              		.cfi_startproc
 114              		@ args = 0, pretend = 0, frame = 16
 115              		@ frame_needed = 1, uses_anonymous_args = 0
 116 0000 80B5     		push	{r7, lr}
 117              		.cfi_def_cfa_offset 8
 118              		.cfi_offset 7, -8
 119              		.cfi_offset 14, -4
 120 0002 84B0     		sub	sp, sp, #16
 121              		.cfi_def_cfa_offset 24
 122 0004 00AF     		add	r7, sp, #0
 123              		.cfi_def_cfa_register 7
 124 0006 0346     		mov	r3, r0
 125 0008 3A60     		str	r2, [r7]
 126 000a FB71     		strb	r3, [r7, #7]
 127 000c 0B46     		mov	r3, r1
 128 000e BB71     		strb	r3, [r7, #6]
  38:I2C_Interface.c ****         // Send start condition
  39:I2C_Interface.c ****         uint8_t error = I2C_Master_MasterSendStart(device_address,I2C_Master_WRITE_XFER_MODE);
 129              		.loc 1 39 0
 130 0010 FB79     		ldrb	r3, [r7, #7]	@ zero_extendqisi2
 131 0012 0021     		movs	r1, #0
 132 0014 1846     		mov	r0, r3
ARM GAS  C:\Users\Perro\AppData\Local\Temp\ccp3yBFa.s 			page 4


 133 0016 FFF7FEFF 		bl	I2C_Master_MasterSendStart
 134 001a 0346     		mov	r3, r0
 135 001c FB73     		strb	r3, [r7, #15]
  40:I2C_Interface.c ****         if (error == I2C_Master_MSTR_NO_ERROR)
 136              		.loc 1 40 0
 137 001e FB7B     		ldrb	r3, [r7, #15]	@ zero_extendqisi2
 138 0020 002B     		cmp	r3, #0
 139 0022 1DD1     		bne	.L8
  41:I2C_Interface.c ****         {
  42:I2C_Interface.c ****             // Write address of register to be read
  43:I2C_Interface.c ****             error = I2C_Master_MasterWriteByte(register_address);
 140              		.loc 1 43 0
 141 0024 BB79     		ldrb	r3, [r7, #6]	@ zero_extendqisi2
 142 0026 1846     		mov	r0, r3
 143 0028 FFF7FEFF 		bl	I2C_Master_MasterWriteByte
 144 002c 0346     		mov	r3, r0
 145 002e FB73     		strb	r3, [r7, #15]
  44:I2C_Interface.c ****             if (error == I2C_Master_MSTR_NO_ERROR)
 146              		.loc 1 44 0
 147 0030 FB7B     		ldrb	r3, [r7, #15]	@ zero_extendqisi2
 148 0032 002B     		cmp	r3, #0
 149 0034 14D1     		bne	.L8
  45:I2C_Interface.c ****             {
  46:I2C_Interface.c ****                 // Send restart condition
  47:I2C_Interface.c ****                 error = I2C_Master_MasterSendRestart(device_address, I2C_Master_READ_XFER_MODE);
 150              		.loc 1 47 0
 151 0036 FB79     		ldrb	r3, [r7, #7]	@ zero_extendqisi2
 152 0038 0121     		movs	r1, #1
 153 003a 1846     		mov	r0, r3
 154 003c FFF7FEFF 		bl	I2C_Master_MasterSendRestart
 155 0040 0346     		mov	r3, r0
 156 0042 FB73     		strb	r3, [r7, #15]
  48:I2C_Interface.c ****                 if (error == I2C_Master_MSTR_NO_ERROR)
 157              		.loc 1 48 0
 158 0044 FB7B     		ldrb	r3, [r7, #15]	@ zero_extendqisi2
 159 0046 002B     		cmp	r3, #0
 160 0048 0AD1     		bne	.L8
  49:I2C_Interface.c ****                 {
  50:I2C_Interface.c ****                     // Read data without acknowledgement
  51:I2C_Interface.c ****                     *data = I2C_Master_MasterReadByte(I2C_Master_ACK_DATA);
 161              		.loc 1 51 0
 162 004a 0120     		movs	r0, #1
 163 004c FFF7FEFF 		bl	I2C_Master_MasterReadByte
 164 0050 0346     		mov	r3, r0
 165 0052 1A46     		mov	r2, r3
 166 0054 3B68     		ldr	r3, [r7]
 167 0056 1A70     		strb	r2, [r3]
  52:I2C_Interface.c ****                     // Send stop condition and return no error
  53:I2C_Interface.c ****                     I2C_Master_MasterSendStop();
 168              		.loc 1 53 0
 169 0058 FFF7FEFF 		bl	I2C_Master_MasterSendStop
  54:I2C_Interface.c ****                     return I2C_NO_ERROR;
 170              		.loc 1 54 0
 171 005c 0023     		movs	r3, #0
 172 005e 02E0     		b	.L9
 173              	.L8:
  55:I2C_Interface.c ****                 }
ARM GAS  C:\Users\Perro\AppData\Local\Temp\ccp3yBFa.s 			page 5


  56:I2C_Interface.c ****             }
  57:I2C_Interface.c ****         }
  58:I2C_Interface.c ****         // Send stop condition if something went wrong
  59:I2C_Interface.c ****         I2C_Master_MasterSendStop();
 174              		.loc 1 59 0
 175 0060 FFF7FEFF 		bl	I2C_Master_MasterSendStop
  60:I2C_Interface.c ****         // Return error code
  61:I2C_Interface.c ****         return I2C_DEV_NOT_FOUND;
 176              		.loc 1 61 0
 177 0064 0123     		movs	r3, #1
 178              	.L9:
  62:I2C_Interface.c ****     }
 179              		.loc 1 62 0
 180 0066 1846     		mov	r0, r3
 181 0068 1037     		adds	r7, r7, #16
 182              		.cfi_def_cfa_offset 8
 183 006a BD46     		mov	sp, r7
 184              		.cfi_def_cfa_register 13
 185              		@ sp needed
 186 006c 80BD     		pop	{r7, pc}
 187              		.cfi_endproc
 188              	.LFE3:
 189              		.size	I2C_Peripheral_ReadRegister, .-I2C_Peripheral_ReadRegister
 190 006e 00BF     		.section	.text.I2C_Peripheral_ReadRegisterMulti,"ax",%progbits
 191              		.align	2
 192              		.global	I2C_Peripheral_ReadRegisterMulti
 193              		.thumb
 194              		.thumb_func
 195              		.type	I2C_Peripheral_ReadRegisterMulti, %function
 196              	I2C_Peripheral_ReadRegisterMulti:
 197              	.LFB4:
  63:I2C_Interface.c ****     
  64:I2C_Interface.c ****     uint8_t I2C_Peripheral_ReadRegisterMulti(uint8_t device_address,
  65:I2C_Interface.c ****                                                 uint8_t register_address,
  66:I2C_Interface.c ****                                                 uint16_t register_count,
  67:I2C_Interface.c ****                                                 uint8_t* data)
  68:I2C_Interface.c ****     {
 198              		.loc 1 68 0
 199              		.cfi_startproc
 200              		@ args = 0, pretend = 0, frame = 16
 201              		@ frame_needed = 1, uses_anonymous_args = 0
 202 0000 90B5     		push	{r4, r7, lr}
 203              		.cfi_def_cfa_offset 12
 204              		.cfi_offset 4, -12
 205              		.cfi_offset 7, -8
 206              		.cfi_offset 14, -4
 207 0002 85B0     		sub	sp, sp, #20
 208              		.cfi_def_cfa_offset 32
 209 0004 00AF     		add	r7, sp, #0
 210              		.cfi_def_cfa_register 7
 211 0006 3B60     		str	r3, [r7]
 212 0008 0346     		mov	r3, r0
 213 000a FB71     		strb	r3, [r7, #7]
 214 000c 0B46     		mov	r3, r1
 215 000e BB71     		strb	r3, [r7, #6]
 216 0010 1346     		mov	r3, r2	@ movhi
 217 0012 BB80     		strh	r3, [r7, #4]	@ movhi
ARM GAS  C:\Users\Perro\AppData\Local\Temp\ccp3yBFa.s 			page 6


  69:I2C_Interface.c ****         // Send start condition
  70:I2C_Interface.c ****         uint8_t error = I2C_Master_MasterSendStart(device_address,I2C_Master_WRITE_XFER_MODE);
 218              		.loc 1 70 0
 219 0014 FB79     		ldrb	r3, [r7, #7]	@ zero_extendqisi2
 220 0016 0021     		movs	r1, #0
 221 0018 1846     		mov	r0, r3
 222 001a FFF7FEFF 		bl	I2C_Master_MasterSendStart
 223 001e 0346     		mov	r3, r0
 224 0020 7B73     		strb	r3, [r7, #13]
  71:I2C_Interface.c ****         if (error == I2C_Master_MSTR_NO_ERROR)
 225              		.loc 1 71 0
 226 0022 7B7B     		ldrb	r3, [r7, #13]	@ zero_extendqisi2
 227 0024 002B     		cmp	r3, #0
 228 0026 33D1     		bne	.L11
  72:I2C_Interface.c ****         {
  73:I2C_Interface.c ****             // Write address of register to be read with the MSB equal to 1
  74:I2C_Interface.c ****             // register_address |= 0x80;
  75:I2C_Interface.c ****             error = I2C_Master_MasterWriteByte(register_address);
 229              		.loc 1 75 0
 230 0028 BB79     		ldrb	r3, [r7, #6]	@ zero_extendqisi2
 231 002a 1846     		mov	r0, r3
 232 002c FFF7FEFF 		bl	I2C_Master_MasterWriteByte
 233 0030 0346     		mov	r3, r0
 234 0032 7B73     		strb	r3, [r7, #13]
  76:I2C_Interface.c ****             if (error == I2C_Master_MSTR_NO_ERROR)
 235              		.loc 1 76 0
 236 0034 7B7B     		ldrb	r3, [r7, #13]	@ zero_extendqisi2
 237 0036 002B     		cmp	r3, #0
 238 0038 2AD1     		bne	.L11
  77:I2C_Interface.c ****             {
  78:I2C_Interface.c ****                 // Send restart condition
  79:I2C_Interface.c ****                 error = I2C_Master_MasterSendRestart(device_address, I2C_Master_READ_XFER_MODE);
 239              		.loc 1 79 0
 240 003a FB79     		ldrb	r3, [r7, #7]	@ zero_extendqisi2
 241 003c 0121     		movs	r1, #1
 242 003e 1846     		mov	r0, r3
 243 0040 FFF7FEFF 		bl	I2C_Master_MasterSendRestart
 244 0044 0346     		mov	r3, r0
 245 0046 7B73     		strb	r3, [r7, #13]
  80:I2C_Interface.c ****                 if (error == I2C_Master_MSTR_NO_ERROR)
 246              		.loc 1 80 0
 247 0048 7B7B     		ldrb	r3, [r7, #13]	@ zero_extendqisi2
 248 004a 002B     		cmp	r3, #0
 249 004c 20D1     		bne	.L11
 250              	.LBB2:
  81:I2C_Interface.c ****                 {
  82:I2C_Interface.c ****                     // Continue reading until we have register to read
  83:I2C_Interface.c ****                     uint16_t counter = register_count;
 251              		.loc 1 83 0
 252 004e BB88     		ldrh	r3, [r7, #4]	@ movhi
 253 0050 FB81     		strh	r3, [r7, #14]	@ movhi
  84:I2C_Interface.c ****                     while(counter>1)
 254              		.loc 1 84 0
 255 0052 0DE0     		b	.L12
 256              	.L13:
  85:I2C_Interface.c ****                     {
  86:I2C_Interface.c ****                         data[register_count-counter] =
ARM GAS  C:\Users\Perro\AppData\Local\Temp\ccp3yBFa.s 			page 7


 257              		.loc 1 86 0
 258 0054 BA88     		ldrh	r2, [r7, #4]
 259 0056 FB89     		ldrh	r3, [r7, #14]
 260 0058 D31A     		subs	r3, r2, r3
 261 005a 1A46     		mov	r2, r3
 262 005c 3B68     		ldr	r3, [r7]
 263 005e 9C18     		adds	r4, r3, r2
  87:I2C_Interface.c ****                             I2C_Master_MasterReadByte(I2C_Master_ACK_DATA);
 264              		.loc 1 87 0
 265 0060 0120     		movs	r0, #1
 266 0062 FFF7FEFF 		bl	I2C_Master_MasterReadByte
 267 0066 0346     		mov	r3, r0
  86:I2C_Interface.c ****                             I2C_Master_MasterReadByte(I2C_Master_ACK_DATA);
 268              		.loc 1 86 0
 269 0068 2370     		strb	r3, [r4]
  88:I2C_Interface.c ****                         counter--;
 270              		.loc 1 88 0
 271 006a FB89     		ldrh	r3, [r7, #14]
 272 006c 013B     		subs	r3, r3, #1
 273 006e FB81     		strh	r3, [r7, #14]	@ movhi
 274              	.L12:
  84:I2C_Interface.c ****                     {
 275              		.loc 1 84 0
 276 0070 FB89     		ldrh	r3, [r7, #14]
 277 0072 012B     		cmp	r3, #1
 278 0074 EED8     		bhi	.L13
  89:I2C_Interface.c ****                     }
  90:I2C_Interface.c ****                     // Read last data without acknowledgement
  91:I2C_Interface.c ****                     data[register_count-1]
 279              		.loc 1 91 0
 280 0076 BB88     		ldrh	r3, [r7, #4]
 281 0078 013B     		subs	r3, r3, #1
 282 007a 3A68     		ldr	r2, [r7]
 283 007c D418     		adds	r4, r2, r3
  92:I2C_Interface.c ****                         = I2C_Master_MasterReadByte(I2C_Master_NAK_DATA);
 284              		.loc 1 92 0
 285 007e 0020     		movs	r0, #0
 286 0080 FFF7FEFF 		bl	I2C_Master_MasterReadByte
 287 0084 0346     		mov	r3, r0
 288 0086 2370     		strb	r3, [r4]
  93:I2C_Interface.c ****                     // Send stop condition and return no error
  94:I2C_Interface.c ****                     I2C_Master_MasterSendStop();
 289              		.loc 1 94 0
 290 0088 FFF7FEFF 		bl	I2C_Master_MasterSendStop
  95:I2C_Interface.c ****                     return I2C_NO_ERROR;
 291              		.loc 1 95 0
 292 008c 0023     		movs	r3, #0
 293 008e 02E0     		b	.L14
 294              	.L11:
 295              	.LBE2:
  96:I2C_Interface.c ****                 }
  97:I2C_Interface.c ****             }
  98:I2C_Interface.c ****         }
  99:I2C_Interface.c ****         // Send stop condition if something went wrong
 100:I2C_Interface.c ****         I2C_Master_MasterSendStop();
 296              		.loc 1 100 0
 297 0090 FFF7FEFF 		bl	I2C_Master_MasterSendStop
ARM GAS  C:\Users\Perro\AppData\Local\Temp\ccp3yBFa.s 			page 8


 101:I2C_Interface.c ****         // Return error code
 102:I2C_Interface.c ****         return I2C_DEV_NOT_FOUND;
 298              		.loc 1 102 0
 299 0094 0123     		movs	r3, #1
 300              	.L14:
 103:I2C_Interface.c ****     }
 301              		.loc 1 103 0
 302 0096 1846     		mov	r0, r3
 303 0098 1437     		adds	r7, r7, #20
 304              		.cfi_def_cfa_offset 12
 305 009a BD46     		mov	sp, r7
 306              		.cfi_def_cfa_register 13
 307              		@ sp needed
 308 009c 90BD     		pop	{r4, r7, pc}
 309              		.cfi_endproc
 310              	.LFE4:
 311              		.size	I2C_Peripheral_ReadRegisterMulti, .-I2C_Peripheral_ReadRegisterMulti
 312 009e 00BF     		.section	.text.I2C_Peripheral_ReadRegisterMultiNoAddress,"ax",%progbits
 313              		.align	2
 314              		.global	I2C_Peripheral_ReadRegisterMultiNoAddress
 315              		.thumb
 316              		.thumb_func
 317              		.type	I2C_Peripheral_ReadRegisterMultiNoAddress, %function
 318              	I2C_Peripheral_ReadRegisterMultiNoAddress:
 319              	.LFB5:
 104:I2C_Interface.c ****     
 105:I2C_Interface.c ****     uint8_t I2C_Peripheral_ReadRegisterMultiNoAddress(uint8_t device_address,
 106:I2C_Interface.c ****                                                       uint16_t register_count, 
 107:I2C_Interface.c ****                                                       uint8_t* data)
 108:I2C_Interface.c ****     {
 320              		.loc 1 108 0
 321              		.cfi_startproc
 322              		@ args = 0, pretend = 0, frame = 16
 323              		@ frame_needed = 1, uses_anonymous_args = 0
 324 0000 90B5     		push	{r4, r7, lr}
 325              		.cfi_def_cfa_offset 12
 326              		.cfi_offset 4, -12
 327              		.cfi_offset 7, -8
 328              		.cfi_offset 14, -4
 329 0002 85B0     		sub	sp, sp, #20
 330              		.cfi_def_cfa_offset 32
 331 0004 00AF     		add	r7, sp, #0
 332              		.cfi_def_cfa_register 7
 333 0006 0346     		mov	r3, r0
 334 0008 3A60     		str	r2, [r7]
 335 000a FB71     		strb	r3, [r7, #7]
 336 000c 0B46     		mov	r3, r1	@ movhi
 337 000e BB80     		strh	r3, [r7, #4]	@ movhi
 109:I2C_Interface.c ****         // Send restart condition
 110:I2C_Interface.c ****         uint8_t error = I2C_Master_MasterSendStart(device_address, I2C_Master_READ_XFER_MODE);
 338              		.loc 1 110 0
 339 0010 FB79     		ldrb	r3, [r7, #7]	@ zero_extendqisi2
 340 0012 0121     		movs	r1, #1
 341 0014 1846     		mov	r0, r3
 342 0016 FFF7FEFF 		bl	I2C_Master_MasterSendStart
 343 001a 0346     		mov	r3, r0
 344 001c 7B73     		strb	r3, [r7, #13]
ARM GAS  C:\Users\Perro\AppData\Local\Temp\ccp3yBFa.s 			page 9


 111:I2C_Interface.c ****         if (error == I2C_Master_MSTR_NO_ERROR)
 345              		.loc 1 111 0
 346 001e 7B7B     		ldrb	r3, [r7, #13]	@ zero_extendqisi2
 347 0020 002B     		cmp	r3, #0
 348 0022 20D1     		bne	.L16
 349              	.LBB3:
 112:I2C_Interface.c ****         {
 113:I2C_Interface.c ****             // Continue reading until we have register to read
 114:I2C_Interface.c ****             uint16_t counter = register_count;
 350              		.loc 1 114 0
 351 0024 BB88     		ldrh	r3, [r7, #4]	@ movhi
 352 0026 FB81     		strh	r3, [r7, #14]	@ movhi
 115:I2C_Interface.c ****             while(counter>1)
 353              		.loc 1 115 0
 354 0028 0DE0     		b	.L17
 355              	.L18:
 116:I2C_Interface.c ****             {
 117:I2C_Interface.c ****                 data[register_count-counter] =
 356              		.loc 1 117 0
 357 002a BA88     		ldrh	r2, [r7, #4]
 358 002c FB89     		ldrh	r3, [r7, #14]
 359 002e D31A     		subs	r3, r2, r3
 360 0030 1A46     		mov	r2, r3
 361 0032 3B68     		ldr	r3, [r7]
 362 0034 9C18     		adds	r4, r3, r2
 118:I2C_Interface.c ****                     I2C_Master_MasterReadByte(I2C_Master_ACK_DATA);
 363              		.loc 1 118 0
 364 0036 0120     		movs	r0, #1
 365 0038 FFF7FEFF 		bl	I2C_Master_MasterReadByte
 366 003c 0346     		mov	r3, r0
 117:I2C_Interface.c ****                     I2C_Master_MasterReadByte(I2C_Master_ACK_DATA);
 367              		.loc 1 117 0
 368 003e 2370     		strb	r3, [r4]
 119:I2C_Interface.c ****                 counter--;
 369              		.loc 1 119 0
 370 0040 FB89     		ldrh	r3, [r7, #14]
 371 0042 013B     		subs	r3, r3, #1
 372 0044 FB81     		strh	r3, [r7, #14]	@ movhi
 373              	.L17:
 115:I2C_Interface.c ****             {
 374              		.loc 1 115 0
 375 0046 FB89     		ldrh	r3, [r7, #14]
 376 0048 012B     		cmp	r3, #1
 377 004a EED8     		bhi	.L18
 120:I2C_Interface.c ****             }
 121:I2C_Interface.c ****             // Read last data without acknowledgement
 122:I2C_Interface.c ****             data[register_count-1] = I2C_Master_MasterReadByte(I2C_Master_NAK_DATA);
 378              		.loc 1 122 0
 379 004c BB88     		ldrh	r3, [r7, #4]
 380 004e 013B     		subs	r3, r3, #1
 381 0050 3A68     		ldr	r2, [r7]
 382 0052 D418     		adds	r4, r2, r3
 383 0054 0020     		movs	r0, #0
 384 0056 FFF7FEFF 		bl	I2C_Master_MasterReadByte
 385 005a 0346     		mov	r3, r0
 386 005c 2370     		strb	r3, [r4]
 123:I2C_Interface.c ****             // Send stop condition and return no error
ARM GAS  C:\Users\Perro\AppData\Local\Temp\ccp3yBFa.s 			page 10


 124:I2C_Interface.c ****             I2C_Master_MasterSendStop();
 387              		.loc 1 124 0
 388 005e FFF7FEFF 		bl	I2C_Master_MasterSendStop
 125:I2C_Interface.c ****             return I2C_NO_ERROR;
 389              		.loc 1 125 0
 390 0062 0023     		movs	r3, #0
 391 0064 02E0     		b	.L19
 392              	.L16:
 393              	.LBE3:
 126:I2C_Interface.c ****         }
 127:I2C_Interface.c ****         // Send stop condition if something went wrong
 128:I2C_Interface.c ****         I2C_Master_MasterSendStop();
 394              		.loc 1 128 0
 395 0066 FFF7FEFF 		bl	I2C_Master_MasterSendStop
 129:I2C_Interface.c ****         // Return error code
 130:I2C_Interface.c ****         return I2C_DEV_NOT_FOUND;
 396              		.loc 1 130 0
 397 006a 0123     		movs	r3, #1
 398              	.L19:
 131:I2C_Interface.c ****     }
 399              		.loc 1 131 0
 400 006c 1846     		mov	r0, r3
 401 006e 1437     		adds	r7, r7, #20
 402              		.cfi_def_cfa_offset 12
 403 0070 BD46     		mov	sp, r7
 404              		.cfi_def_cfa_register 13
 405              		@ sp needed
 406 0072 90BD     		pop	{r4, r7, pc}
 407              		.cfi_endproc
 408              	.LFE5:
 409              		.size	I2C_Peripheral_ReadRegisterMultiNoAddress, .-I2C_Peripheral_ReadRegisterMultiNoAddress
 410              		.section	.text.I2C_Peripheral_StartReadNoAddress,"ax",%progbits
 411              		.align	2
 412              		.global	I2C_Peripheral_StartReadNoAddress
 413              		.thumb
 414              		.thumb_func
 415              		.type	I2C_Peripheral_StartReadNoAddress, %function
 416              	I2C_Peripheral_StartReadNoAddress:
 417              	.LFB6:
 132:I2C_Interface.c ****     
 133:I2C_Interface.c ****     uint8_t I2C_Peripheral_StartReadNoAddress(uint8_t device_address)
 134:I2C_Interface.c ****     {
 418              		.loc 1 134 0
 419              		.cfi_startproc
 420              		@ args = 0, pretend = 0, frame = 16
 421              		@ frame_needed = 1, uses_anonymous_args = 0
 422 0000 80B5     		push	{r7, lr}
 423              		.cfi_def_cfa_offset 8
 424              		.cfi_offset 7, -8
 425              		.cfi_offset 14, -4
 426 0002 84B0     		sub	sp, sp, #16
 427              		.cfi_def_cfa_offset 24
 428 0004 00AF     		add	r7, sp, #0
 429              		.cfi_def_cfa_register 7
 430 0006 0346     		mov	r3, r0
 431 0008 FB71     		strb	r3, [r7, #7]
 135:I2C_Interface.c ****         // Send restart condition
ARM GAS  C:\Users\Perro\AppData\Local\Temp\ccp3yBFa.s 			page 11


 136:I2C_Interface.c ****         uint8_t error = I2C_Master_MasterSendStart(device_address, I2C_Master_READ_XFER_MODE);
 432              		.loc 1 136 0
 433 000a FB79     		ldrb	r3, [r7, #7]	@ zero_extendqisi2
 434 000c 0121     		movs	r1, #1
 435 000e 1846     		mov	r0, r3
 436 0010 FFF7FEFF 		bl	I2C_Master_MasterSendStart
 437 0014 0346     		mov	r3, r0
 438 0016 FB73     		strb	r3, [r7, #15]
 137:I2C_Interface.c ****         if (error == I2C_Master_MSTR_NO_ERROR)
 439              		.loc 1 137 0
 440 0018 FB7B     		ldrb	r3, [r7, #15]	@ zero_extendqisi2
 441 001a 002B     		cmp	r3, #0
 442 001c 01D1     		bne	.L21
 138:I2C_Interface.c ****         {
 139:I2C_Interface.c ****             return I2C_NO_ERROR;
 443              		.loc 1 139 0
 444 001e 0023     		movs	r3, #0
 445 0020 00E0     		b	.L22
 446              	.L21:
 140:I2C_Interface.c ****         }
 141:I2C_Interface.c ****         // Return error code
 142:I2C_Interface.c ****         return I2C_DEV_NOT_FOUND;
 447              		.loc 1 142 0
 448 0022 0123     		movs	r3, #1
 449              	.L22:
 143:I2C_Interface.c ****     }
 450              		.loc 1 143 0
 451 0024 1846     		mov	r0, r3
 452 0026 1037     		adds	r7, r7, #16
 453              		.cfi_def_cfa_offset 8
 454 0028 BD46     		mov	sp, r7
 455              		.cfi_def_cfa_register 13
 456              		@ sp needed
 457 002a 80BD     		pop	{r7, pc}
 458              		.cfi_endproc
 459              	.LFE6:
 460              		.size	I2C_Peripheral_StartReadNoAddress, .-I2C_Peripheral_StartReadNoAddress
 461              		.section	.text.I2C_Peripheral_ReadBytes,"ax",%progbits
 462              		.align	2
 463              		.global	I2C_Peripheral_ReadBytes
 464              		.thumb
 465              		.thumb_func
 466              		.type	I2C_Peripheral_ReadBytes, %function
 467              	I2C_Peripheral_ReadBytes:
 468              	.LFB7:
 144:I2C_Interface.c ****     
 145:I2C_Interface.c ****     uint8_t I2C_Peripheral_ReadBytes(uint8_t* data, uint8_t len)
 146:I2C_Interface.c ****     {
 469              		.loc 1 146 0
 470              		.cfi_startproc
 471              		@ args = 0, pretend = 0, frame = 16
 472              		@ frame_needed = 1, uses_anonymous_args = 0
 473 0000 90B5     		push	{r4, r7, lr}
 474              		.cfi_def_cfa_offset 12
 475              		.cfi_offset 4, -12
 476              		.cfi_offset 7, -8
 477              		.cfi_offset 14, -4
ARM GAS  C:\Users\Perro\AppData\Local\Temp\ccp3yBFa.s 			page 12


 478 0002 85B0     		sub	sp, sp, #20
 479              		.cfi_def_cfa_offset 32
 480 0004 00AF     		add	r7, sp, #0
 481              		.cfi_def_cfa_register 7
 482 0006 7860     		str	r0, [r7, #4]
 483 0008 0B46     		mov	r3, r1
 484 000a FB70     		strb	r3, [r7, #3]
 147:I2C_Interface.c ****         // Continue reading until we have register to read
 148:I2C_Interface.c ****         uint16_t counter = len;
 485              		.loc 1 148 0
 486 000c FB78     		ldrb	r3, [r7, #3]	@ zero_extendqisi2
 487 000e FB81     		strh	r3, [r7, #14]	@ movhi
 149:I2C_Interface.c ****         while(counter>1)
 488              		.loc 1 149 0
 489 0010 0DE0     		b	.L24
 490              	.L25:
 150:I2C_Interface.c ****         {
 151:I2C_Interface.c ****             data[len-counter] = I2C_Master_MasterReadByte(I2C_Master_ACK_DATA);
 491              		.loc 1 151 0
 492 0012 FA78     		ldrb	r2, [r7, #3]	@ zero_extendqisi2
 493 0014 FB89     		ldrh	r3, [r7, #14]
 494 0016 D31A     		subs	r3, r2, r3
 495 0018 1A46     		mov	r2, r3
 496 001a 7B68     		ldr	r3, [r7, #4]
 497 001c 9C18     		adds	r4, r3, r2
 498 001e 0120     		movs	r0, #1
 499 0020 FFF7FEFF 		bl	I2C_Master_MasterReadByte
 500 0024 0346     		mov	r3, r0
 501 0026 2370     		strb	r3, [r4]
 152:I2C_Interface.c ****             counter--;
 502              		.loc 1 152 0
 503 0028 FB89     		ldrh	r3, [r7, #14]
 504 002a 013B     		subs	r3, r3, #1
 505 002c FB81     		strh	r3, [r7, #14]	@ movhi
 506              	.L24:
 149:I2C_Interface.c ****         while(counter>1)
 507              		.loc 1 149 0
 508 002e FB89     		ldrh	r3, [r7, #14]
 509 0030 012B     		cmp	r3, #1
 510 0032 EED8     		bhi	.L25
 153:I2C_Interface.c ****         }
 154:I2C_Interface.c ****         
 155:I2C_Interface.c ****         return I2C_NO_ERROR;
 511              		.loc 1 155 0
 512 0034 0023     		movs	r3, #0
 156:I2C_Interface.c ****     }
 513              		.loc 1 156 0
 514 0036 1846     		mov	r0, r3
 515 0038 1437     		adds	r7, r7, #20
 516              		.cfi_def_cfa_offset 12
 517 003a BD46     		mov	sp, r7
 518              		.cfi_def_cfa_register 13
 519              		@ sp needed
 520 003c 90BD     		pop	{r4, r7, pc}
 521              		.cfi_endproc
 522              	.LFE7:
 523              		.size	I2C_Peripheral_ReadBytes, .-I2C_Peripheral_ReadBytes
ARM GAS  C:\Users\Perro\AppData\Local\Temp\ccp3yBFa.s 			page 13


 524 003e 00BF     		.section	.text.I2C_Peripheral_WriteRegister,"ax",%progbits
 525              		.align	2
 526              		.global	I2C_Peripheral_WriteRegister
 527              		.thumb
 528              		.thumb_func
 529              		.type	I2C_Peripheral_WriteRegister, %function
 530              	I2C_Peripheral_WriteRegister:
 531              	.LFB8:
 157:I2C_Interface.c ****     
 158:I2C_Interface.c ****     uint8_t I2C_Peripheral_WriteRegister(uint8_t device_address,
 159:I2C_Interface.c ****                                             uint8_t register_address,
 160:I2C_Interface.c ****                                             uint8_t data)
 161:I2C_Interface.c ****     {
 532              		.loc 1 161 0
 533              		.cfi_startproc
 534              		@ args = 0, pretend = 0, frame = 16
 535              		@ frame_needed = 1, uses_anonymous_args = 0
 536 0000 80B5     		push	{r7, lr}
 537              		.cfi_def_cfa_offset 8
 538              		.cfi_offset 7, -8
 539              		.cfi_offset 14, -4
 540 0002 84B0     		sub	sp, sp, #16
 541              		.cfi_def_cfa_offset 24
 542 0004 00AF     		add	r7, sp, #0
 543              		.cfi_def_cfa_register 7
 544 0006 0346     		mov	r3, r0
 545 0008 FB71     		strb	r3, [r7, #7]
 546 000a 0B46     		mov	r3, r1
 547 000c BB71     		strb	r3, [r7, #6]
 548 000e 1346     		mov	r3, r2
 549 0010 7B71     		strb	r3, [r7, #5]
 162:I2C_Interface.c ****         // Send start condition
 163:I2C_Interface.c ****         uint8_t error = I2C_Master_MasterSendStart(device_address, I2C_Master_WRITE_XFER_MODE);
 550              		.loc 1 163 0
 551 0012 FB79     		ldrb	r3, [r7, #7]	@ zero_extendqisi2
 552 0014 0021     		movs	r1, #0
 553 0016 1846     		mov	r0, r3
 554 0018 FFF7FEFF 		bl	I2C_Master_MasterSendStart
 555 001c 0346     		mov	r3, r0
 556 001e FB73     		strb	r3, [r7, #15]
 164:I2C_Interface.c ****         if (error == I2C_Master_MSTR_NO_ERROR)
 557              		.loc 1 164 0
 558 0020 FB7B     		ldrb	r3, [r7, #15]	@ zero_extendqisi2
 559 0022 002B     		cmp	r3, #0
 560 0024 15D1     		bne	.L28
 165:I2C_Interface.c ****         {
 166:I2C_Interface.c ****             // Write register address
 167:I2C_Interface.c ****             error = I2C_Master_MasterWriteByte(register_address);
 561              		.loc 1 167 0
 562 0026 BB79     		ldrb	r3, [r7, #6]	@ zero_extendqisi2
 563 0028 1846     		mov	r0, r3
 564 002a FFF7FEFF 		bl	I2C_Master_MasterWriteByte
 565 002e 0346     		mov	r3, r0
 566 0030 FB73     		strb	r3, [r7, #15]
 168:I2C_Interface.c ****             if (error == I2C_Master_MSTR_NO_ERROR)
 567              		.loc 1 168 0
 568 0032 FB7B     		ldrb	r3, [r7, #15]	@ zero_extendqisi2
ARM GAS  C:\Users\Perro\AppData\Local\Temp\ccp3yBFa.s 			page 14


 569 0034 002B     		cmp	r3, #0
 570 0036 0CD1     		bne	.L28
 169:I2C_Interface.c ****             {
 170:I2C_Interface.c ****                 // Write byte of interest
 171:I2C_Interface.c ****                 error = I2C_Master_MasterWriteByte(data);
 571              		.loc 1 171 0
 572 0038 7B79     		ldrb	r3, [r7, #5]	@ zero_extendqisi2
 573 003a 1846     		mov	r0, r3
 574 003c FFF7FEFF 		bl	I2C_Master_MasterWriteByte
 575 0040 0346     		mov	r3, r0
 576 0042 FB73     		strb	r3, [r7, #15]
 172:I2C_Interface.c ****                 if (error == I2C_Master_MSTR_NO_ERROR)
 577              		.loc 1 172 0
 578 0044 FB7B     		ldrb	r3, [r7, #15]	@ zero_extendqisi2
 579 0046 002B     		cmp	r3, #0
 580 0048 03D1     		bne	.L28
 173:I2C_Interface.c ****                 {
 174:I2C_Interface.c ****                     // Send stop condition
 175:I2C_Interface.c ****                     I2C_Master_MasterSendStop();
 581              		.loc 1 175 0
 582 004a FFF7FEFF 		bl	I2C_Master_MasterSendStop
 176:I2C_Interface.c ****                     // Return with no error
 177:I2C_Interface.c ****                     return I2C_NO_ERROR;
 583              		.loc 1 177 0
 584 004e 0023     		movs	r3, #0
 585 0050 02E0     		b	.L29
 586              	.L28:
 178:I2C_Interface.c ****                 }
 179:I2C_Interface.c ****             }
 180:I2C_Interface.c ****         }
 181:I2C_Interface.c ****         // Send stop condition in case something didn't work out correctly
 182:I2C_Interface.c ****         I2C_Master_MasterSendStop();
 587              		.loc 1 182 0
 588 0052 FFF7FEFF 		bl	I2C_Master_MasterSendStop
 183:I2C_Interface.c ****         // Return error code
 184:I2C_Interface.c ****         return I2C_DEV_NOT_FOUND;
 589              		.loc 1 184 0
 590 0056 0123     		movs	r3, #1
 591              	.L29:
 185:I2C_Interface.c ****     }
 592              		.loc 1 185 0
 593 0058 1846     		mov	r0, r3
 594 005a 1037     		adds	r7, r7, #16
 595              		.cfi_def_cfa_offset 8
 596 005c BD46     		mov	sp, r7
 597              		.cfi_def_cfa_register 13
 598              		@ sp needed
 599 005e 80BD     		pop	{r7, pc}
 600              		.cfi_endproc
 601              	.LFE8:
 602              		.size	I2C_Peripheral_WriteRegister, .-I2C_Peripheral_WriteRegister
 603              		.section	.text.I2C_Peripheral_WriteRegisterNoData,"ax",%progbits
 604              		.align	2
 605              		.global	I2C_Peripheral_WriteRegisterNoData
 606              		.thumb
 607              		.thumb_func
 608              		.type	I2C_Peripheral_WriteRegisterNoData, %function
ARM GAS  C:\Users\Perro\AppData\Local\Temp\ccp3yBFa.s 			page 15


 609              	I2C_Peripheral_WriteRegisterNoData:
 610              	.LFB9:
 186:I2C_Interface.c ****     
 187:I2C_Interface.c ****     uint8_t I2C_Peripheral_WriteRegisterNoData(uint8_t device_address,
 188:I2C_Interface.c ****                                             uint8_t register_address)
 189:I2C_Interface.c ****     {
 611              		.loc 1 189 0
 612              		.cfi_startproc
 613              		@ args = 0, pretend = 0, frame = 16
 614              		@ frame_needed = 1, uses_anonymous_args = 0
 615 0000 80B5     		push	{r7, lr}
 616              		.cfi_def_cfa_offset 8
 617              		.cfi_offset 7, -8
 618              		.cfi_offset 14, -4
 619 0002 84B0     		sub	sp, sp, #16
 620              		.cfi_def_cfa_offset 24
 621 0004 00AF     		add	r7, sp, #0
 622              		.cfi_def_cfa_register 7
 623 0006 0346     		mov	r3, r0
 624 0008 0A46     		mov	r2, r1
 625 000a FB71     		strb	r3, [r7, #7]
 626 000c 1346     		mov	r3, r2
 627 000e BB71     		strb	r3, [r7, #6]
 190:I2C_Interface.c ****         // Send start condition
 191:I2C_Interface.c ****         uint8_t error = I2C_Master_MasterSendStart(device_address, I2C_Master_WRITE_XFER_MODE);
 628              		.loc 1 191 0
 629 0010 FB79     		ldrb	r3, [r7, #7]	@ zero_extendqisi2
 630 0012 0021     		movs	r1, #0
 631 0014 1846     		mov	r0, r3
 632 0016 FFF7FEFF 		bl	I2C_Master_MasterSendStart
 633 001a 0346     		mov	r3, r0
 634 001c FB73     		strb	r3, [r7, #15]
 192:I2C_Interface.c ****         if (error == I2C_Master_MSTR_NO_ERROR)
 635              		.loc 1 192 0
 636 001e FB7B     		ldrb	r3, [r7, #15]	@ zero_extendqisi2
 637 0020 002B     		cmp	r3, #0
 638 0022 0CD1     		bne	.L31
 193:I2C_Interface.c ****         {
 194:I2C_Interface.c ****             // Write register address
 195:I2C_Interface.c ****             error = I2C_Master_MasterWriteByte(register_address);
 639              		.loc 1 195 0
 640 0024 BB79     		ldrb	r3, [r7, #6]	@ zero_extendqisi2
 641 0026 1846     		mov	r0, r3
 642 0028 FFF7FEFF 		bl	I2C_Master_MasterWriteByte
 643 002c 0346     		mov	r3, r0
 644 002e FB73     		strb	r3, [r7, #15]
 196:I2C_Interface.c ****             if (error == I2C_Master_MSTR_NO_ERROR)
 645              		.loc 1 196 0
 646 0030 FB7B     		ldrb	r3, [r7, #15]	@ zero_extendqisi2
 647 0032 002B     		cmp	r3, #0
 648 0034 03D1     		bne	.L31
 197:I2C_Interface.c ****             {
 198:I2C_Interface.c ****                 // Send stop condition
 199:I2C_Interface.c ****                 I2C_Master_MasterSendStop();
 649              		.loc 1 199 0
 650 0036 FFF7FEFF 		bl	I2C_Master_MasterSendStop
 200:I2C_Interface.c ****                 // Return with no error
ARM GAS  C:\Users\Perro\AppData\Local\Temp\ccp3yBFa.s 			page 16


 201:I2C_Interface.c ****                 return I2C_NO_ERROR;
 651              		.loc 1 201 0
 652 003a 0023     		movs	r3, #0
 653 003c 02E0     		b	.L32
 654              	.L31:
 202:I2C_Interface.c ****                 
 203:I2C_Interface.c ****             }
 204:I2C_Interface.c ****         }
 205:I2C_Interface.c ****         // Send stop condition in case something didn't work out correctly
 206:I2C_Interface.c ****         I2C_Master_MasterSendStop();
 655              		.loc 1 206 0
 656 003e FFF7FEFF 		bl	I2C_Master_MasterSendStop
 207:I2C_Interface.c ****         // Return error code
 208:I2C_Interface.c ****         return I2C_DEV_NOT_FOUND;
 657              		.loc 1 208 0
 658 0042 0123     		movs	r3, #1
 659              	.L32:
 209:I2C_Interface.c ****     }
 660              		.loc 1 209 0
 661 0044 1846     		mov	r0, r3
 662 0046 1037     		adds	r7, r7, #16
 663              		.cfi_def_cfa_offset 8
 664 0048 BD46     		mov	sp, r7
 665              		.cfi_def_cfa_register 13
 666              		@ sp needed
 667 004a 80BD     		pop	{r7, pc}
 668              		.cfi_endproc
 669              	.LFE9:
 670              		.size	I2C_Peripheral_WriteRegisterNoData, .-I2C_Peripheral_WriteRegisterNoData
 671              		.section	.text.I2C_Peripheral_WriteRegisterMulti,"ax",%progbits
 672              		.align	2
 673              		.global	I2C_Peripheral_WriteRegisterMulti
 674              		.thumb
 675              		.thumb_func
 676              		.type	I2C_Peripheral_WriteRegisterMulti, %function
 677              	I2C_Peripheral_WriteRegisterMulti:
 678              	.LFB10:
 210:I2C_Interface.c ****     
 211:I2C_Interface.c ****     uint8_t I2C_Peripheral_WriteRegisterMulti(uint8_t device_address,
 212:I2C_Interface.c ****                                             uint8_t register_address,
 213:I2C_Interface.c ****                                             uint8_t register_count,
 214:I2C_Interface.c ****                                             uint8_t* data)
 215:I2C_Interface.c ****     {
 679              		.loc 1 215 0
 680              		.cfi_startproc
 681              		@ args = 0, pretend = 0, frame = 16
 682              		@ frame_needed = 1, uses_anonymous_args = 0
 683 0000 80B5     		push	{r7, lr}
 684              		.cfi_def_cfa_offset 8
 685              		.cfi_offset 7, -8
 686              		.cfi_offset 14, -4
 687 0002 84B0     		sub	sp, sp, #16
 688              		.cfi_def_cfa_offset 24
 689 0004 00AF     		add	r7, sp, #0
 690              		.cfi_def_cfa_register 7
 691 0006 3B60     		str	r3, [r7]
 692 0008 0346     		mov	r3, r0
ARM GAS  C:\Users\Perro\AppData\Local\Temp\ccp3yBFa.s 			page 17


 693 000a FB71     		strb	r3, [r7, #7]
 694 000c 0B46     		mov	r3, r1
 695 000e BB71     		strb	r3, [r7, #6]
 696 0010 1346     		mov	r3, r2
 697 0012 7B71     		strb	r3, [r7, #5]
 216:I2C_Interface.c ****         // Send start condition
 217:I2C_Interface.c ****         uint8_t error = I2C_Master_MasterSendStart(device_address, I2C_Master_WRITE_XFER_MODE);
 698              		.loc 1 217 0
 699 0014 FB79     		ldrb	r3, [r7, #7]	@ zero_extendqisi2
 700 0016 0021     		movs	r1, #0
 701 0018 1846     		mov	r0, r3
 702 001a FFF7FEFF 		bl	I2C_Master_MasterSendStart
 703 001e 0346     		mov	r3, r0
 704 0020 BB73     		strb	r3, [r7, #14]
 218:I2C_Interface.c ****         if (error == I2C_Master_MSTR_NO_ERROR)
 705              		.loc 1 218 0
 706 0022 BB7B     		ldrb	r3, [r7, #14]	@ zero_extendqisi2
 707 0024 002B     		cmp	r3, #0
 708 0026 28D1     		bne	.L34
 219:I2C_Interface.c ****         {
 220:I2C_Interface.c ****             // Write register address
 221:I2C_Interface.c ****             error = I2C_Master_MasterWriteByte(register_address);
 709              		.loc 1 221 0
 710 0028 BB79     		ldrb	r3, [r7, #6]	@ zero_extendqisi2
 711 002a 1846     		mov	r0, r3
 712 002c FFF7FEFF 		bl	I2C_Master_MasterWriteByte
 713 0030 0346     		mov	r3, r0
 714 0032 BB73     		strb	r3, [r7, #14]
 222:I2C_Interface.c ****             if (error == I2C_Master_MSTR_NO_ERROR)
 715              		.loc 1 222 0
 716 0034 BB7B     		ldrb	r3, [r7, #14]	@ zero_extendqisi2
 717 0036 002B     		cmp	r3, #0
 718 0038 1FD1     		bne	.L34
 719              	.LBB4:
 223:I2C_Interface.c ****             {
 224:I2C_Interface.c ****                 // Continue writing until we have data to write
 225:I2C_Interface.c ****                 uint8_t counter = register_count;
 720              		.loc 1 225 0
 721 003a 7B79     		ldrb	r3, [r7, #5]
 722 003c FB73     		strb	r3, [r7, #15]
 226:I2C_Interface.c ****                 while(counter > 0)
 723              		.loc 1 226 0
 724 003e 15E0     		b	.L35
 725              	.L38:
 227:I2C_Interface.c ****                 {
 228:I2C_Interface.c ****                     error = I2C_Master_MasterWriteByte(data[register_count-counter]);
 726              		.loc 1 228 0
 727 0040 7A79     		ldrb	r2, [r7, #5]	@ zero_extendqisi2
 728 0042 FB7B     		ldrb	r3, [r7, #15]	@ zero_extendqisi2
 729 0044 D31A     		subs	r3, r2, r3
 730 0046 1A46     		mov	r2, r3
 731 0048 3B68     		ldr	r3, [r7]
 732 004a 1344     		add	r3, r3, r2
 733 004c 1B78     		ldrb	r3, [r3]	@ zero_extendqisi2
 734 004e 1846     		mov	r0, r3
 735 0050 FFF7FEFF 		bl	I2C_Master_MasterWriteByte
 736 0054 0346     		mov	r3, r0
ARM GAS  C:\Users\Perro\AppData\Local\Temp\ccp3yBFa.s 			page 18


 737 0056 BB73     		strb	r3, [r7, #14]
 229:I2C_Interface.c ****                     if (error != I2C_Master_MSTR_NO_ERROR)
 738              		.loc 1 229 0
 739 0058 BB7B     		ldrb	r3, [r7, #14]	@ zero_extendqisi2
 740 005a 002B     		cmp	r3, #0
 741 005c 03D0     		beq	.L36
 230:I2C_Interface.c ****                     {
 231:I2C_Interface.c ****                         // Send stop condition
 232:I2C_Interface.c ****                         I2C_Master_MasterSendStop();
 742              		.loc 1 232 0
 743 005e FFF7FEFF 		bl	I2C_Master_MasterSendStop
 233:I2C_Interface.c ****                         // Return error code
 234:I2C_Interface.c ****                         return I2C_ERROR;
 744              		.loc 1 234 0
 745 0062 0223     		movs	r3, #2
 746 0064 0CE0     		b	.L37
 747              	.L36:
 235:I2C_Interface.c ****                     }
 236:I2C_Interface.c ****                     counter--;
 748              		.loc 1 236 0
 749 0066 FB7B     		ldrb	r3, [r7, #15]	@ zero_extendqisi2
 750 0068 013B     		subs	r3, r3, #1
 751 006a FB73     		strb	r3, [r7, #15]
 752              	.L35:
 226:I2C_Interface.c ****                 {
 753              		.loc 1 226 0
 754 006c FB7B     		ldrb	r3, [r7, #15]	@ zero_extendqisi2
 755 006e 002B     		cmp	r3, #0
 756 0070 E6D1     		bne	.L38
 237:I2C_Interface.c ****                 }
 238:I2C_Interface.c ****                 // Send stop condition and return no error
 239:I2C_Interface.c ****                 I2C_Master_MasterSendStop();
 757              		.loc 1 239 0
 758 0072 FFF7FEFF 		bl	I2C_Master_MasterSendStop
 240:I2C_Interface.c ****                 return I2C_NO_ERROR;
 759              		.loc 1 240 0
 760 0076 0023     		movs	r3, #0
 761 0078 02E0     		b	.L37
 762              	.L34:
 763              	.LBE4:
 241:I2C_Interface.c ****             }
 242:I2C_Interface.c ****         }
 243:I2C_Interface.c ****         // Send stop condition in case something didn't work out correctly
 244:I2C_Interface.c ****         I2C_Master_MasterSendStop();
 764              		.loc 1 244 0
 765 007a FFF7FEFF 		bl	I2C_Master_MasterSendStop
 245:I2C_Interface.c ****         // Return error code
 246:I2C_Interface.c ****         return I2C_DEV_NOT_FOUND;
 766              		.loc 1 246 0
 767 007e 0123     		movs	r3, #1
 768              	.L37:
 247:I2C_Interface.c ****     }
 769              		.loc 1 247 0
 770 0080 1846     		mov	r0, r3
 771 0082 1037     		adds	r7, r7, #16
 772              		.cfi_def_cfa_offset 8
 773 0084 BD46     		mov	sp, r7
ARM GAS  C:\Users\Perro\AppData\Local\Temp\ccp3yBFa.s 			page 19


 774              		.cfi_def_cfa_register 13
 775              		@ sp needed
 776 0086 80BD     		pop	{r7, pc}
 777              		.cfi_endproc
 778              	.LFE10:
 779              		.size	I2C_Peripheral_WriteRegisterMulti, .-I2C_Peripheral_WriteRegisterMulti
 780              		.section	.text.I2C_Peripheral_IsDeviceConnected,"ax",%progbits
 781              		.align	2
 782              		.global	I2C_Peripheral_IsDeviceConnected
 783              		.thumb
 784              		.thumb_func
 785              		.type	I2C_Peripheral_IsDeviceConnected, %function
 786              	I2C_Peripheral_IsDeviceConnected:
 787              	.LFB11:
 248:I2C_Interface.c ****     
 249:I2C_Interface.c ****     
 250:I2C_Interface.c ****     uint8_t I2C_Peripheral_IsDeviceConnected(uint8_t device_address)
 251:I2C_Interface.c ****     {
 788              		.loc 1 251 0
 789              		.cfi_startproc
 790              		@ args = 0, pretend = 0, frame = 16
 791              		@ frame_needed = 1, uses_anonymous_args = 0
 792 0000 80B5     		push	{r7, lr}
 793              		.cfi_def_cfa_offset 8
 794              		.cfi_offset 7, -8
 795              		.cfi_offset 14, -4
 796 0002 84B0     		sub	sp, sp, #16
 797              		.cfi_def_cfa_offset 24
 798 0004 00AF     		add	r7, sp, #0
 799              		.cfi_def_cfa_register 7
 800 0006 0346     		mov	r3, r0
 801 0008 FB71     		strb	r3, [r7, #7]
 252:I2C_Interface.c ****         // Send a start condition followed by a stop condition
 253:I2C_Interface.c ****         uint8_t error = I2C_Master_MasterSendStart(device_address, I2C_Master_WRITE_XFER_MODE);
 802              		.loc 1 253 0
 803 000a FB79     		ldrb	r3, [r7, #7]	@ zero_extendqisi2
 804 000c 0021     		movs	r1, #0
 805 000e 1846     		mov	r0, r3
 806 0010 FFF7FEFF 		bl	I2C_Master_MasterSendStart
 807 0014 0346     		mov	r3, r0
 808 0016 FB73     		strb	r3, [r7, #15]
 254:I2C_Interface.c ****         I2C_Master_MasterSendStop();
 809              		.loc 1 254 0
 810 0018 FFF7FEFF 		bl	I2C_Master_MasterSendStop
 255:I2C_Interface.c ****         // If no error generated during stop, device is connected
 256:I2C_Interface.c ****         if (error == I2C_Master_MSTR_NO_ERROR)
 811              		.loc 1 256 0
 812 001c FB7B     		ldrb	r3, [r7, #15]	@ zero_extendqisi2
 813 001e 002B     		cmp	r3, #0
 814 0020 01D1     		bne	.L40
 257:I2C_Interface.c ****         {
 258:I2C_Interface.c ****             return I2C_NO_ERROR;
 815              		.loc 1 258 0
 816 0022 0023     		movs	r3, #0
 817 0024 00E0     		b	.L41
 818              	.L40:
 259:I2C_Interface.c ****         }
ARM GAS  C:\Users\Perro\AppData\Local\Temp\ccp3yBFa.s 			page 20


 260:I2C_Interface.c ****         else
 261:I2C_Interface.c ****         {
 262:I2C_Interface.c ****             return I2C_DEV_NOT_FOUND;
 819              		.loc 1 262 0
 820 0026 0123     		movs	r3, #1
 821              	.L41:
 263:I2C_Interface.c ****         }
 264:I2C_Interface.c ****         
 265:I2C_Interface.c ****     }
 822              		.loc 1 265 0
 823 0028 1846     		mov	r0, r3
 824 002a 1037     		adds	r7, r7, #16
 825              		.cfi_def_cfa_offset 8
 826 002c BD46     		mov	sp, r7
 827              		.cfi_def_cfa_register 13
 828              		@ sp needed
 829 002e 80BD     		pop	{r7, pc}
 830              		.cfi_endproc
 831              	.LFE11:
 832              		.size	I2C_Peripheral_IsDeviceConnected, .-I2C_Peripheral_IsDeviceConnected
 833              		.text
 834              	.Letext0:
 835              		.file 2 "c:\\program files (x86)\\cypress\\psoc creator\\4.4\\psoc creator\\import\\gnu\\arm\\5.4.
 836              		.file 3 "c:\\program files (x86)\\cypress\\psoc creator\\4.4\\psoc creator\\import\\gnu\\arm\\5.4.