ARM GAS  C:\Users\Perro\AppData\Local\Temp\ccJzAe4J.s 			page 1


   1              		.syntax unified
   2              		.cpu cortex-m3
   3              		.fpu softvfp
   4              		.eabi_attribute 20, 1
   5              		.eabi_attribute 21, 1
   6              		.eabi_attribute 23, 3
   7              		.eabi_attribute 24, 1
   8              		.eabi_attribute 25, 1
   9              		.eabi_attribute 26, 1
  10              		.eabi_attribute 30, 6
  11              		.eabi_attribute 34, 1
  12              		.eabi_attribute 18, 4
  13              		.thumb
  14              		.syntax unified
  15              		.file	"isr.c"
  16              		.text
  17              	.Ltext0:
  18              		.cfi_sections	.debug_frame
  19              		.global	count
  20              		.bss
  21              		.align	2
  22              		.type	count, %object
  23              		.size	count, 4
  24              	count:
  25 0000 00000000 		.space	4
  26              		.global	flag_SM
  27              		.type	flag_SM, %object
  28              		.size	flag_SM, 1
  29              	flag_SM:
  30 0004 00       		.space	1
  31              		.global	SM
  32              		.type	SM, %object
  33              		.size	SM, 1
  34              	SM:
  35 0005 00       		.space	1
  36              		.comm	x,1,1
  37              		.section	.text.Count,"ax",%progbits
  38              		.align	2
  39              		.global	Count
  40              		.thumb
  41              		.thumb_func
  42              		.type	Count, %function
  43              	Count:
  44              	.LFB64:
  45              		.file 1 "isr.c"
   1:isr.c         **** /* ========================================
   2:isr.c         ****  *
   3:isr.c         ****  * Copyright YOUR COMPANY, THE YEAR
   4:isr.c         ****  * All Rights Reserved
   5:isr.c         ****  * UNPUBLISHED, LICENSED SOFTWARE.
   6:isr.c         ****  *
   7:isr.c         ****  * CONFIDENTIAL AND PROPRIETARY INFORMATION
   8:isr.c         ****  * WHICH IS THE PROPERTY OF your company.
   9:isr.c         ****  *
  10:isr.c         ****  * ========================================
  11:isr.c         **** */
  12:isr.c         **** 
ARM GAS  C:\Users\Perro\AppData\Local\Temp\ccJzAe4J.s 			page 2


  13:isr.c         **** #include "project.h"
  14:isr.c         **** #include "isr.h"
  15:isr.c         **** #include "USER.h"
  16:isr.c         **** volatile long count=0;
  17:isr.c         **** volatile uint8 flag_SM=0;
  18:isr.c         **** volatile uint8 SM=0;
  19:isr.c         **** uint8 x;
  20:isr.c         **** extern volatile int gotInterrupt;
  21:isr.c         **** extern uint32_t redBuffer[200];
  22:isr.c         **** extern uint32_t irBuffer[200];
  23:isr.c         **** 
  24:isr.c         **** CY_ISR (Count) 
  25:isr.c         **** {
  46              		.loc 1 25 0
  47              		.cfi_startproc
  48              		@ args = 0, pretend = 0, frame = 0
  49              		@ frame_needed = 1, uses_anonymous_args = 0
  50              		@ link register save eliminated.
  51 0000 80B4     		push	{r7}
  52              		.cfi_def_cfa_offset 4
  53              		.cfi_offset 7, -4
  54 0002 00AF     		add	r7, sp, #0
  55              		.cfi_def_cfa_register 7
  26:isr.c         ****     if (flag_SM==1)
  56              		.loc 1 26 0
  57 0004 0A4B     		ldr	r3, .L4
  58 0006 1B78     		ldrb	r3, [r3]
  59 0008 DBB2     		uxtb	r3, r3
  60 000a 012B     		cmp	r3, #1
  61 000c 0BD1     		bne	.L3
  27:isr.c         ****     {
  28:isr.c         ****         count++;
  62              		.loc 1 28 0
  63 000e 094B     		ldr	r3, .L4+4
  64 0010 1B68     		ldr	r3, [r3]
  65 0012 0133     		adds	r3, r3, #1
  66 0014 074A     		ldr	r2, .L4+4
  67 0016 1360     		str	r3, [r2]
  29:isr.c         ****         if (count==5) SM=1;
  68              		.loc 1 29 0
  69 0018 064B     		ldr	r3, .L4+4
  70 001a 1B68     		ldr	r3, [r3]
  71 001c 052B     		cmp	r3, #5
  72 001e 02D1     		bne	.L3
  73              		.loc 1 29 0 is_stmt 0 discriminator 1
  74 0020 054B     		ldr	r3, .L4+8
  75 0022 0122     		movs	r2, #1
  76 0024 1A70     		strb	r2, [r3]
  77              	.L3:
  30:isr.c         ****     }
  31:isr.c         **** }
  78              		.loc 1 31 0 is_stmt 1
  79 0026 00BF     		nop
  80 0028 BD46     		mov	sp, r7
  81              		.cfi_def_cfa_register 13
  82              		@ sp needed
  83 002a 80BC     		pop	{r7}
ARM GAS  C:\Users\Perro\AppData\Local\Temp\ccJzAe4J.s 			page 3


  84              		.cfi_restore 7
  85              		.cfi_def_cfa_offset 0
  86 002c 7047     		bx	lr
  87              	.L5:
  88 002e 00BF     		.align	2
  89              	.L4:
  90 0030 00000000 		.word	flag_SM
  91 0034 00000000 		.word	count
  92 0038 00000000 		.word	SM
  93              		.cfi_endproc
  94              	.LFE64:
  95              		.size	Count, .-Count
  96              		.section	.text.Custom_ISR_RX,"ax",%progbits
  97              		.align	2
  98              		.global	Custom_ISR_RX
  99              		.thumb
 100              		.thumb_func
 101              		.type	Custom_ISR_RX, %function
 102              	Custom_ISR_RX:
 103              	.LFB65:
  32:isr.c         **** 
  33:isr.c         **** CY_ISR (Custom_ISR_RX) 
  34:isr.c         **** {
 104              		.loc 1 34 0
 105              		.cfi_startproc
 106              		@ args = 0, pretend = 0, frame = 0
 107              		@ frame_needed = 1, uses_anonymous_args = 0
 108 0000 80B5     		push	{r7, lr}
 109              		.cfi_def_cfa_offset 8
 110              		.cfi_offset 7, -8
 111              		.cfi_offset 14, -4
 112 0002 00AF     		add	r7, sp, #0
 113              		.cfi_def_cfa_register 7
  35:isr.c         ****     x = UART_Debug_GetChar();
 114              		.loc 1 35 0
 115 0004 FFF7FEFF 		bl	UART_Debug_GetChar
 116 0008 0346     		mov	r3, r0
 117 000a 1A46     		mov	r2, r3
 118 000c 054B     		ldr	r3, .L7
 119 000e 1A70     		strb	r2, [r3]
  36:isr.c         ****     
  37:isr.c         ****     USER(x);
 120              		.loc 1 37 0
 121 0010 044B     		ldr	r3, .L7
 122 0012 1B78     		ldrb	r3, [r3]	@ zero_extendqisi2
 123 0014 1846     		mov	r0, r3
 124 0016 FFF7FEFF 		bl	USER
  38:isr.c         ****     CyDelay(100);
 125              		.loc 1 38 0
 126 001a 6420     		movs	r0, #100
 127 001c FFF7FEFF 		bl	CyDelay
  39:isr.c         ****     /*for (int k = 0; k<200; k++)
  40:isr.c         ****     {
  41:isr.c         ****         redBuffer[k] = 0;
  42:isr.c         ****         irBuffer[k] = 0;
  43:isr.c         ****     }*/
  44:isr.c         **** }
ARM GAS  C:\Users\Perro\AppData\Local\Temp\ccJzAe4J.s 			page 4


 128              		.loc 1 44 0
 129 0020 00BF     		nop
 130 0022 80BD     		pop	{r7, pc}
 131              	.L8:
 132              		.align	2
 133              	.L7:
 134 0024 00000000 		.word	x
 135              		.cfi_endproc
 136              	.LFE65:
 137              		.size	Custom_ISR_RX, .-Custom_ISR_RX
 138              		.text
 139              	.Letext0:
 140              		.file 2 "c:\\program files (x86)\\cypress\\psoc creator\\4.4\\psoc creator\\import\\gnu\\arm\\5.4.
 141              		.file 3 "c:\\program files (x86)\\cypress\\psoc creator\\4.4\\psoc creator\\import\\gnu\\arm\\5.4.
 142              		.file 4 "Generated_Source\\PSoC5/cytypes.h"
 143              		.file 5 "Generated_Source\\PSoC5/core_cm3.h"