ARM GAS  C:\Users\Perro\AppData\Local\Temp\ccN4HOtd.s 			page 1


   1              		.syntax unified
   2              		.cpu cortex-m3
   3              		.fpu softvfp
   4              		.eabi_attribute 20, 1
   5              		.eabi_attribute 21, 1
   6              		.eabi_attribute 23, 3
   7              		.eabi_attribute 24, 1
   8              		.eabi_attribute 25, 1
   9              		.eabi_attribute 26, 1
  10              		.eabi_attribute 30, 6
  11              		.eabi_attribute 34, 1
  12              		.eabi_attribute 18, 4
  13              		.thumb
  14              		.syntax unified
  15              		.file	"main.c"
  16              		.text
  17              	.Ltext0:
  18              		.cfi_sections	.debug_frame
  19              		.comm	data,388,4
  20              		.comm	an_x,800,4
  21              		.comm	an_y,800,4
  22              		.global	flag_temp
  23              		.bss
  24              		.type	flag_temp, %object
  25              		.size	flag_temp, 1
  26              	flag_temp:
  27 0000 00       		.space	1
  28              		.global	flag_1s
  29              		.type	flag_1s, %object
  30              		.size	flag_1s, 1
  31              	flag_1s:
  32 0001 00       		.space	1
  33              		.section	.rodata
  34              		.align	2
  35              	.LC0:
  36 0000 312C00   		.ascii	"1,\000"
  37 0003 00       		.align	2
  38              	.LC1:
  39 0004 256C642C 		.ascii	"%ld,\000"
  39      00
  40 0009 000000   		.align	2
  41              	.LC2:
  42 000c 322C00   		.ascii	"2,\000"
  43 000f 00       		.align	2
  44              	.LC3:
  45 0010 302C00   		.ascii	"0,\000"
  46 0013 00       		.align	2
  47              	.LC4:
  48 0014 300A00   		.ascii	"0\012\000"
  49 0017 00       		.align	2
  50              	.LC5:
  51 0018 332C00   		.ascii	"3,\000"
  52 001b 00       		.align	2
  53              	.LC6:
  54 001c 342C00   		.ascii	"4,\000"
  55 001f 00       		.align	2
  56              	.LC7:
ARM GAS  C:\Users\Perro\AppData\Local\Temp\ccN4HOtd.s 			page 2


  57 0020 256C640A 		.ascii	"%ld\012\000"
  57      00
  58              		.section	.text.main,"ax",%progbits
  59              		.align	2
  60              		.global	main
  61              		.thumb
  62              		.thumb_func
  63              		.type	main, %function
  64              	main:
  65              	.LFB64:
  66              		.file 1 "main.c"
   1:main.c        **** /**
   2:main.c        **** *   Main file for testing MAX30101 Library.
   3:main.c        ****     Last update: il codice funziona con la spo2 anche per FIFO bits diversi da 25, per come ho scri
   4:main.c        ****     non è da considerare perchè vengono superati i 200 samples però dalla successiva sono giuste
   5:main.c        ****     Questo branch serve a provare una nuova funzione, che prende 5 secondi di misura e introduce un
   6:main.c        ****     l'heart rate ma sembra essere troppo variabile così come nell'altro branch. Non so se è dovut
   7:main.c        ****     perchè la variabilità è davvero alta. Proverò con l'elastico per capire se migliora un mini
   8:main.c        ****     Emanuele 16.05 18:07
   9:main.c        **** */
  10:main.c        **** 
  11:main.c        **** #include "project.h"
  12:main.c        **** #include "MAX30101.h"
  13:main.c        **** #include "stdio.h"
  14:main.c        **** #include "I2C_Interface.h"
  15:main.c        **** #include "SpO2.h"
  16:main.c        **** #include "HeartRate.h"
  17:main.c        **** #include "Timer.h"
  18:main.c        **** #include "isr.h"
  19:main.c        **** #include "USER.h"
  20:main.c        **** 
  21:main.c        **** 
  22:main.c        **** #define SLEEPTIMER_INTERVAL_COUNTER (768u)
  23:main.c        **** #define UART_DEBUG
  24:main.c        **** 
  25:main.c        **** #ifdef UART_DEBUG
  26:main.c        ****     
  27:main.c        ****     #define DEBUG_TEST 1
  28:main.c        ****     
  29:main.c        **** #else
  30:main.c        ****     
  31:main.c        ****     #define DEBUG_TEST 0
  32:main.c        ****     
  33:main.c        **** #endif
  34:main.c        **** 
  35:main.c        **** #define debug_print(msg) do { if (DEBUG_TEST) UART_Debug_PutString(msg);} while (0)
  36:main.c        **** 
  37:main.c        **** CY_ISR_PROTO(MAX30101_ISR);
  38:main.c        **** //CY_ISR_PROTO(FLAG);
  39:main.c        **** CY_ISR_PROTO(WAKEUP_TIMER);
  40:main.c        ****     
  41:main.c        **** 
  42:main.c        **** uint8_t flag_temp = 0;
  43:main.c        **** uint8_t flag_1s = 0;
  44:main.c        **** 
  45:main.c        **** int main(void)
  46:main.c        **** {
ARM GAS  C:\Users\Perro\AppData\Local\Temp\ccN4HOtd.s 			page 3


  67              		.loc 1 46 0
  68              		.cfi_startproc
  69              		@ args = 0, pretend = 0, frame = 2112
  70              		@ frame_needed = 1, uses_anonymous_args = 0
  71 0000 80B5     		push	{r7, lr}
  72              		.cfi_def_cfa_offset 8
  73              		.cfi_offset 7, -8
  74              		.cfi_offset 14, -4
  75 0002 ADF5056D 		sub	sp, sp, #2128
  76              		.cfi_def_cfa_offset 2136
  77 0006 04AF     		add	r7, sp, #16
  78              		.cfi_def_cfa 7, 2120
  47:main.c        ****     // Variables
  48:main.c        ****     MAX30101_Data data;
  49:main.c        ****     data.head = 0;
  79              		.loc 1 49 0
  80 0008 07F5D263 		add	r3, r7, #1680
  81 000c 0022     		movs	r2, #0
  82 000e 83F88021 		strb	r2, [r3, #384]
  50:main.c        ****     data.tail = 0;
  83              		.loc 1 50 0
  84 0012 07F5D263 		add	r3, r7, #1680
  85 0016 0022     		movs	r2, #0
  86 0018 83F88121 		strb	r2, [r3, #385]
  51:main.c        ****     char msg[50];
  52:main.c        ****     void (*print_ptr)(const char*) = &(UART_Debug_PutString);
  87              		.loc 1 52 0
  88 001c C24B     		ldr	r3, .L15
  89 001e C7F82438 		str	r3, [r7, #2084]
  53:main.c        ****     uint8_t active_leds = 2;
  90              		.loc 1 53 0
  91 0022 0223     		movs	r3, #2
  92 0024 87F82338 		strb	r3, [r7, #2083]
  54:main.c        ****     uint8_t rp, wp, flag = 0;
  93              		.loc 1 54 0
  94 0028 07F25963 		addw	r3, r7, #1625
  95 002c 0022     		movs	r2, #0
  96 002e 1A70     		strb	r2, [r3]
  55:main.c        ****     int32_t spo2; //SPO2 value
  56:main.c        ****     int8_t validSPO2; //indicator to show if the SPO2 calculation is valid
  57:main.c        ****     int32_t heartRate; //heart rate value
  58:main.c        ****     int8_t validHeartRate; //indicator to show if the heart rate calculation is valid
  59:main.c        ****     uint32_t irBuffer[200]; //infrared LED sensor data
  60:main.c        ****     uint32_t redBuffer[200];  //red LED sensor data
  61:main.c        ****     int32_t bufferLength = 200;
  97              		.loc 1 61 0
  98 0030 C823     		movs	r3, #200
  99 0032 C7F81C38 		str	r3, [r7, #2076]
  62:main.c        ****     int num_samples;
  63:main.c        ****     int j=0;
 100              		.loc 1 63 0
 101 0036 0023     		movs	r3, #0
 102 0038 C7F83838 		str	r3, [r7, #2104]
  64:main.c        ****     int FIFO_max_size = 25;  
 103              		.loc 1 64 0
 104 003c 1923     		movs	r3, #25
 105 003e C7F81838 		str	r3, [r7, #2072]
ARM GAS  C:\Users\Perro\AppData\Local\Temp\ccN4HOtd.s 			page 4


  65:main.c        ****     extern volatile long count;
  66:main.c        ****     extern volatile uint8 SM;
  67:main.c        ****     extern volatile uint8 flag_SM;   
  68:main.c        ****     int i=0;
 106              		.loc 1 68 0
 107 0042 0023     		movs	r3, #0
 108 0044 C7F83438 		str	r3, [r7, #2100]
  69:main.c        ****     int32_t somma=0;
 109              		.loc 1 69 0
 110 0048 0023     		movs	r3, #0
 111 004a C7F83038 		str	r3, [r7, #2096]
  70:main.c        ****     int f=1;
 112              		.loc 1 70 0
 113 004e 0123     		movs	r3, #1
 114 0050 C7F82C38 		str	r3, [r7, #2092]
  71:main.c        **** 
  72:main.c        ****     
  73:main.c        ****     //SET BY THE USER
  74:main.c        **** 
  75:main.c        ****     
  76:main.c        ****     // Initialization
  77:main.c        ****     MAX30101_Start();
 115              		.loc 1 77 0
 116 0054 FFF7FEFF 		bl	MAX30101_Start
  78:main.c        ****     UART_Debug_Start();
 117              		.loc 1 78 0
 118 0058 FFF7FEFF 		bl	UART_Debug_Start
  79:main.c        ****     CyDelay(100);    
 119              		.loc 1 79 0
 120 005c 6420     		movs	r0, #100
 121 005e FFF7FEFF 		bl	CyDelay
  80:main.c        ****     if (MAX30101_IsDevicePresent() == MAX30101_OK)
 122              		.loc 1 80 0
 123 0062 FFF7FEFF 		bl	MAX30101_IsDevicePresent
 124 0066 0346     		mov	r3, r0
 125 0068 002B     		cmp	r3, #0
 126 006a 3DD1     		bne	.L2
 127              	.LBB2:
  81:main.c        ****     {
  82:main.c        ****         // Check if device is present
  83:main.c        ****         Connection_LED_Write(1);
 128              		.loc 1 83 0
 129 006c 0120     		movs	r0, #1
 130 006e FFF7FEFF 		bl	Connection_LED_Write
  84:main.c        ****         
  85:main.c        ****         // Read revision and part id
  86:main.c        ****         uint8_t rev_id, part_id = 0;
 131              		.loc 1 86 0
 132 0072 BB1D     		adds	r3, r7, #6
 133 0074 0022     		movs	r2, #0
 134 0076 1A70     		strb	r2, [r3]
  87:main.c        ****         MAX30101_ReadPartID(&part_id);
 135              		.loc 1 87 0
 136 0078 BB1D     		adds	r3, r7, #6
 137 007a 1846     		mov	r0, r3
 138 007c FFF7FEFF 		bl	MAX30101_ReadPartID
  88:main.c        ****         MAX30101_ReadRevisionID(&rev_id);
ARM GAS  C:\Users\Perro\AppData\Local\Temp\ccN4HOtd.s 			page 5


 139              		.loc 1 88 0
 140 0080 FB1D     		adds	r3, r7, #7
 141 0082 1846     		mov	r0, r3
 142 0084 FFF7FEFF 		bl	MAX30101_ReadRevisionID
  89:main.c        ****         
  90:main.c        ****         // Soft reset sensor
  91:main.c        ****         MAX30101_Reset();
 143              		.loc 1 91 0
 144 0088 FFF7FEFF 		bl	MAX30101_Reset
  92:main.c        ****         CyDelay(100);
 145              		.loc 1 92 0
 146 008c 6420     		movs	r0, #100
 147 008e FFF7FEFF 		bl	CyDelay
  93:main.c        ****        
  94:main.c        ****         // Wake up sensor
  95:main.c        ****         MAX30101_WakeUp();        
 148              		.loc 1 95 0
 149 0092 FFF7FEFF 		bl	MAX30101_WakeUp
  96:main.c        ****         MAX30101_DisableALCOverflowInt();
 150              		.loc 1 96 0
 151 0096 FFF7FEFF 		bl	MAX30101_DisableALCOverflowInt
  97:main.c        ****         MAX30101_DisableTempReadyInt();
 152              		.loc 1 97 0
 153 009a FFF7FEFF 		bl	MAX30101_DisableTempReadyInt
  98:main.c        ****         MAX30101_DisablePPGReadyInt();
 154              		.loc 1 98 0
 155 009e FFF7FEFF 		bl	MAX30101_DisablePPGReadyInt
  99:main.c        ****         MAX30101_EnableFIFOAFullInt();
 156              		.loc 1 99 0
 157 00a2 FFF7FEFF 		bl	MAX30101_EnableFIFOAFullInt
 100:main.c        ****      
 101:main.c        ****         // set 25 samples to trigger interrupt
 102:main.c        ****         MAX30101_SetFIFOAlmostFull(FIFO_max_size);
 158              		.loc 1 102 0
 159 00a6 D7F81838 		ldr	r3, [r7, #2072]
 160 00aa DBB2     		uxtb	r3, r3
 161 00ac 1846     		mov	r0, r3
 162 00ae FFF7FEFF 		bl	MAX30101_SetFIFOAlmostFull
 103:main.c        **** 
 104:main.c        ****         // enable fifo rollover
 105:main.c        ****         MAX30101_EnableFIFORollover();
 163              		.loc 1 105 0
 164 00b2 FFF7FEFF 		bl	MAX30101_EnableFIFORollover
 106:main.c        ****         
 107:main.c        ****         // samples averaged       
 108:main.c        ****         MAX30101_SetSampleAverage(MAX30101_SAMPLE_AVG_2);
 165              		.loc 1 108 0
 166 00b6 2020     		movs	r0, #32
 167 00b8 FFF7FEFF 		bl	MAX30101_SetSampleAverage
 109:main.c        ****         // Set LED Power level
 110:main.c        ****         MAX30101_SetLEDPulseAmplitude(MAX30101_LED_1, 0x1F);        
 168              		.loc 1 110 0
 169 00bc 1F21     		movs	r1, #31
 170 00be 0020     		movs	r0, #0
 171 00c0 FFF7FEFF 		bl	MAX30101_SetLEDPulseAmplitude
 111:main.c        ****         MAX30101_SetLEDPulseAmplitude(MAX30101_LED_2, 0x1F);
 172              		.loc 1 111 0
ARM GAS  C:\Users\Perro\AppData\Local\Temp\ccN4HOtd.s 			page 6


 173 00c4 1F21     		movs	r1, #31
 174 00c6 0120     		movs	r0, #1
 175 00c8 FFF7FEFF 		bl	MAX30101_SetLEDPulseAmplitude
 112:main.c        ****                
 113:main.c        ****         // Set ADC Range
 114:main.c        ****         MAX30101_SetSpO2ADCRange(MAX30101_ADC_RANGE_4096);
 176              		.loc 1 114 0
 177 00cc 2020     		movs	r0, #32
 178 00ce FFF7FEFF 		bl	MAX30101_SetSpO2ADCRange
 115:main.c        ****         
 116:main.c        ****         // Pulse width
 117:main.c        ****         MAX30101_SetSpO2PulseWidth(MAX30101_PULSEWIDTH_411);
 179              		.loc 1 117 0
 180 00d2 0320     		movs	r0, #3
 181 00d4 FFF7FEFF 		bl	MAX30101_SetSpO2PulseWidth
 118:main.c        ****         
 119:main.c        ****         // Set Sample Rate
 120:main.c        ****         MAX30101_SetSpO2SampleRate(MAX30101_SAMPLE_RATE_100);
 182              		.loc 1 120 0
 183 00d8 0420     		movs	r0, #4
 184 00da FFF7FEFF 		bl	MAX30101_SetSpO2SampleRate
 121:main.c        ****         
 122:main.c        ****         // Set mode
 123:main.c        ****         MAX30101_SetMode(MAX30101_SPO2_MODE);
 185              		.loc 1 123 0
 186 00de 0320     		movs	r0, #3
 187 00e0 FFF7FEFF 		bl	MAX30101_SetMode
 124:main.c        ****         
 125:main.c        ****         // Enable Slots
 126:main.c        ****         MAX30101_DisableSlots();
 188              		.loc 1 126 0
 189 00e4 FFF7FEFF 		bl	MAX30101_DisableSlots
 190              	.L2:
 191              	.LBE2:
 127:main.c        ****     }
 128:main.c        ****     
 129:main.c        ****    
 130:main.c        ****     isr_MAX30101_StartEx(MAX30101_ISR);
 192              		.loc 1 130 0
 193 00e8 9048     		ldr	r0, .L15+4
 194 00ea FFF7FEFF 		bl	isr_MAX30101_StartEx
 131:main.c        ****     isr_Timer_StartEx(WAKEUP_TIMER);
 195              		.loc 1 131 0
 196 00ee 9048     		ldr	r0, .L15+8
 197 00f0 FFF7FEFF 		bl	isr_Timer_StartEx
 132:main.c        ****     isr_SM_StartEx(Count);
 198              		.loc 1 132 0
 199 00f4 8F48     		ldr	r0, .L15+12
 200 00f6 FFF7FEFF 		bl	isr_SM_StartEx
 133:main.c        ****     isr_RX_StartEx(Custom_ISR_RX);
 201              		.loc 1 133 0
 202 00fa 8F48     		ldr	r0, .L15+16
 203 00fc FFF7FEFF 		bl	isr_RX_StartEx
 134:main.c        ****     SleepTimer_Start(); 
 204              		.loc 1 134 0
 205 0100 FFF7FEFF 		bl	SleepTimer_Start
 135:main.c        ****     
ARM GAS  C:\Users\Perro\AppData\Local\Temp\ccN4HOtd.s 			page 7


 136:main.c        ****     // Clear FIFO
 137:main.c        ****     MAX30101_ClearFIFO();
 206              		.loc 1 137 0
 207 0104 FFF7FEFF 		bl	MAX30101_ClearFIFO
 138:main.c        ****     CyGlobalIntEnable; /* Enable global interrupts. */
 208              		.loc 1 138 0
 209              		.syntax unified
 210              	@ 138 "main.c" 1
 211 0108 62B6     		CPSIE   i
 212              	@ 0 "" 2
 213              		.thumb
 214              		.syntax unified
 215              	.L14:
 216              	.LBB3:
 139:main.c        ****       
 140:main.c        ****     for(;;)
 141:main.c        ****     {       
 142:main.c        ****         int32 irValue=getIR(&data);  
 217              		.loc 1 142 0
 218 010a 07F5D263 		add	r3, r7, #1680
 219 010e 1846     		mov	r0, r3
 220 0110 FFF7FEFF 		bl	getIR
 221 0114 0346     		mov	r3, r0
 222 0116 C7F81438 		str	r3, [r7, #2068]
 143:main.c        ****         if(irValue<10000) 
 223              		.loc 1 143 0
 224 011a D7F81438 		ldr	r3, [r7, #2068]
 225 011e 42F20F72 		movw	r2, #9999
 226 0122 9342     		cmp	r3, r2
 227 0124 1ADC     		bgt	.L3
 144:main.c        ****         {
 145:main.c        ****            flag_SM=1;
 228              		.loc 1 145 0
 229 0126 854B     		ldr	r3, .L15+20
 230 0128 0122     		movs	r2, #1
 231 012a 1A70     		strb	r2, [r3]
 146:main.c        ****             
 147:main.c        ****             if(SM==1)
 232              		.loc 1 147 0
 233 012c 844B     		ldr	r3, .L15+24
 234 012e 1B78     		ldrb	r3, [r3]
 235 0130 DBB2     		uxtb	r3, r3
 236 0132 012B     		cmp	r3, #1
 237 0134 21D1     		bne	.L5
 148:main.c        ****             {
 149:main.c        ****                 flag_SM=0;
 238              		.loc 1 149 0
 239 0136 814B     		ldr	r3, .L15+20
 240 0138 0022     		movs	r2, #0
 241 013a 1A70     		strb	r2, [r3]
 150:main.c        ****                 //debug_print("SLEEP_MODE\r\n");
 151:main.c        ****                 CyDelay(50);
 242              		.loc 1 151 0
 243 013c 3220     		movs	r0, #50
 244 013e FFF7FEFF 		bl	CyDelay
 152:main.c        ****                 CyPmSaveClocks();
 245              		.loc 1 152 0
ARM GAS  C:\Users\Perro\AppData\Local\Temp\ccN4HOtd.s 			page 8


 246 0142 FFF7FEFF 		bl	CyPmSaveClocks
 153:main.c        ****                 CyPmAltAct(PM_ALT_ACT_TIME_NONE,PM_ALT_ACT_SRC_CTW);
 247              		.loc 1 153 0
 248 0146 4FF40061 		mov	r1, #2048
 249 014a 0020     		movs	r0, #0
 250 014c FFF7FEFF 		bl	CyPmAltAct
 154:main.c        ****                 CyPmRestoreClocks();
 251              		.loc 1 154 0
 252 0150 FFF7FEFF 		bl	CyPmRestoreClocks
 155:main.c        ****                 count=0;
 253              		.loc 1 155 0
 254 0154 7B4B     		ldr	r3, .L15+28
 255 0156 0022     		movs	r2, #0
 256 0158 1A60     		str	r2, [r3]
 257 015a 0EE0     		b	.L5
 258              	.L3:
 156:main.c        ****             }
 157:main.c        ****         }               
 158:main.c        ****         else if(irValue>=10000)
 259              		.loc 1 158 0
 260 015c D7F81438 		ldr	r3, [r7, #2068]
 261 0160 42F20F72 		movw	r2, #9999
 262 0164 9342     		cmp	r3, r2
 263 0166 08DD     		ble	.L5
 159:main.c        ****         { 
 160:main.c        ****             SM=0;
 264              		.loc 1 160 0
 265 0168 754B     		ldr	r3, .L15+24
 266 016a 0022     		movs	r2, #0
 267 016c 1A70     		strb	r2, [r3]
 161:main.c        ****             flag_SM=0;
 268              		.loc 1 161 0
 269 016e 734B     		ldr	r3, .L15+20
 270 0170 0022     		movs	r2, #0
 271 0172 1A70     		strb	r2, [r3]
 162:main.c        ****             count=0;
 272              		.loc 1 162 0
 273 0174 734B     		ldr	r3, .L15+28
 274 0176 0022     		movs	r2, #0
 275 0178 1A60     		str	r2, [r3]
 276              	.L5:
 163:main.c        ****         }
 164:main.c        **** 
 165:main.c        ****         MAX30101_IsFIFOAFull(&flag);
 277              		.loc 1 165 0
 278 017a 07F25963 		addw	r3, r7, #1625
 279 017e 1846     		mov	r0, r3
 280 0180 FFF7FEFF 		bl	MAX30101_IsFIFOAFull
 166:main.c        ****         if(flag>0)
 281              		.loc 1 166 0
 282 0184 07F25963 		addw	r3, r7, #1625
 283 0188 1B78     		ldrb	r3, [r3]	@ zero_extendqisi2
 284 018a 002B     		cmp	r3, #0
 285 018c BDD0     		beq	.L14
 167:main.c        ****         {
 168:main.c        ****             MAX30101_ReadReadPointer(&rp);
 286              		.loc 1 168 0
ARM GAS  C:\Users\Perro\AppData\Local\Temp\ccN4HOtd.s 			page 9


 287 018e 07F25B63 		addw	r3, r7, #1627
 288 0192 1846     		mov	r0, r3
 289 0194 FFF7FEFF 		bl	MAX30101_ReadReadPointer
 169:main.c        ****             MAX30101_ReadWritePointer(&wp);
 290              		.loc 1 169 0
 291 0198 07F25A63 		addw	r3, r7, #1626
 292 019c 1846     		mov	r0, r3
 293 019e FFF7FEFF 		bl	MAX30101_ReadWritePointer
 170:main.c        ****             //Calculate the number of readings we need to get from sensor
 171:main.c        ****             num_samples = wp - rp;
 294              		.loc 1 171 0
 295 01a2 07F25A63 		addw	r3, r7, #1626
 296 01a6 1B78     		ldrb	r3, [r3]	@ zero_extendqisi2
 297 01a8 1A46     		mov	r2, r3
 298 01aa 07F25B63 		addw	r3, r7, #1627
 299 01ae 1B78     		ldrb	r3, [r3]	@ zero_extendqisi2
 300 01b0 D31A     		subs	r3, r2, r3
 301 01b2 C7F83C38 		str	r3, [r7, #2108]
 172:main.c        ****             if (num_samples <= 0) num_samples += 32; //Wrap condition                
 302              		.loc 1 172 0
 303 01b6 D7F83C38 		ldr	r3, [r7, #2108]
 304 01ba 002B     		cmp	r3, #0
 305 01bc 04DC     		bgt	.L7
 306              		.loc 1 172 0 is_stmt 0 discriminator 1
 307 01be D7F83C38 		ldr	r3, [r7, #2108]
 308 01c2 2033     		adds	r3, r3, #32
 309 01c4 C7F83C38 		str	r3, [r7, #2108]
 310              	.L7:
 173:main.c        ****             // Read FIFO
 174:main.c        ****             MAX30101_ReadFIFO(num_samples, active_leds, &data, j);
 311              		.loc 1 174 0 is_stmt 1
 312 01c8 D7F83C38 		ldr	r3, [r7, #2108]
 313 01cc D8B2     		uxtb	r0, r3
 314 01ce 07F5D262 		add	r2, r7, #1680
 315 01d2 97F82318 		ldrb	r1, [r7, #2083]	@ zero_extendqisi2
 316 01d6 D7F83838 		ldr	r3, [r7, #2104]
 317 01da FFF7FEFF 		bl	MAX30101_ReadFIFO
 175:main.c        ****             for (i=0;i<num_samples;i++)
 318              		.loc 1 175 0
 319 01de 0023     		movs	r3, #0
 320 01e0 C7F83438 		str	r3, [r7, #2100]
 321 01e4 75E0     		b	.L8
 322              	.L10:
 176:main.c        ****             {                    
 177:main.c        ****                 redBuffer[j] = data.red[data.tail+i];
 323              		.loc 1 177 0
 324 01e6 07F5D263 		add	r3, r7, #1680
 325 01ea 93F88131 		ldrb	r3, [r3, #385]	@ zero_extendqisi2
 326 01ee 1A46     		mov	r2, r3
 327 01f0 D7F83438 		ldr	r3, [r7, #2100]
 328 01f4 1A44     		add	r2, r2, r3
 329 01f6 07F5D263 		add	r3, r7, #1680
 330 01fa 53F82210 		ldr	r1, [r3, r2, lsl #2]
 331 01fe 07F10803 		add	r3, r7, #8
 332 0202 D7F83828 		ldr	r2, [r7, #2104]
 333 0206 43F82210 		str	r1, [r3, r2, lsl #2]
 178:main.c        ****                 irBuffer[j] = data.IR[data.tail+i];
ARM GAS  C:\Users\Perro\AppData\Local\Temp\ccN4HOtd.s 			page 10


 334              		.loc 1 178 0
 335 020a 07F5D263 		add	r3, r7, #1680
 336 020e 93F88131 		ldrb	r3, [r3, #385]	@ zero_extendqisi2
 337 0212 1A46     		mov	r2, r3
 338 0214 D7F83438 		ldr	r3, [r7, #2100]
 339 0218 1A44     		add	r2, r2, r3
 340 021a 07F5D263 		add	r3, r7, #1680
 341 021e 2032     		adds	r2, r2, #32
 342 0220 53F82210 		ldr	r1, [r3, r2, lsl #2]
 343 0224 07F54A73 		add	r3, r7, #808
 344 0228 D7F83828 		ldr	r2, [r7, #2104]
 345 022c 43F82210 		str	r1, [r3, r2, lsl #2]
 179:main.c        ****                 j++;
 346              		.loc 1 179 0
 347 0230 D7F83838 		ldr	r3, [r7, #2104]
 348 0234 0133     		adds	r3, r3, #1
 349 0236 C7F83838 		str	r3, [r7, #2104]
 180:main.c        ****                 debug_print("1,");
 350              		.loc 1 180 0
 351 023a 4348     		ldr	r0, .L15+32
 352 023c FFF7FEFF 		bl	UART_Debug_PutString
 181:main.c        ****                 sprintf(msg, "%ld,", data.IR[data.tail+i]);
 353              		.loc 1 181 0
 354 0240 07F5D263 		add	r3, r7, #1680
 355 0244 93F88131 		ldrb	r3, [r3, #385]	@ zero_extendqisi2
 356 0248 1A46     		mov	r2, r3
 357 024a D7F83438 		ldr	r3, [r7, #2100]
 358 024e 1A44     		add	r2, r2, r3
 359 0250 07F5D263 		add	r3, r7, #1680
 360 0254 2032     		adds	r2, r2, #32
 361 0256 53F82220 		ldr	r2, [r3, r2, lsl #2]
 362 025a 07F25C63 		addw	r3, r7, #1628
 363 025e 3B49     		ldr	r1, .L15+36
 364 0260 1846     		mov	r0, r3
 365 0262 FFF7FEFF 		bl	sprintf
 182:main.c        ****                 debug_print(msg);
 366              		.loc 1 182 0
 367 0266 07F25C63 		addw	r3, r7, #1628
 368 026a 1846     		mov	r0, r3
 369 026c FFF7FEFF 		bl	UART_Debug_PutString
 183:main.c        ****                 debug_print("2,");
 370              		.loc 1 183 0
 371 0270 3748     		ldr	r0, .L15+40
 372 0272 FFF7FEFF 		bl	UART_Debug_PutString
 184:main.c        ****                 sprintf(msg, "%ld,", data.red[data.tail+i]);
 373              		.loc 1 184 0
 374 0276 07F5D263 		add	r3, r7, #1680
 375 027a 93F88131 		ldrb	r3, [r3, #385]	@ zero_extendqisi2
 376 027e 1A46     		mov	r2, r3
 377 0280 D7F83438 		ldr	r3, [r7, #2100]
 378 0284 1A44     		add	r2, r2, r3
 379 0286 07F5D263 		add	r3, r7, #1680
 380 028a 53F82220 		ldr	r2, [r3, r2, lsl #2]
 381 028e 07F25C63 		addw	r3, r7, #1628
 382 0292 2E49     		ldr	r1, .L15+36
 383 0294 1846     		mov	r0, r3
 384 0296 FFF7FEFF 		bl	sprintf
ARM GAS  C:\Users\Perro\AppData\Local\Temp\ccN4HOtd.s 			page 11


 185:main.c        ****                 debug_print(msg);
 385              		.loc 1 185 0
 386 029a 07F25C63 		addw	r3, r7, #1628
 387 029e 1846     		mov	r0, r3
 388 02a0 FFF7FEFF 		bl	UART_Debug_PutString
 186:main.c        ****                 
 187:main.c        ****                 if(j<bufferLength)
 389              		.loc 1 187 0
 390 02a4 D7F83828 		ldr	r2, [r7, #2104]
 391 02a8 D7F81C38 		ldr	r3, [r7, #2076]
 392 02ac 9A42     		cmp	r2, r3
 393 02ae 0BDA     		bge	.L9
 188:main.c        ****                 {
 189:main.c        ****                     debug_print("0,");
 394              		.loc 1 189 0 discriminator 1
 395 02b0 2848     		ldr	r0, .L15+44
 396 02b2 FFF7FEFF 		bl	UART_Debug_PutString
 190:main.c        ****                     debug_print("0,");
 397              		.loc 1 190 0 discriminator 1
 398 02b6 2748     		ldr	r0, .L15+44
 399 02b8 FFF7FEFF 		bl	UART_Debug_PutString
 191:main.c        ****                     debug_print("0,");
 400              		.loc 1 191 0 discriminator 1
 401 02bc 2548     		ldr	r0, .L15+44
 402 02be FFF7FEFF 		bl	UART_Debug_PutString
 192:main.c        ****                     debug_print("0\n");
 403              		.loc 1 192 0 discriminator 1
 404 02c2 2548     		ldr	r0, .L15+48
 405 02c4 FFF7FEFF 		bl	UART_Debug_PutString
 406              	.L9:
 175:main.c        ****             {                    
 407              		.loc 1 175 0 discriminator 2
 408 02c8 D7F83438 		ldr	r3, [r7, #2100]
 409 02cc 0133     		adds	r3, r3, #1
 410 02ce C7F83438 		str	r3, [r7, #2100]
 411              	.L8:
 175:main.c        ****             {                    
 412              		.loc 1 175 0 is_stmt 0 discriminator 1
 413 02d2 D7F83428 		ldr	r2, [r7, #2100]
 414 02d6 D7F83C38 		ldr	r3, [r7, #2108]
 415 02da 9A42     		cmp	r2, r3
 416 02dc 83DB     		blt	.L10
 193:main.c        ****                 }
 194:main.c        ****             }                       
 195:main.c        ****             if(j>=bufferLength) 
 417              		.loc 1 195 0 is_stmt 1
 418 02de D7F83828 		ldr	r2, [r7, #2104]
 419 02e2 D7F81C38 		ldr	r3, [r7, #2076]
 420 02e6 9A42     		cmp	r2, r3
 421 02e8 FFF60FAF 		blt	.L14
 196:main.c        ****             {
 197:main.c        ****                 maxim_heart_rate_and_oxygen_saturation(irBuffer, bufferLength, redBuffer, &spo2, &v
 422              		.loc 1 197 0
 423 02ec 07F25461 		addw	r1, r7, #1620
 424 02f0 07F10802 		add	r2, r7, #8
 425 02f4 07F54A70 		add	r0, r7, #808
 426 02f8 07F24B63 		addw	r3, r7, #1611
ARM GAS  C:\Users\Perro\AppData\Local\Temp\ccN4HOtd.s 			page 12


 427 02fc 0293     		str	r3, [sp, #8]
 428 02fe 07F24C63 		addw	r3, r7, #1612
 429 0302 0193     		str	r3, [sp, #4]
 430 0304 07F25363 		addw	r3, r7, #1619
 431 0308 0093     		str	r3, [sp]
 432 030a 0B46     		mov	r3, r1
 433 030c D7F81C18 		ldr	r1, [r7, #2076]
 434 0310 FFF7FEFF 		bl	maxim_heart_rate_and_oxygen_saturation
 198:main.c        ****                 j=bufferLength - 50;
 435              		.loc 1 198 0
 436 0314 D7F81C38 		ldr	r3, [r7, #2076]
 437 0318 323B     		subs	r3, r3, #50
 438 031a C7F83838 		str	r3, [r7, #2104]
 439              	.LBB4:
 199:main.c        ****                 for (int i=50; i<bufferLength; i++) 
 440              		.loc 1 199 0
 441 031e 3223     		movs	r3, #50
 442 0320 C7F82838 		str	r3, [r7, #2088]
 443 0324 3BE0     		b	.L11
 444              	.L16:
 445 0326 00BF     		.align	2
 446              	.L15:
 447 0328 00000000 		.word	UART_Debug_PutString
 448 032c 00000000 		.word	MAX30101_ISR
 449 0330 00000000 		.word	WAKEUP_TIMER
 450 0334 00000000 		.word	Count
 451 0338 00000000 		.word	Custom_ISR_RX
 452 033c 00000000 		.word	flag_SM
 453 0340 00000000 		.word	SM
 454 0344 00000000 		.word	count
 455 0348 00000000 		.word	.LC0
 456 034c 04000000 		.word	.LC1
 457 0350 0C000000 		.word	.LC2
 458 0354 10000000 		.word	.LC3
 459 0358 14000000 		.word	.LC4
 460              	.L12:
 200:main.c        ****                 {
 201:main.c        ****                     redBuffer[i-50] = redBuffer[i];
 461              		.loc 1 201 0 discriminator 3
 462 035c D7F82838 		ldr	r3, [r7, #2088]
 463 0360 A3F13202 		sub	r2, r3, #50
 464 0364 07F10803 		add	r3, r7, #8
 465 0368 D7F82818 		ldr	r1, [r7, #2088]
 466 036c 53F82110 		ldr	r1, [r3, r1, lsl #2]
 467 0370 07F10803 		add	r3, r7, #8
 468 0374 43F82210 		str	r1, [r3, r2, lsl #2]
 202:main.c        ****                     irBuffer[i-50] = irBuffer[i];
 469              		.loc 1 202 0 discriminator 3
 470 0378 D7F82838 		ldr	r3, [r7, #2088]
 471 037c A3F13202 		sub	r2, r3, #50
 472 0380 07F54A73 		add	r3, r7, #808
 473 0384 D7F82818 		ldr	r1, [r7, #2088]
 474 0388 53F82110 		ldr	r1, [r3, r1, lsl #2]
 475 038c 07F54A73 		add	r3, r7, #808
 476 0390 43F82210 		str	r1, [r3, r2, lsl #2]
 199:main.c        ****                 for (int i=50; i<bufferLength; i++) 
 477              		.loc 1 199 0 discriminator 3
ARM GAS  C:\Users\Perro\AppData\Local\Temp\ccN4HOtd.s 			page 13


 478 0394 D7F82838 		ldr	r3, [r7, #2088]
 479 0398 0133     		adds	r3, r3, #1
 480 039a C7F82838 		str	r3, [r7, #2088]
 481              	.L11:
 199:main.c        ****                 for (int i=50; i<bufferLength; i++) 
 482              		.loc 1 199 0 is_stmt 0 discriminator 1
 483 039e D7F82828 		ldr	r2, [r7, #2088]
 484 03a2 D7F81C38 		ldr	r3, [r7, #2076]
 485 03a6 9A42     		cmp	r2, r3
 486 03a8 D8DB     		blt	.L12
 487              	.LBE4:
 203:main.c        ****                 }
 204:main.c        ****                 debug_print("3,");
 488              		.loc 1 204 0 is_stmt 1
 489 03aa 2748     		ldr	r0, .L17
 490 03ac FFF7FEFF 		bl	UART_Debug_PutString
 205:main.c        ****                 sprintf(msg, "%ld,", spo2);
 491              		.loc 1 205 0
 492 03b0 07F25463 		addw	r3, r7, #1620
 493 03b4 1A68     		ldr	r2, [r3]
 494 03b6 07F25C63 		addw	r3, r7, #1628
 495 03ba 2449     		ldr	r1, .L17+4
 496 03bc 1846     		mov	r0, r3
 497 03be FFF7FEFF 		bl	sprintf
 206:main.c        ****                 debug_print(msg);
 498              		.loc 1 206 0
 499 03c2 07F25C63 		addw	r3, r7, #1628
 500 03c6 1846     		mov	r0, r3
 501 03c8 FFF7FEFF 		bl	UART_Debug_PutString
 207:main.c        ****                 debug_print("4,");
 502              		.loc 1 207 0
 503 03cc 2048     		ldr	r0, .L17+8
 504 03ce FFF7FEFF 		bl	UART_Debug_PutString
 208:main.c        ****                 sprintf(msg, "%ld\n", heartRate);
 505              		.loc 1 208 0
 506 03d2 07F24C63 		addw	r3, r7, #1612
 507 03d6 1A68     		ldr	r2, [r3]
 508 03d8 07F25C63 		addw	r3, r7, #1628
 509 03dc 1D49     		ldr	r1, .L17+12
 510 03de 1846     		mov	r0, r3
 511 03e0 FFF7FEFF 		bl	sprintf
 209:main.c        ****                 debug_print(msg);
 512              		.loc 1 209 0
 513 03e4 07F25C63 		addw	r3, r7, #1628
 514 03e8 1846     		mov	r0, r3
 515 03ea FFF7FEFF 		bl	UART_Debug_PutString
 210:main.c        ****                 if(heartRate > 50 && heartRate < 160) 
 516              		.loc 1 210 0
 517 03ee 07F24C63 		addw	r3, r7, #1612
 518 03f2 1B68     		ldr	r3, [r3]
 519 03f4 322B     		cmp	r3, #50
 520 03f6 7FF788AE 		ble	.L14
 521              		.loc 1 210 0 is_stmt 0 discriminator 1
 522 03fa 07F24C63 		addw	r3, r7, #1612
 523 03fe 1B68     		ldr	r3, [r3]
 524 0400 9F2B     		cmp	r3, #159
 525 0402 3FF782AE 		bgt	.L14
ARM GAS  C:\Users\Perro\AppData\Local\Temp\ccN4HOtd.s 			page 14


 211:main.c        ****                 {
 212:main.c        ****                     somma += heartRate;
 526              		.loc 1 212 0 is_stmt 1
 527 0406 07F24C63 		addw	r3, r7, #1612
 528 040a 1B68     		ldr	r3, [r3]
 529 040c D7F83028 		ldr	r2, [r7, #2096]
 530 0410 1344     		add	r3, r3, r2
 531 0412 C7F83038 		str	r3, [r7, #2096]
 213:main.c        ****                     if(f==3)
 532              		.loc 1 213 0
 533 0416 D7F82C38 		ldr	r3, [r7, #2092]
 534 041a 032B     		cmp	r3, #3
 535 041c 0ED1     		bne	.L13
 214:main.c        ****                     {
 215:main.c        ****                         somma = somma/3;
 536              		.loc 1 215 0
 537 041e D7F83038 		ldr	r3, [r7, #2096]
 538 0422 0D4A     		ldr	r2, .L17+16
 539 0424 82FB0312 		smull	r1, r2, r2, r3
 540 0428 DB17     		asrs	r3, r3, #31
 541 042a D31A     		subs	r3, r2, r3
 542 042c C7F83038 		str	r3, [r7, #2096]
 216:main.c        ****                         //debug_print("4,");
 217:main.c        ****                         //sprintf(msg, "%ld\n", somma);
 218:main.c        ****                         //debug_print(msg);
 219:main.c        ****                         f = 0;
 543              		.loc 1 219 0
 544 0430 0023     		movs	r3, #0
 545 0432 C7F82C38 		str	r3, [r7, #2092]
 220:main.c        ****                         somma = 0;
 546              		.loc 1 220 0
 547 0436 0023     		movs	r3, #0
 548 0438 C7F83038 		str	r3, [r7, #2096]
 549              	.L13:
 221:main.c        ****                     }
 222:main.c        ****                     f++;
 550              		.loc 1 222 0
 551 043c D7F82C38 		ldr	r3, [r7, #2092]
 552 0440 0133     		adds	r3, r3, #1
 553 0442 C7F82C38 		str	r3, [r7, #2092]
 554              	.LBE3:
 223:main.c        ****                 }
 224:main.c        ****             }
 225:main.c        ****         } 
 226:main.c        ****     } 
 555              		.loc 1 226 0
 556 0446 60E6     		b	.L14
 557              	.L18:
 558              		.align	2
 559              	.L17:
 560 0448 18000000 		.word	.LC5
 561 044c 04000000 		.word	.LC1
 562 0450 1C000000 		.word	.LC6
 563 0454 20000000 		.word	.LC7
 564 0458 56555555 		.word	1431655766
 565              		.cfi_endproc
 566              	.LFE64:
ARM GAS  C:\Users\Perro\AppData\Local\Temp\ccN4HOtd.s 			page 15


 567              		.size	main, .-main
 568              		.section	.text.WAKEUP_TIMER,"ax",%progbits
 569              		.align	2
 570              		.global	WAKEUP_TIMER
 571              		.thumb
 572              		.thumb_func
 573              		.type	WAKEUP_TIMER, %function
 574              	WAKEUP_TIMER:
 575              	.LFB65:
 227:main.c        **** }   
 228:main.c        **** 
 229:main.c        **** CY_ISR(WAKEUP_TIMER)
 230:main.c        **** {
 576              		.loc 1 230 0
 577              		.cfi_startproc
 578              		@ args = 0, pretend = 0, frame = 0
 579              		@ frame_needed = 1, uses_anonymous_args = 0
 580 0000 80B5     		push	{r7, lr}
 581              		.cfi_def_cfa_offset 8
 582              		.cfi_offset 7, -8
 583              		.cfi_offset 14, -4
 584 0002 00AF     		add	r7, sp, #0
 585              		.cfi_def_cfa_register 7
 231:main.c        ****     SleepTimer_GetStatus();
 586              		.loc 1 231 0
 587 0004 FFF7FEFF 		bl	SleepTimer_GetStatus
 232:main.c        **** }
 588              		.loc 1 232 0
 589 0008 00BF     		nop
 590 000a 80BD     		pop	{r7, pc}
 591              		.cfi_endproc
 592              	.LFE65:
 593              		.size	WAKEUP_TIMER, .-WAKEUP_TIMER
 594              		.section	.text.MAX30101_ISR,"ax",%progbits
 595              		.align	2
 596              		.global	MAX30101_ISR
 597              		.thumb
 598              		.thumb_func
 599              		.type	MAX30101_ISR, %function
 600              	MAX30101_ISR:
 601              	.LFB66:
 233:main.c        **** 
 234:main.c        **** 
 235:main.c        **** CY_ISR(MAX30101_ISR)
 236:main.c        **** {
 602              		.loc 1 236 0
 603              		.cfi_startproc
 604              		@ args = 0, pretend = 0, frame = 0
 605              		@ frame_needed = 1, uses_anonymous_args = 0
 606 0000 80B5     		push	{r7, lr}
 607              		.cfi_def_cfa_offset 8
 608              		.cfi_offset 7, -8
 609              		.cfi_offset 14, -4
 610 0002 00AF     		add	r7, sp, #0
 611              		.cfi_def_cfa_register 7
 237:main.c        ****     Connection_LED_Write(!Connection_LED_Read());
 612              		.loc 1 237 0
ARM GAS  C:\Users\Perro\AppData\Local\Temp\ccN4HOtd.s 			page 16


 613 0004 FFF7FEFF 		bl	Connection_LED_Read
 614 0008 0346     		mov	r3, r0
 615 000a 002B     		cmp	r3, #0
 616 000c 0CBF     		ite	eq
 617 000e 0123     		moveq	r3, #1
 618 0010 0023     		movne	r3, #0
 619 0012 DBB2     		uxtb	r3, r3
 620 0014 1846     		mov	r0, r3
 621 0016 FFF7FEFF 		bl	Connection_LED_Write
 238:main.c        ****     MAX30101_INT_ClearInterrupt();
 622              		.loc 1 238 0
 623 001a FFF7FEFF 		bl	MAX30101_INT_ClearInterrupt
 239:main.c        **** }
 624              		.loc 1 239 0
 625 001e 00BF     		nop
 626 0020 80BD     		pop	{r7, pc}
 627              		.cfi_endproc
 628              	.LFE66:
 629              		.size	MAX30101_ISR, .-MAX30101_ISR
 630 0022 00BF     		.text
 631              	.Letext0:
 632              		.file 2 "c:\\program files (x86)\\cypress\\psoc creator\\4.4\\psoc creator\\import\\gnu\\arm\\5.4.
 633              		.file 3 "c:\\program files (x86)\\cypress\\psoc creator\\4.4\\psoc creator\\import\\gnu\\arm\\5.4.
 634              		.file 4 "Generated_Source\\PSoC5/cytypes.h"
 635              		.file 5 "MAX30101.h"
 636              		.file 6 "Generated_Source\\PSoC5/core_cm3.h"
 637              		.file 7 "SpO2.h"
 638              		.section	.debug_info,"",%progbits
 639              	.Ldebug_info0:
 640 0000 0B040000 		.4byte	0x40b
 641 0004 0400     		.2byte	0x4
 642 0006 00000000 		.4byte	.Ldebug_abbrev0
 643 000a 04       		.byte	0x4
 644 000b 01       		.uleb128 0x1
 645 000c 1A000000 		.4byte	.LASF54
 646 0010 0C       		.byte	0xc
 647 0011 49020000 		.4byte	.LASF55
 648 0015 50010000 		.4byte	.LASF56
 649 0019 00000000 		.4byte	.Ldebug_ranges0+0
 650 001d 00000000 		.4byte	0
 651 0021 00000000 		.4byte	.Ldebug_line0
 652 0025 02       		.uleb128 0x2
 653 0026 1C020000 		.4byte	.LASF0
 654 002a 02       		.byte	0x2
 655 002b 1B       		.byte	0x1b
 656 002c 30000000 		.4byte	0x30
 657 0030 03       		.uleb128 0x3
 658 0031 01       		.byte	0x1
 659 0032 06       		.byte	0x6
 660 0033 BE010000 		.4byte	.LASF2
 661 0037 02       		.uleb128 0x2
 662 0038 12010000 		.4byte	.LASF1
 663 003c 02       		.byte	0x2
 664 003d 1D       		.byte	0x1d
 665 003e 42000000 		.4byte	0x42
 666 0042 03       		.uleb128 0x3
 667 0043 01       		.byte	0x1
ARM GAS  C:\Users\Perro\AppData\Local\Temp\ccN4HOtd.s 			page 17


 668 0044 08       		.byte	0x8
 669 0045 A5010000 		.4byte	.LASF3
 670 0049 03       		.uleb128 0x3
 671 004a 02       		.byte	0x2
 672 004b 05       		.byte	0x5
 673 004c 07000000 		.4byte	.LASF4
 674 0050 03       		.uleb128 0x3
 675 0051 02       		.byte	0x2
 676 0052 07       		.byte	0x7
 677 0053 09020000 		.4byte	.LASF5
 678 0057 02       		.uleb128 0x2
 679 0058 9F020000 		.4byte	.LASF6
 680 005c 02       		.byte	0x2
 681 005d 3F       		.byte	0x3f
 682 005e 62000000 		.4byte	0x62
 683 0062 03       		.uleb128 0x3
 684 0063 04       		.byte	0x4
 685 0064 05       		.byte	0x5
 686 0065 FC000000 		.4byte	.LASF7
 687 0069 02       		.uleb128 0x2
 688 006a AD000000 		.4byte	.LASF8
 689 006e 02       		.byte	0x2
 690 006f 41       		.byte	0x41
 691 0070 74000000 		.4byte	0x74
 692 0074 03       		.uleb128 0x3
 693 0075 04       		.byte	0x4
 694 0076 07       		.byte	0x7
 695 0077 50020000 		.4byte	.LASF9
 696 007b 03       		.uleb128 0x3
 697 007c 08       		.byte	0x8
 698 007d 05       		.byte	0x5
 699 007e EE000000 		.4byte	.LASF10
 700 0082 03       		.uleb128 0x3
 701 0083 08       		.byte	0x8
 702 0084 07       		.byte	0x7
 703 0085 CA010000 		.4byte	.LASF11
 704 0089 04       		.uleb128 0x4
 705 008a 04       		.byte	0x4
 706 008b 05       		.byte	0x5
 707 008c 696E7400 		.ascii	"int\000"
 708 0090 03       		.uleb128 0x3
 709 0091 04       		.byte	0x4
 710 0092 07       		.byte	0x7
 711 0093 EA010000 		.4byte	.LASF12
 712 0097 02       		.uleb128 0x2
 713 0098 00000000 		.4byte	.LASF13
 714 009c 03       		.byte	0x3
 715 009d 14       		.byte	0x14
 716 009e 25000000 		.4byte	0x25
 717 00a2 02       		.uleb128 0x2
 718 00a3 A9020000 		.4byte	.LASF14
 719 00a7 03       		.byte	0x3
 720 00a8 18       		.byte	0x18
 721 00a9 37000000 		.4byte	0x37
 722 00ad 02       		.uleb128 0x2
 723 00ae 32020000 		.4byte	.LASF15
 724 00b2 03       		.byte	0x3
ARM GAS  C:\Users\Perro\AppData\Local\Temp\ccN4HOtd.s 			page 18


 725 00b3 2C       		.byte	0x2c
 726 00b4 57000000 		.4byte	0x57
 727 00b8 02       		.uleb128 0x2
 728 00b9 E1010000 		.4byte	.LASF16
 729 00bd 03       		.byte	0x3
 730 00be 30       		.byte	0x30
 731 00bf 69000000 		.4byte	0x69
 732 00c3 05       		.uleb128 0x5
 733 00c4 D5000000 		.4byte	.LASF17
 734 00c8 04       		.byte	0x4
 735 00c9 E801     		.2byte	0x1e8
 736 00cb 42000000 		.4byte	0x42
 737 00cf 05       		.uleb128 0x5
 738 00d0 70020000 		.4byte	.LASF18
 739 00d4 04       		.byte	0x4
 740 00d5 ED01     		.2byte	0x1ed
 741 00d7 62000000 		.4byte	0x62
 742 00db 03       		.uleb128 0x3
 743 00dc 04       		.byte	0x4
 744 00dd 04       		.byte	0x4
 745 00de E8000000 		.4byte	.LASF19
 746 00e2 03       		.uleb128 0x3
 747 00e3 08       		.byte	0x8
 748 00e4 04       		.byte	0x4
 749 00e5 76020000 		.4byte	.LASF20
 750 00e9 03       		.uleb128 0x3
 751 00ea 01       		.byte	0x1
 752 00eb 08       		.byte	0x8
 753 00ec 2D020000 		.4byte	.LASF21
 754 00f0 06       		.uleb128 0x6
 755 00f1 C3000000 		.4byte	0xc3
 756 00f5 03       		.uleb128 0x3
 757 00f6 08       		.byte	0x8
 758 00f7 04       		.byte	0x4
 759 00f8 3D010000 		.4byte	.LASF22
 760 00fc 03       		.uleb128 0x3
 761 00fd 04       		.byte	0x4
 762 00fe 07       		.byte	0x7
 763 00ff 11000000 		.4byte	.LASF23
 764 0103 07       		.uleb128 0x7
 765 0104 04       		.byte	0x4
 766 0105 09010000 		.4byte	0x109
 767 0109 08       		.uleb128 0x8
 768 010a E9000000 		.4byte	0xe9
 769 010e 09       		.uleb128 0x9
 770 010f 8401     		.2byte	0x184
 771 0111 05       		.byte	0x5
 772 0112 1B       		.byte	0x1b
 773 0113 56010000 		.4byte	0x156
 774 0117 0A       		.uleb128 0xa
 775 0118 72656400 		.ascii	"red\000"
 776 011c 05       		.byte	0x5
 777 011d 1D       		.byte	0x1d
 778 011e 56010000 		.4byte	0x156
 779 0122 00       		.byte	0
 780 0123 0A       		.uleb128 0xa
 781 0124 495200   		.ascii	"IR\000"
ARM GAS  C:\Users\Perro\AppData\Local\Temp\ccN4HOtd.s 			page 19


 782 0127 05       		.byte	0x5
 783 0128 1E       		.byte	0x1e
 784 0129 56010000 		.4byte	0x156
 785 012d 80       		.byte	0x80
 786 012e 0B       		.uleb128 0xb
 787 012f 1C010000 		.4byte	.LASF24
 788 0133 05       		.byte	0x5
 789 0134 1F       		.byte	0x1f
 790 0135 56010000 		.4byte	0x156
 791 0139 0001     		.2byte	0x100
 792 013b 0B       		.uleb128 0xb
 793 013c B8000000 		.4byte	.LASF25
 794 0140 05       		.byte	0x5
 795 0141 20       		.byte	0x20
 796 0142 A2000000 		.4byte	0xa2
 797 0146 8001     		.2byte	0x180
 798 0148 0B       		.uleb128 0xb
 799 0149 B3010000 		.4byte	.LASF26
 800 014d 05       		.byte	0x5
 801 014e 21       		.byte	0x21
 802 014f A2000000 		.4byte	0xa2
 803 0153 8101     		.2byte	0x181
 804 0155 00       		.byte	0
 805 0156 0C       		.uleb128 0xc
 806 0157 B8000000 		.4byte	0xb8
 807 015b 66010000 		.4byte	0x166
 808 015f 0D       		.uleb128 0xd
 809 0160 FC000000 		.4byte	0xfc
 810 0164 1F       		.byte	0x1f
 811 0165 00       		.byte	0
 812 0166 02       		.uleb128 0x2
 813 0167 62020000 		.4byte	.LASF27
 814 016b 05       		.byte	0x5
 815 016c 22       		.byte	0x22
 816 016d 0E010000 		.4byte	0x10e
 817 0171 0E       		.uleb128 0xe
 818 0172 A8000000 		.4byte	.LASF57
 819 0176 01       		.byte	0x1
 820 0177 2D       		.byte	0x2d
 821 0178 89000000 		.4byte	0x89
 822 017c 00000000 		.4byte	.LFB64
 823 0180 5C040000 		.4byte	.LFE64-.LFB64
 824 0184 01       		.uleb128 0x1
 825 0185 9C       		.byte	0x9c
 826 0186 20030000 		.4byte	0x320
 827 018a 0F       		.uleb128 0xf
 828 018b 44020000 		.4byte	.LASF28
 829 018f 01       		.byte	0x1
 830 0190 30       		.byte	0x30
 831 0191 66010000 		.4byte	0x166
 832 0195 03       		.uleb128 0x3
 833 0196 91       		.byte	0x91
 834 0197 C87C     		.sleb128 -440
 835 0199 10       		.uleb128 0x10
 836 019a 6D736700 		.ascii	"msg\000"
 837 019e 01       		.byte	0x1
 838 019f 33       		.byte	0x33
ARM GAS  C:\Users\Perro\AppData\Local\Temp\ccN4HOtd.s 			page 20


 839 01a0 20030000 		.4byte	0x320
 840 01a4 03       		.uleb128 0x3
 841 01a5 91       		.byte	0x91
 842 01a6 947C     		.sleb128 -492
 843 01a8 0F       		.uleb128 0xf
 844 01a9 85020000 		.4byte	.LASF29
 845 01ad 01       		.byte	0x1
 846 01ae 34       		.byte	0x34
 847 01af 3B030000 		.4byte	0x33b
 848 01b3 02       		.uleb128 0x2
 849 01b4 91       		.byte	0x91
 850 01b5 5C       		.sleb128 -36
 851 01b6 0F       		.uleb128 0xf
 852 01b7 BE020000 		.4byte	.LASF30
 853 01bb 01       		.byte	0x1
 854 01bc 35       		.byte	0x35
 855 01bd A2000000 		.4byte	0xa2
 856 01c1 02       		.uleb128 0x2
 857 01c2 91       		.byte	0x91
 858 01c3 5B       		.sleb128 -37
 859 01c4 10       		.uleb128 0x10
 860 01c5 727000   		.ascii	"rp\000"
 861 01c8 01       		.byte	0x1
 862 01c9 36       		.byte	0x36
 863 01ca A2000000 		.4byte	0xa2
 864 01ce 03       		.uleb128 0x3
 865 01cf 91       		.byte	0x91
 866 01d0 937C     		.sleb128 -493
 867 01d2 10       		.uleb128 0x10
 868 01d3 777000   		.ascii	"wp\000"
 869 01d6 01       		.byte	0x1
 870 01d7 36       		.byte	0x36
 871 01d8 A2000000 		.4byte	0xa2
 872 01dc 03       		.uleb128 0x3
 873 01dd 91       		.byte	0x91
 874 01de 927C     		.sleb128 -494
 875 01e0 0F       		.uleb128 0xf
 876 01e1 CA020000 		.4byte	.LASF31
 877 01e5 01       		.byte	0x1
 878 01e6 36       		.byte	0x36
 879 01e7 A2000000 		.4byte	0xa2
 880 01eb 03       		.uleb128 0x3
 881 01ec 91       		.byte	0x91
 882 01ed 917C     		.sleb128 -495
 883 01ef 0F       		.uleb128 0xf
 884 01f0 B1020000 		.4byte	.LASF32
 885 01f4 01       		.byte	0x1
 886 01f5 37       		.byte	0x37
 887 01f6 AD000000 		.4byte	0xad
 888 01fa 03       		.uleb128 0x3
 889 01fb 91       		.byte	0x91
 890 01fc 8C7C     		.sleb128 -500
 891 01fe 0F       		.uleb128 0xf
 892 01ff 3A020000 		.4byte	.LASF33
 893 0203 01       		.byte	0x1
 894 0204 38       		.byte	0x38
 895 0205 97000000 		.4byte	0x97
ARM GAS  C:\Users\Perro\AppData\Local\Temp\ccN4HOtd.s 			page 21


 896 0209 03       		.uleb128 0x3
 897 020a 91       		.byte	0x91
 898 020b 8B7C     		.sleb128 -501
 899 020d 0F       		.uleb128 0xf
 900 020e 9B010000 		.4byte	.LASF34
 901 0212 01       		.byte	0x1
 902 0213 39       		.byte	0x39
 903 0214 AD000000 		.4byte	0xad
 904 0218 03       		.uleb128 0x3
 905 0219 91       		.byte	0x91
 906 021a 847C     		.sleb128 -508
 907 021c 0F       		.uleb128 0xf
 908 021d BD000000 		.4byte	.LASF35
 909 0221 01       		.byte	0x1
 910 0222 3A       		.byte	0x3a
 911 0223 97000000 		.4byte	0x97
 912 0227 03       		.uleb128 0x3
 913 0228 91       		.byte	0x91
 914 0229 837C     		.sleb128 -509
 915 022b 0F       		.uleb128 0xf
 916 022c CC000000 		.4byte	.LASF36
 917 0230 01       		.byte	0x1
 918 0231 3B       		.byte	0x3b
 919 0232 41030000 		.4byte	0x341
 920 0236 03       		.uleb128 0x3
 921 0237 91       		.byte	0x91
 922 0238 E075     		.sleb128 -1312
 923 023a 0F       		.uleb128 0xf
 924 023b 8F020000 		.4byte	.LASF37
 925 023f 01       		.byte	0x1
 926 0240 3C       		.byte	0x3c
 927 0241 41030000 		.4byte	0x341
 928 0245 03       		.uleb128 0x3
 929 0246 91       		.byte	0x91
 930 0247 C06F     		.sleb128 -2112
 931 0249 0F       		.uleb128 0xf
 932 024a 05010000 		.4byte	.LASF38
 933 024e 01       		.byte	0x1
 934 024f 3D       		.byte	0x3d
 935 0250 AD000000 		.4byte	0xad
 936 0254 02       		.uleb128 0x2
 937 0255 91       		.byte	0x91
 938 0256 54       		.sleb128 -44
 939 0257 0F       		.uleb128 0xf
 940 0258 E6020000 		.4byte	.LASF39
 941 025c 01       		.byte	0x1
 942 025d 3E       		.byte	0x3e
 943 025e 89000000 		.4byte	0x89
 944 0262 02       		.uleb128 0x2
 945 0263 91       		.byte	0x91
 946 0264 74       		.sleb128 -12
 947 0265 10       		.uleb128 0x10
 948 0266 6A00     		.ascii	"j\000"
 949 0268 01       		.byte	0x1
 950 0269 3F       		.byte	0x3f
 951 026a 89000000 		.4byte	0x89
 952 026e 02       		.uleb128 0x2
ARM GAS  C:\Users\Perro\AppData\Local\Temp\ccN4HOtd.s 			page 22


 953 026f 91       		.byte	0x91
 954 0270 70       		.sleb128 -16
 955 0271 0F       		.uleb128 0xf
 956 0272 2F010000 		.4byte	.LASF40
 957 0276 01       		.byte	0x1
 958 0277 40       		.byte	0x40
 959 0278 89000000 		.4byte	0x89
 960 027c 02       		.uleb128 0x2
 961 027d 91       		.byte	0x91
 962 027e 50       		.sleb128 -48
 963 027f 11       		.uleb128 0x11
 964 0280 99020000 		.4byte	.LASF41
 965 0284 01       		.byte	0x1
 966 0285 41       		.byte	0x41
 967 0286 51030000 		.4byte	0x351
 968 028a 12       		.uleb128 0x12
 969 028b 534D00   		.ascii	"SM\000"
 970 028e 01       		.byte	0x1
 971 028f 42       		.byte	0x42
 972 0290 F0000000 		.4byte	0xf0
 973 0294 11       		.uleb128 0x11
 974 0295 7D020000 		.4byte	.LASF42
 975 0299 01       		.byte	0x1
 976 029a 43       		.byte	0x43
 977 029b F0000000 		.4byte	0xf0
 978 029f 10       		.uleb128 0x10
 979 02a0 6900     		.ascii	"i\000"
 980 02a2 01       		.byte	0x1
 981 02a3 44       		.byte	0x44
 982 02a4 89000000 		.4byte	0x89
 983 02a8 02       		.uleb128 0x2
 984 02a9 91       		.byte	0x91
 985 02aa 6C       		.sleb128 -20
 986 02ab 0F       		.uleb128 0xf
 987 02ac B8010000 		.4byte	.LASF43
 988 02b0 01       		.byte	0x1
 989 02b1 45       		.byte	0x45
 990 02b2 AD000000 		.4byte	0xad
 991 02b6 02       		.uleb128 0x2
 992 02b7 91       		.byte	0x91
 993 02b8 68       		.sleb128 -24
 994 02b9 10       		.uleb128 0x10
 995 02ba 6600     		.ascii	"f\000"
 996 02bc 01       		.byte	0x1
 997 02bd 46       		.byte	0x46
 998 02be 89000000 		.4byte	0x89
 999 02c2 02       		.uleb128 0x2
 1000 02c3 91       		.byte	0x91
 1001 02c4 64       		.sleb128 -28
 1002 02c5 13       		.uleb128 0x13
 1003 02c6 6C000000 		.4byte	.LBB2
 1004 02ca 7C000000 		.4byte	.LBE2-.LBB2
 1005 02ce F1020000 		.4byte	0x2f1
 1006 02d2 0F       		.uleb128 0xf
 1007 02d3 49010000 		.4byte	.LASF44
 1008 02d7 01       		.byte	0x1
 1009 02d8 56       		.byte	0x56
ARM GAS  C:\Users\Perro\AppData\Local\Temp\ccN4HOtd.s 			page 23


 1010 02d9 A2000000 		.4byte	0xa2
 1011 02dd 03       		.uleb128 0x3
 1012 02de 91       		.byte	0x91
 1013 02df BF6F     		.sleb128 -2113
 1014 02e1 0F       		.uleb128 0xf
 1015 02e2 01020000 		.4byte	.LASF45
 1016 02e6 01       		.byte	0x1
 1017 02e7 56       		.byte	0x56
 1018 02e8 A2000000 		.4byte	0xa2
 1019 02ec 03       		.uleb128 0x3
 1020 02ed 91       		.byte	0x91
 1021 02ee BE6F     		.sleb128 -2114
 1022 02f0 00       		.byte	0
 1023 02f1 14       		.uleb128 0x14
 1024 02f2 0A010000 		.4byte	.LBB3
 1025 02f6 3C030000 		.4byte	.LBE3-.LBB3
 1026 02fa 0F       		.uleb128 0xf
 1027 02fb 25020000 		.4byte	.LASF46
 1028 02ff 01       		.byte	0x1
 1029 0300 8E       		.byte	0x8e
 1030 0301 CF000000 		.4byte	0xcf
 1031 0305 02       		.uleb128 0x2
 1032 0306 91       		.byte	0x91
 1033 0307 4C       		.sleb128 -52
 1034 0308 14       		.uleb128 0x14
 1035 0309 1E030000 		.4byte	.LBB4
 1036 030d 8C000000 		.4byte	.LBE4-.LBB4
 1037 0311 10       		.uleb128 0x10
 1038 0312 6900     		.ascii	"i\000"
 1039 0314 01       		.byte	0x1
 1040 0315 C7       		.byte	0xc7
 1041 0316 89000000 		.4byte	0x89
 1042 031a 02       		.uleb128 0x2
 1043 031b 91       		.byte	0x91
 1044 031c 60       		.sleb128 -32
 1045 031d 00       		.byte	0
 1046 031e 00       		.byte	0
 1047 031f 00       		.byte	0
 1048 0320 0C       		.uleb128 0xc
 1049 0321 E9000000 		.4byte	0xe9
 1050 0325 30030000 		.4byte	0x330
 1051 0329 0D       		.uleb128 0xd
 1052 032a FC000000 		.4byte	0xfc
 1053 032e 31       		.byte	0x31
 1054 032f 00       		.byte	0
 1055 0330 15       		.uleb128 0x15
 1056 0331 3B030000 		.4byte	0x33b
 1057 0335 16       		.uleb128 0x16
 1058 0336 03010000 		.4byte	0x103
 1059 033a 00       		.byte	0
 1060 033b 07       		.uleb128 0x7
 1061 033c 04       		.byte	0x4
 1062 033d 30030000 		.4byte	0x330
 1063 0341 0C       		.uleb128 0xc
 1064 0342 B8000000 		.4byte	0xb8
 1065 0346 51030000 		.4byte	0x351
 1066 034a 0D       		.uleb128 0xd
ARM GAS  C:\Users\Perro\AppData\Local\Temp\ccN4HOtd.s 			page 24


 1067 034b FC000000 		.4byte	0xfc
 1068 034f C7       		.byte	0xc7
 1069 0350 00       		.byte	0
 1070 0351 06       		.uleb128 0x6
 1071 0352 62000000 		.4byte	0x62
 1072 0356 17       		.uleb128 0x17
 1073 0357 DB000000 		.4byte	.LASF47
 1074 035b 01       		.byte	0x1
 1075 035c E5       		.byte	0xe5
 1076 035d 00000000 		.4byte	.LFB65
 1077 0361 0C000000 		.4byte	.LFE65-.LFB65
 1078 0365 01       		.uleb128 0x1
 1079 0366 9C       		.byte	0x9c
 1080 0367 17       		.uleb128 0x17
 1081 0368 22010000 		.4byte	.LASF48
 1082 036c 01       		.byte	0x1
 1083 036d EB       		.byte	0xeb
 1084 036e 00000000 		.4byte	.LFB66
 1085 0372 22000000 		.4byte	.LFE66-.LFB66
 1086 0376 01       		.uleb128 0x1
 1087 0377 9C       		.byte	0x9c
 1088 0378 18       		.uleb128 0x18
 1089 0379 D9020000 		.4byte	.LASF49
 1090 037d 06       		.byte	0x6
 1091 037e 1207     		.2byte	0x712
 1092 0380 84030000 		.4byte	0x384
 1093 0384 06       		.uleb128 0x6
 1094 0385 AD000000 		.4byte	0xad
 1095 0389 19       		.uleb128 0x19
 1096 038a 44020000 		.4byte	.LASF28
 1097 038e 05       		.byte	0x5
 1098 038f 24       		.byte	0x24
 1099 0390 66010000 		.4byte	0x166
 1100 0394 05       		.uleb128 0x5
 1101 0395 03       		.byte	0x3
 1102 0396 00000000 		.4byte	data
 1103 039a 0C       		.uleb128 0xc
 1104 039b AD000000 		.4byte	0xad
 1105 039f AA030000 		.4byte	0x3aa
 1106 03a3 0D       		.uleb128 0xd
 1107 03a4 FC000000 		.4byte	0xfc
 1108 03a8 C7       		.byte	0xc7
 1109 03a9 00       		.byte	0
 1110 03aa 19       		.uleb128 0x19
 1111 03ab CF020000 		.4byte	.LASF50
 1112 03af 07       		.byte	0x7
 1113 03b0 1C       		.byte	0x1c
 1114 03b1 9A030000 		.4byte	0x39a
 1115 03b5 05       		.uleb128 0x5
 1116 03b6 03       		.byte	0x3
 1117 03b7 00000000 		.4byte	an_x
 1118 03bb 19       		.uleb128 0x19
 1119 03bc D4020000 		.4byte	.LASF51
 1120 03c0 07       		.byte	0x7
 1121 03c1 1D       		.byte	0x1d
 1122 03c2 9A030000 		.4byte	0x39a
 1123 03c6 05       		.uleb128 0x5
ARM GAS  C:\Users\Perro\AppData\Local\Temp\ccN4HOtd.s 			page 25


 1124 03c7 03       		.byte	0x3
 1125 03c8 00000000 		.4byte	an_y
 1126 03cc 19       		.uleb128 0x19
 1127 03cd F7010000 		.4byte	.LASF52
 1128 03d1 01       		.byte	0x1
 1129 03d2 2A       		.byte	0x2a
 1130 03d3 A2000000 		.4byte	0xa2
 1131 03d7 05       		.uleb128 0x5
 1132 03d8 03       		.byte	0x3
 1133 03d9 00000000 		.4byte	flag_temp
 1134 03dd 19       		.uleb128 0x19
 1135 03de B6020000 		.4byte	.LASF53
 1136 03e2 01       		.byte	0x1
 1137 03e3 2B       		.byte	0x2b
 1138 03e4 A2000000 		.4byte	0xa2
 1139 03e8 05       		.uleb128 0x5
 1140 03e9 03       		.byte	0x3
 1141 03ea 00000000 		.4byte	flag_1s
 1142 03ee 11       		.uleb128 0x11
 1143 03ef 99020000 		.4byte	.LASF41
 1144 03f3 01       		.byte	0x1
 1145 03f4 41       		.byte	0x41
 1146 03f5 51030000 		.4byte	0x351
 1147 03f9 12       		.uleb128 0x12
 1148 03fa 534D00   		.ascii	"SM\000"
 1149 03fd 01       		.byte	0x1
 1150 03fe 42       		.byte	0x42
 1151 03ff F0000000 		.4byte	0xf0
 1152 0403 11       		.uleb128 0x11
 1153 0404 7D020000 		.4byte	.LASF42
 1154 0408 01       		.byte	0x1
 1155 0409 43       		.byte	0x43
 1156 040a F0000000 		.4byte	0xf0
 1157 040e 00       		.byte	0
 1158              		.section	.debug_abbrev,"",%progbits
 1159              	.Ldebug_abbrev0:
 1160 0000 01       		.uleb128 0x1
 1161 0001 11       		.uleb128 0x11
 1162 0002 01       		.byte	0x1
 1163 0003 25       		.uleb128 0x25
 1164 0004 0E       		.uleb128 0xe
 1165 0005 13       		.uleb128 0x13
 1166 0006 0B       		.uleb128 0xb
 1167 0007 03       		.uleb128 0x3
 1168 0008 0E       		.uleb128 0xe
 1169 0009 1B       		.uleb128 0x1b
 1170 000a 0E       		.uleb128 0xe
 1171 000b 55       		.uleb128 0x55
 1172 000c 17       		.uleb128 0x17
 1173 000d 11       		.uleb128 0x11
 1174 000e 01       		.uleb128 0x1
 1175 000f 10       		.uleb128 0x10
 1176 0010 17       		.uleb128 0x17
 1177 0011 00       		.byte	0
 1178 0012 00       		.byte	0
 1179 0013 02       		.uleb128 0x2
 1180 0014 16       		.uleb128 0x16
ARM GAS  C:\Users\Perro\AppData\Local\Temp\ccN4HOtd.s 			page 26


 1181 0015 00       		.byte	0
 1182 0016 03       		.uleb128 0x3
 1183 0017 0E       		.uleb128 0xe
 1184 0018 3A       		.uleb128 0x3a
 1185 0019 0B       		.uleb128 0xb
 1186 001a 3B       		.uleb128 0x3b
 1187 001b 0B       		.uleb128 0xb
 1188 001c 49       		.uleb128 0x49
 1189 001d 13       		.uleb128 0x13
 1190 001e 00       		.byte	0
 1191 001f 00       		.byte	0
 1192 0020 03       		.uleb128 0x3
 1193 0021 24       		.uleb128 0x24
 1194 0022 00       		.byte	0
 1195 0023 0B       		.uleb128 0xb
 1196 0024 0B       		.uleb128 0xb
 1197 0025 3E       		.uleb128 0x3e
 1198 0026 0B       		.uleb128 0xb
 1199 0027 03       		.uleb128 0x3
 1200 0028 0E       		.uleb128 0xe
 1201 0029 00       		.byte	0
 1202 002a 00       		.byte	0
 1203 002b 04       		.uleb128 0x4
 1204 002c 24       		.uleb128 0x24
 1205 002d 00       		.byte	0
 1206 002e 0B       		.uleb128 0xb
 1207 002f 0B       		.uleb128 0xb
 1208 0030 3E       		.uleb128 0x3e
 1209 0031 0B       		.uleb128 0xb
 1210 0032 03       		.uleb128 0x3
 1211 0033 08       		.uleb128 0x8
 1212 0034 00       		.byte	0
 1213 0035 00       		.byte	0
 1214 0036 05       		.uleb128 0x5
 1215 0037 16       		.uleb128 0x16
 1216 0038 00       		.byte	0
 1217 0039 03       		.uleb128 0x3
 1218 003a 0E       		.uleb128 0xe
 1219 003b 3A       		.uleb128 0x3a
 1220 003c 0B       		.uleb128 0xb
 1221 003d 3B       		.uleb128 0x3b
 1222 003e 05       		.uleb128 0x5
 1223 003f 49       		.uleb128 0x49
 1224 0040 13       		.uleb128 0x13
 1225 0041 00       		.byte	0
 1226 0042 00       		.byte	0
 1227 0043 06       		.uleb128 0x6
 1228 0044 35       		.uleb128 0x35
 1229 0045 00       		.byte	0
 1230 0046 49       		.uleb128 0x49
 1231 0047 13       		.uleb128 0x13
 1232 0048 00       		.byte	0
 1233 0049 00       		.byte	0
 1234 004a 07       		.uleb128 0x7
 1235 004b 0F       		.uleb128 0xf
 1236 004c 00       		.byte	0
 1237 004d 0B       		.uleb128 0xb
ARM GAS  C:\Users\Perro\AppData\Local\Temp\ccN4HOtd.s 			page 27


 1238 004e 0B       		.uleb128 0xb
 1239 004f 49       		.uleb128 0x49
 1240 0050 13       		.uleb128 0x13
 1241 0051 00       		.byte	0
 1242 0052 00       		.byte	0
 1243 0053 08       		.uleb128 0x8
 1244 0054 26       		.uleb128 0x26
 1245 0055 00       		.byte	0
 1246 0056 49       		.uleb128 0x49
 1247 0057 13       		.uleb128 0x13
 1248 0058 00       		.byte	0
 1249 0059 00       		.byte	0
 1250 005a 09       		.uleb128 0x9
 1251 005b 13       		.uleb128 0x13
 1252 005c 01       		.byte	0x1
 1253 005d 0B       		.uleb128 0xb
 1254 005e 05       		.uleb128 0x5
 1255 005f 3A       		.uleb128 0x3a
 1256 0060 0B       		.uleb128 0xb
 1257 0061 3B       		.uleb128 0x3b
 1258 0062 0B       		.uleb128 0xb
 1259 0063 01       		.uleb128 0x1
 1260 0064 13       		.uleb128 0x13
 1261 0065 00       		.byte	0
 1262 0066 00       		.byte	0
 1263 0067 0A       		.uleb128 0xa
 1264 0068 0D       		.uleb128 0xd
 1265 0069 00       		.byte	0
 1266 006a 03       		.uleb128 0x3
 1267 006b 08       		.uleb128 0x8
 1268 006c 3A       		.uleb128 0x3a
 1269 006d 0B       		.uleb128 0xb
 1270 006e 3B       		.uleb128 0x3b
 1271 006f 0B       		.uleb128 0xb
 1272 0070 49       		.uleb128 0x49
 1273 0071 13       		.uleb128 0x13
 1274 0072 38       		.uleb128 0x38
 1275 0073 0B       		.uleb128 0xb
 1276 0074 00       		.byte	0
 1277 0075 00       		.byte	0
 1278 0076 0B       		.uleb128 0xb
 1279 0077 0D       		.uleb128 0xd
 1280 0078 00       		.byte	0
 1281 0079 03       		.uleb128 0x3
 1282 007a 0E       		.uleb128 0xe
 1283 007b 3A       		.uleb128 0x3a
 1284 007c 0B       		.uleb128 0xb
 1285 007d 3B       		.uleb128 0x3b
 1286 007e 0B       		.uleb128 0xb
 1287 007f 49       		.uleb128 0x49
 1288 0080 13       		.uleb128 0x13
 1289 0081 38       		.uleb128 0x38
 1290 0082 05       		.uleb128 0x5
 1291 0083 00       		.byte	0
 1292 0084 00       		.byte	0
 1293 0085 0C       		.uleb128 0xc
 1294 0086 01       		.uleb128 0x1
ARM GAS  C:\Users\Perro\AppData\Local\Temp\ccN4HOtd.s 			page 28


 1295 0087 01       		.byte	0x1
 1296 0088 49       		.uleb128 0x49
 1297 0089 13       		.uleb128 0x13
 1298 008a 01       		.uleb128 0x1
 1299 008b 13       		.uleb128 0x13
 1300 008c 00       		.byte	0
 1301 008d 00       		.byte	0
 1302 008e 0D       		.uleb128 0xd
 1303 008f 21       		.uleb128 0x21
 1304 0090 00       		.byte	0
 1305 0091 49       		.uleb128 0x49
 1306 0092 13       		.uleb128 0x13
 1307 0093 2F       		.uleb128 0x2f
 1308 0094 0B       		.uleb128 0xb
 1309 0095 00       		.byte	0
 1310 0096 00       		.byte	0
 1311 0097 0E       		.uleb128 0xe
 1312 0098 2E       		.uleb128 0x2e
 1313 0099 01       		.byte	0x1
 1314 009a 3F       		.uleb128 0x3f
 1315 009b 19       		.uleb128 0x19
 1316 009c 03       		.uleb128 0x3
 1317 009d 0E       		.uleb128 0xe
 1318 009e 3A       		.uleb128 0x3a
 1319 009f 0B       		.uleb128 0xb
 1320 00a0 3B       		.uleb128 0x3b
 1321 00a1 0B       		.uleb128 0xb
 1322 00a2 27       		.uleb128 0x27
 1323 00a3 19       		.uleb128 0x19
 1324 00a4 49       		.uleb128 0x49
 1325 00a5 13       		.uleb128 0x13
 1326 00a6 11       		.uleb128 0x11
 1327 00a7 01       		.uleb128 0x1
 1328 00a8 12       		.uleb128 0x12
 1329 00a9 06       		.uleb128 0x6
 1330 00aa 40       		.uleb128 0x40
 1331 00ab 18       		.uleb128 0x18
 1332 00ac 9642     		.uleb128 0x2116
 1333 00ae 19       		.uleb128 0x19
 1334 00af 01       		.uleb128 0x1
 1335 00b0 13       		.uleb128 0x13
 1336 00b1 00       		.byte	0
 1337 00b2 00       		.byte	0
 1338 00b3 0F       		.uleb128 0xf
 1339 00b4 34       		.uleb128 0x34
 1340 00b5 00       		.byte	0
 1341 00b6 03       		.uleb128 0x3
 1342 00b7 0E       		.uleb128 0xe
 1343 00b8 3A       		.uleb128 0x3a
 1344 00b9 0B       		.uleb128 0xb
 1345 00ba 3B       		.uleb128 0x3b
 1346 00bb 0B       		.uleb128 0xb
 1347 00bc 49       		.uleb128 0x49
 1348 00bd 13       		.uleb128 0x13
 1349 00be 02       		.uleb128 0x2
 1350 00bf 18       		.uleb128 0x18
 1351 00c0 00       		.byte	0
ARM GAS  C:\Users\Perro\AppData\Local\Temp\ccN4HOtd.s 			page 29


 1352 00c1 00       		.byte	0
 1353 00c2 10       		.uleb128 0x10
 1354 00c3 34       		.uleb128 0x34
 1355 00c4 00       		.byte	0
 1356 00c5 03       		.uleb128 0x3
 1357 00c6 08       		.uleb128 0x8
 1358 00c7 3A       		.uleb128 0x3a
 1359 00c8 0B       		.uleb128 0xb
 1360 00c9 3B       		.uleb128 0x3b
 1361 00ca 0B       		.uleb128 0xb
 1362 00cb 49       		.uleb128 0x49
 1363 00cc 13       		.uleb128 0x13
 1364 00cd 02       		.uleb128 0x2
 1365 00ce 18       		.uleb128 0x18
 1366 00cf 00       		.byte	0
 1367 00d0 00       		.byte	0
 1368 00d1 11       		.uleb128 0x11
 1369 00d2 34       		.uleb128 0x34
 1370 00d3 00       		.byte	0
 1371 00d4 03       		.uleb128 0x3
 1372 00d5 0E       		.uleb128 0xe
 1373 00d6 3A       		.uleb128 0x3a
 1374 00d7 0B       		.uleb128 0xb
 1375 00d8 3B       		.uleb128 0x3b
 1376 00d9 0B       		.uleb128 0xb
 1377 00da 49       		.uleb128 0x49
 1378 00db 13       		.uleb128 0x13
 1379 00dc 3F       		.uleb128 0x3f
 1380 00dd 19       		.uleb128 0x19
 1381 00de 3C       		.uleb128 0x3c
 1382 00df 19       		.uleb128 0x19
 1383 00e0 00       		.byte	0
 1384 00e1 00       		.byte	0
 1385 00e2 12       		.uleb128 0x12
 1386 00e3 34       		.uleb128 0x34
 1387 00e4 00       		.byte	0
 1388 00e5 03       		.uleb128 0x3
 1389 00e6 08       		.uleb128 0x8
 1390 00e7 3A       		.uleb128 0x3a
 1391 00e8 0B       		.uleb128 0xb
 1392 00e9 3B       		.uleb128 0x3b
 1393 00ea 0B       		.uleb128 0xb
 1394 00eb 49       		.uleb128 0x49
 1395 00ec 13       		.uleb128 0x13
 1396 00ed 3F       		.uleb128 0x3f
 1397 00ee 19       		.uleb128 0x19
 1398 00ef 3C       		.uleb128 0x3c
 1399 00f0 19       		.uleb128 0x19
 1400 00f1 00       		.byte	0
 1401 00f2 00       		.byte	0
 1402 00f3 13       		.uleb128 0x13
 1403 00f4 0B       		.uleb128 0xb
 1404 00f5 01       		.byte	0x1
 1405 00f6 11       		.uleb128 0x11
 1406 00f7 01       		.uleb128 0x1
 1407 00f8 12       		.uleb128 0x12
 1408 00f9 06       		.uleb128 0x6
ARM GAS  C:\Users\Perro\AppData\Local\Temp\ccN4HOtd.s 			page 30


 1409 00fa 01       		.uleb128 0x1
 1410 00fb 13       		.uleb128 0x13
 1411 00fc 00       		.byte	0
 1412 00fd 00       		.byte	0
 1413 00fe 14       		.uleb128 0x14
 1414 00ff 0B       		.uleb128 0xb
 1415 0100 01       		.byte	0x1
 1416 0101 11       		.uleb128 0x11
 1417 0102 01       		.uleb128 0x1
 1418 0103 12       		.uleb128 0x12
 1419 0104 06       		.uleb128 0x6
 1420 0105 00       		.byte	0
 1421 0106 00       		.byte	0
 1422 0107 15       		.uleb128 0x15
 1423 0108 15       		.uleb128 0x15
 1424 0109 01       		.byte	0x1
 1425 010a 27       		.uleb128 0x27
 1426 010b 19       		.uleb128 0x19
 1427 010c 01       		.uleb128 0x1
 1428 010d 13       		.uleb128 0x13
 1429 010e 00       		.byte	0
 1430 010f 00       		.byte	0
 1431 0110 16       		.uleb128 0x16
 1432 0111 05       		.uleb128 0x5
 1433 0112 00       		.byte	0
 1434 0113 49       		.uleb128 0x49
 1435 0114 13       		.uleb128 0x13
 1436 0115 00       		.byte	0
 1437 0116 00       		.byte	0
 1438 0117 17       		.uleb128 0x17
 1439 0118 2E       		.uleb128 0x2e
 1440 0119 00       		.byte	0
 1441 011a 3F       		.uleb128 0x3f
 1442 011b 19       		.uleb128 0x19
 1443 011c 03       		.uleb128 0x3
 1444 011d 0E       		.uleb128 0xe
 1445 011e 3A       		.uleb128 0x3a
 1446 011f 0B       		.uleb128 0xb
 1447 0120 3B       		.uleb128 0x3b
 1448 0121 0B       		.uleb128 0xb
 1449 0122 27       		.uleb128 0x27
 1450 0123 19       		.uleb128 0x19
 1451 0124 11       		.uleb128 0x11
 1452 0125 01       		.uleb128 0x1
 1453 0126 12       		.uleb128 0x12
 1454 0127 06       		.uleb128 0x6
 1455 0128 40       		.uleb128 0x40
 1456 0129 18       		.uleb128 0x18
 1457 012a 9642     		.uleb128 0x2116
 1458 012c 19       		.uleb128 0x19
 1459 012d 00       		.byte	0
 1460 012e 00       		.byte	0
 1461 012f 18       		.uleb128 0x18
 1462 0130 34       		.uleb128 0x34
 1463 0131 00       		.byte	0
 1464 0132 03       		.uleb128 0x3
 1465 0133 0E       		.uleb128 0xe
ARM GAS  C:\Users\Perro\AppData\Local\Temp\ccN4HOtd.s 			page 31


 1466 0134 3A       		.uleb128 0x3a
 1467 0135 0B       		.uleb128 0xb
 1468 0136 3B       		.uleb128 0x3b
 1469 0137 05       		.uleb128 0x5
 1470 0138 49       		.uleb128 0x49
 1471 0139 13       		.uleb128 0x13
 1472 013a 3F       		.uleb128 0x3f
 1473 013b 19       		.uleb128 0x19
 1474 013c 3C       		.uleb128 0x3c
 1475 013d 19       		.uleb128 0x19
 1476 013e 00       		.byte	0
 1477 013f 00       		.byte	0
 1478 0140 19       		.uleb128 0x19
 1479 0141 34       		.uleb128 0x34
 1480 0142 00       		.byte	0
 1481 0143 03       		.uleb128 0x3
 1482 0144 0E       		.uleb128 0xe
 1483 0145 3A       		.uleb128 0x3a
 1484 0146 0B       		.uleb128 0xb
 1485 0147 3B       		.uleb128 0x3b
 1486 0148 0B       		.uleb128 0xb
 1487 0149 49       		.uleb128 0x49
 1488 014a 13       		.uleb128 0x13
 1489 014b 3F       		.uleb128 0x3f
 1490 014c 19       		.uleb128 0x19
 1491 014d 02       		.uleb128 0x2
 1492 014e 18       		.uleb128 0x18
 1493 014f 00       		.byte	0
 1494 0150 00       		.byte	0
 1495 0151 00       		.byte	0
 1496              		.section	.debug_aranges,"",%progbits
 1497 0000 2C000000 		.4byte	0x2c
 1498 0004 0200     		.2byte	0x2
 1499 0006 00000000 		.4byte	.Ldebug_info0
 1500 000a 04       		.byte	0x4
 1501 000b 00       		.byte	0
 1502 000c 0000     		.2byte	0
 1503 000e 0000     		.2byte	0
 1504 0010 00000000 		.4byte	.LFB64
 1505 0014 5C040000 		.4byte	.LFE64-.LFB64
 1506 0018 00000000 		.4byte	.LFB65
 1507 001c 0C000000 		.4byte	.LFE65-.LFB65
 1508 0020 00000000 		.4byte	.LFB66
 1509 0024 22000000 		.4byte	.LFE66-.LFB66
 1510 0028 00000000 		.4byte	0
 1511 002c 00000000 		.4byte	0
 1512              		.section	.debug_ranges,"",%progbits
 1513              	.Ldebug_ranges0:
 1514 0000 00000000 		.4byte	.LFB64
 1515 0004 5C040000 		.4byte	.LFE64
 1516 0008 00000000 		.4byte	.LFB65
 1517 000c 0C000000 		.4byte	.LFE65
 1518 0010 00000000 		.4byte	.LFB66
 1519 0014 22000000 		.4byte	.LFE66
 1520 0018 00000000 		.4byte	0
 1521 001c 00000000 		.4byte	0
 1522              		.section	.debug_line,"",%progbits
ARM GAS  C:\Users\Perro\AppData\Local\Temp\ccN4HOtd.s 			page 32


 1523              	.Ldebug_line0:
 1524 0000 49020000 		.section	.debug_str,"MS",%progbits,1
 1524      02006401 
 1524      00000201 
 1524      FB0E0D00 
 1524      01010101 
 1525              	.LASF13:
 1526 0000 696E7438 		.ascii	"int8_t\000"
 1526      5F7400
 1527              	.LASF4:
 1528 0007 73686F72 		.ascii	"short int\000"
 1528      7420696E 
 1528      7400
 1529              	.LASF23:
 1530 0011 73697A65 		.ascii	"sizetype\000"
 1530      74797065 
 1530      00
 1531              	.LASF54:
 1532 001a 474E5520 		.ascii	"GNU C11 5.4.1 20160609 (release) [ARM/embedded-5-br"
 1532      43313120 
 1532      352E342E 
 1532      31203230 
 1532      31363036 
 1533 004d 616E6368 		.ascii	"anch revision 237715] -mcpu=cortex-m3 -mthumb -g -O"
 1533      20726576 
 1533      6973696F 
 1533      6E203233 
 1533      37373135 
 1534 0080 30202D66 		.ascii	"0 -ffunction-sections -ffat-lto-objects\000"
 1534      66756E63 
 1534      74696F6E 
 1534      2D736563 
 1534      74696F6E 
 1535              	.LASF57:
 1536 00a8 6D61696E 		.ascii	"main\000"
 1536      00
 1537              	.LASF8:
 1538 00ad 5F5F7569 		.ascii	"__uint32_t\000"
 1538      6E743332 
 1538      5F7400
 1539              	.LASF25:
 1540 00b8 68656164 		.ascii	"head\000"
 1540      00
 1541              	.LASF35:
 1542 00bd 76616C69 		.ascii	"validHeartRate\000"
 1542      64486561 
 1542      72745261 
 1542      746500
 1543              	.LASF36:
 1544 00cc 69724275 		.ascii	"irBuffer\000"
 1544      66666572 
 1544      00
 1545              	.LASF17:
 1546 00d5 75696E74 		.ascii	"uint8\000"
 1546      3800
 1547              	.LASF47:
 1548 00db 57414B45 		.ascii	"WAKEUP_TIMER\000"
ARM GAS  C:\Users\Perro\AppData\Local\Temp\ccN4HOtd.s 			page 33


 1548      55505F54 
 1548      494D4552 
 1548      00
 1549              	.LASF19:
 1550 00e8 666C6F61 		.ascii	"float\000"
 1550      7400
 1551              	.LASF10:
 1552 00ee 6C6F6E67 		.ascii	"long long int\000"
 1552      206C6F6E 
 1552      6720696E 
 1552      7400
 1553              	.LASF7:
 1554 00fc 6C6F6E67 		.ascii	"long int\000"
 1554      20696E74 
 1554      00
 1555              	.LASF38:
 1556 0105 62756666 		.ascii	"bufferLength\000"
 1556      65724C65 
 1556      6E677468 
 1556      00
 1557              	.LASF1:
 1558 0112 5F5F7569 		.ascii	"__uint8_t\000"
 1558      6E74385F 
 1558      7400
 1559              	.LASF24:
 1560 011c 67726565 		.ascii	"green\000"
 1560      6E00
 1561              	.LASF48:
 1562 0122 4D415833 		.ascii	"MAX30101_ISR\000"
 1562      30313031 
 1562      5F495352 
 1562      00
 1563              	.LASF40:
 1564 012f 4649464F 		.ascii	"FIFO_max_size\000"
 1564      5F6D6178 
 1564      5F73697A 
 1564      6500
 1565              	.LASF22:
 1566 013d 6C6F6E67 		.ascii	"long double\000"
 1566      20646F75 
 1566      626C6500 
 1567              	.LASF44:
 1568 0149 7265765F 		.ascii	"rev_id\000"
 1568      696400
 1569              	.LASF56:
 1570 0150 433A5C55 		.ascii	"C:\\Users\\Perro\\Desktop\\AY2122_II_Project-1\\Pro"
 1570      73657273 
 1570      5C506572 
 1570      726F5C44 
 1570      65736B74 
 1571 017e 6A656374 		.ascii	"ject_LTEBS\\Saturimetro.cydsn\000"
 1571      5F4C5445 
 1571      42535C53 
 1571      61747572 
 1571      696D6574 
 1572              	.LASF34:
 1573 019b 68656172 		.ascii	"heartRate\000"
ARM GAS  C:\Users\Perro\AppData\Local\Temp\ccN4HOtd.s 			page 34


 1573      74526174 
 1573      6500
 1574              	.LASF3:
 1575 01a5 756E7369 		.ascii	"unsigned char\000"
 1575      676E6564 
 1575      20636861 
 1575      7200
 1576              	.LASF26:
 1577 01b3 7461696C 		.ascii	"tail\000"
 1577      00
 1578              	.LASF43:
 1579 01b8 736F6D6D 		.ascii	"somma\000"
 1579      6100
 1580              	.LASF2:
 1581 01be 7369676E 		.ascii	"signed char\000"
 1581      65642063 
 1581      68617200 
 1582              	.LASF11:
 1583 01ca 6C6F6E67 		.ascii	"long long unsigned int\000"
 1583      206C6F6E 
 1583      6720756E 
 1583      7369676E 
 1583      65642069 
 1584              	.LASF16:
 1585 01e1 75696E74 		.ascii	"uint32_t\000"
 1585      33325F74 
 1585      00
 1586              	.LASF12:
 1587 01ea 756E7369 		.ascii	"unsigned int\000"
 1587      676E6564 
 1587      20696E74 
 1587      00
 1588              	.LASF52:
 1589 01f7 666C6167 		.ascii	"flag_temp\000"
 1589      5F74656D 
 1589      7000
 1590              	.LASF45:
 1591 0201 70617274 		.ascii	"part_id\000"
 1591      5F696400 
 1592              	.LASF5:
 1593 0209 73686F72 		.ascii	"short unsigned int\000"
 1593      7420756E 
 1593      7369676E 
 1593      65642069 
 1593      6E7400
 1594              	.LASF0:
 1595 021c 5F5F696E 		.ascii	"__int8_t\000"
 1595      74385F74 
 1595      00
 1596              	.LASF46:
 1597 0225 69725661 		.ascii	"irValue\000"
 1597      6C756500 
 1598              	.LASF21:
 1599 022d 63686172 		.ascii	"char\000"
 1599      00
 1600              	.LASF15:
 1601 0232 696E7433 		.ascii	"int32_t\000"
ARM GAS  C:\Users\Perro\AppData\Local\Temp\ccN4HOtd.s 			page 35


 1601      325F7400 
 1602              	.LASF33:
 1603 023a 76616C69 		.ascii	"validSPO2\000"
 1603      6453504F 
 1603      3200
 1604              	.LASF28:
 1605 0244 64617461 		.ascii	"data\000"
 1605      00
 1606              	.LASF55:
 1607 0249 6D61696E 		.ascii	"main.c\000"
 1607      2E6300
 1608              	.LASF9:
 1609 0250 6C6F6E67 		.ascii	"long unsigned int\000"
 1609      20756E73 
 1609      69676E65 
 1609      6420696E 
 1609      7400
 1610              	.LASF27:
 1611 0262 4D415833 		.ascii	"MAX30101_Data\000"
 1611      30313031 
 1611      5F446174 
 1611      6100
 1612              	.LASF18:
 1613 0270 696E7433 		.ascii	"int32\000"
 1613      3200
 1614              	.LASF20:
 1615 0276 646F7562 		.ascii	"double\000"
 1615      6C6500
 1616              	.LASF42:
 1617 027d 666C6167 		.ascii	"flag_SM\000"
 1617      5F534D00 
 1618              	.LASF29:
 1619 0285 7072696E 		.ascii	"print_ptr\000"
 1619      745F7074 
 1619      7200
 1620              	.LASF37:
 1621 028f 72656442 		.ascii	"redBuffer\000"
 1621      75666665 
 1621      7200
 1622              	.LASF41:
 1623 0299 636F756E 		.ascii	"count\000"
 1623      7400
 1624              	.LASF6:
 1625 029f 5F5F696E 		.ascii	"__int32_t\000"
 1625      7433325F 
 1625      7400
 1626              	.LASF14:
 1627 02a9 75696E74 		.ascii	"uint8_t\000"
 1627      385F7400 
 1628              	.LASF32:
 1629 02b1 73706F32 		.ascii	"spo2\000"
 1629      00
 1630              	.LASF53:
 1631 02b6 666C6167 		.ascii	"flag_1s\000"
 1631      5F317300 
 1632              	.LASF30:
 1633 02be 61637469 		.ascii	"active_leds\000"
ARM GAS  C:\Users\Perro\AppData\Local\Temp\ccN4HOtd.s 			page 36


 1633      76655F6C 
 1633      65647300 
 1634              	.LASF31:
 1635 02ca 666C6167 		.ascii	"flag\000"
 1635      00
 1636              	.LASF50:
 1637 02cf 616E5F78 		.ascii	"an_x\000"
 1637      00
 1638              	.LASF51:
 1639 02d4 616E5F79 		.ascii	"an_y\000"
 1639      00
 1640              	.LASF49:
 1641 02d9 49544D5F 		.ascii	"ITM_RxBuffer\000"
 1641      52784275 
 1641      66666572 
 1641      00
 1642              	.LASF39:
 1643 02e6 6E756D5F 		.ascii	"num_samples\000"
 1643      73616D70 
 1643      6C657300 
 1644              		.ident	"GCC: (GNU Tools for ARM Embedded Processors) 5.4.1 20160609 (release) [ARM/embedded-5-bran
