ARM GAS  C:\Users\Perro\AppData\Local\Temp\cc8KFj9d.s 			page 1


   1              		.syntax unified
   2              		.cpu cortex-m3
   3              		.fpu softvfp
   4              		.eabi_attribute 20, 1
   5              		.eabi_attribute 21, 1
   6              		.eabi_attribute 23, 3
   7              		.eabi_attribute 24, 1
   8              		.eabi_attribute 25, 1
   9              		.eabi_attribute 26, 1
  10              		.eabi_attribute 30, 6
  11              		.eabi_attribute 34, 1
  12              		.eabi_attribute 18, 4
  13              		.thumb
  14              		.syntax unified
  15              		.file	"main.c"
  16              		.text
  17              	.Ltext0:
  18              		.cfi_sections	.debug_frame
  19              		.comm	data,388,4
  20              		.comm	an_x,800,4
  21              		.comm	an_y,800,4
  22              		.global	flag_temp
  23              		.bss
  24              		.type	flag_temp, %object
  25              		.size	flag_temp, 1
  26              	flag_temp:
  27 0000 00       		.space	1
  28              		.global	flag_1s
  29              		.type	flag_1s, %object
  30              		.size	flag_1s, 1
  31              	flag_1s:
  32 0001 00       		.space	1
  33              		.section	.rodata
  34              		.align	2
  35              	.LC0:
  36 0000 52657669 		.ascii	"Revision ID: 0x%02X\015\012\000"
  36      73696F6E 
  36      2049443A 
  36      20307825 
  36      3032580D 
  37 0016 0000     		.align	2
  38              	.LC1:
  39 0018 50617274 		.ascii	"Part ID: 0x%02X\015\012\000"
  39      2049443A 
  39      20307825 
  39      3032580D 
  39      0A00
  40 002a 0000     		.align	2
  41              	.LC2:
  42 002c 310D0A00 		.ascii	"1\015\012\000"
  43              		.align	2
  44              	.LC3:
  45 0030 256C640D 		.ascii	"%ld\015\012\000"
  45      0A00
  46 0036 0000     		.align	2
  47              	.LC4:
  48 0038 320D0A00 		.ascii	"2\015\012\000"
ARM GAS  C:\Users\Perro\AppData\Local\Temp\cc8KFj9d.s 			page 2


  49              		.align	2
  50              	.LC5:
  51 003c 330D0A00 		.ascii	"3\015\012\000"
  52              		.align	2
  53              	.LC6:
  54 0040 340D0A00 		.ascii	"4\015\012\000"
  55              		.section	.text.main,"ax",%progbits
  56              		.align	2
  57              		.global	main
  58              		.thumb
  59              		.thumb_func
  60              		.type	main, %function
  61              	main:
  62              	.LFB64:
  63              		.file 1 "main.c"
   1:main.c        **** /**
   2:main.c        **** *   Main file for testing MAX30101 Library.
   3:main.c        ****     Last update: il codice funziona con la spo2 anche per FIFO bits diversi da 25, per come ho scri
   4:main.c        ****     non è da considerare perchè vengono superati i 200 samples però dalla successiva sono giuste
   5:main.c        ****     Questo branch serve a provare una nuova funzione, che prende 5 secondi di misura e introduce un
   6:main.c        ****     l'heart rate ma sembra essere troppo variabile così come nell'altro branch. Non so se è dovut
   7:main.c        ****     perchè la variabilità è davvero alta. Proverò con l'elastico per capire se migliora un mini
   8:main.c        ****     Emanuele 16.05 18:07
   9:main.c        **** */
  10:main.c        **** 
  11:main.c        **** #include "project.h"
  12:main.c        **** #include "MAX30101.h"
  13:main.c        **** #include "stdio.h"
  14:main.c        **** #include "I2C_Interface.h"
  15:main.c        **** #include "SpO2.h"
  16:main.c        **** #include "HeartRate.h"
  17:main.c        **** #include "Timer.h"
  18:main.c        **** #include "isr.h"
  19:main.c        **** 
  20:main.c        **** #include "math.h"
  21:main.c        **** 
  22:main.c        **** #define UART_DEBUG
  23:main.c        **** 
  24:main.c        **** #ifdef UART_DEBUG
  25:main.c        ****     
  26:main.c        ****     #define DEBUG_TEST 1
  27:main.c        ****     
  28:main.c        **** #else
  29:main.c        ****     
  30:main.c        ****     #define DEBUG_TEST 0
  31:main.c        ****     
  32:main.c        **** #endif
  33:main.c        **** 
  34:main.c        **** #define debug_print(msg) do { if (DEBUG_TEST) UART_Debug_PutString(msg);} while (0)
  35:main.c        **** 
  36:main.c        **** CY_ISR_PROTO(MAX30101_ISR);
  37:main.c        **** //CY_ISR_PROTO(FLAG);
  38:main.c        ****     
  39:main.c        **** 
  40:main.c        **** uint8_t flag_temp = 0;
  41:main.c        **** uint8_t flag_1s = 0;
  42:main.c        **** 
ARM GAS  C:\Users\Perro\AppData\Local\Temp\cc8KFj9d.s 			page 3


  43:main.c        **** 
  44:main.c        **** int main(void)
  45:main.c        **** {
  64              		.loc 1 45 0
  65              		.cfi_startproc
  66              		@ args = 0, pretend = 0, frame = 2120
  67              		@ frame_needed = 1, uses_anonymous_args = 0
  68 0000 F0B5     		push	{r4, r5, r6, r7, lr}
  69              		.cfi_def_cfa_offset 20
  70              		.cfi_offset 4, -20
  71              		.cfi_offset 5, -16
  72              		.cfi_offset 6, -12
  73              		.cfi_offset 7, -8
  74              		.cfi_offset 14, -4
  75 0002 ADF65C0D 		subw	sp, sp, #2140
  76              		.cfi_def_cfa_offset 2160
  77 0006 04AF     		add	r7, sp, #16
  78              		.cfi_def_cfa 7, 2144
  46:main.c        ****     // Variables
  47:main.c        ****     MAX30101_Data data;
  48:main.c        ****     data.head = 0;
  79              		.loc 1 48 0
  80 0008 07F5D260 		add	r0, r7, #1680
  81 000c 0025     		movs	r5, #0
  82 000e 80F88051 		strb	r5, [r0, #384]
  49:main.c        ****     data.tail = 0;
  83              		.loc 1 49 0
  84 0012 07F5D260 		add	r0, r7, #1680
  85 0016 0025     		movs	r5, #0
  86 0018 80F88151 		strb	r5, [r0, #385]
  50:main.c        ****     char msg[50];
  51:main.c        ****     void (*print_ptr)(const char*) = &(UART_Debug_PutString);
  87              		.loc 1 51 0
  88 001c DF48     		ldr	r0, .L11
  89 001e C7F83408 		str	r0, [r7, #2100]
  52:main.c        ****     uint8_t active_leds = 2;
  90              		.loc 1 52 0
  91 0022 0220     		movs	r0, #2
  92 0024 87F83308 		strb	r0, [r7, #2099]
  53:main.c        ****     uint8_t rp, wp, flag = 0;
  93              		.loc 1 53 0
  94 0028 07F25960 		addw	r0, r7, #1625
  95 002c 0025     		movs	r5, #0
  96 002e 0570     		strb	r5, [r0]
  54:main.c        ****     int32_t spo2; //SPO2 value
  55:main.c        ****     int8_t validSPO2; //indicator to show if the SPO2 calculation is valid
  56:main.c        ****     int32_t heartRate; //heart rate value
  57:main.c        ****     int8_t validHeartRate; //indicator to show if the heart rate calculation is valid
  58:main.c        ****     uint32_t irBuffer[200]; //infrared LED sensor data
  59:main.c        ****     uint32_t redBuffer[200];  //red LED sensor data
  60:main.c        ****     int32_t bufferLength = 200;
  97              		.loc 1 60 0
  98 0030 C820     		movs	r0, #200
  99 0032 C7F82C08 		str	r0, [r7, #2092]
  61:main.c        ****     int num_samples;
  62:main.c        ****     int j=0;
 100              		.loc 1 62 0
ARM GAS  C:\Users\Perro\AppData\Local\Temp\cc8KFj9d.s 			page 4


 101 0036 0020     		movs	r0, #0
 102 0038 C7F84008 		str	r0, [r7, #2112]
  63:main.c        ****     int FIFO_max_size = 25;
 103              		.loc 1 63 0
 104 003c 1920     		movs	r0, #25
 105 003e C7F82808 		str	r0, [r7, #2088]
  64:main.c        ****     const uint8_t RATE_SIZE = 4; //Increase this for more averaging. 4 is good.
 106              		.loc 1 64 0
 107 0042 0420     		movs	r0, #4
 108 0044 87F82708 		strb	r0, [r7, #2087]
  65:main.c        ****     uint8_t rates[RATE_SIZE]; //Array of heart rates
 109              		.loc 1 65 0
 110 0048 97F82708 		ldrb	r0, [r7, #2087]	@ zero_extendqisi2
 111 004c 0138     		subs	r0, r0, #1
 112 004e C7F82008 		str	r0, [r7, #2080]
 113 0052 97F82758 		ldrb	r5, [r7, #2087]	@ zero_extendqisi2
 114 0056 4FF00006 		mov	r6, #0
 115 005a F200     		lsls	r2, r6, #3
 116 005c 42EA5572 		orr	r2, r2, r5, lsr #29
 117 0060 E900     		lsls	r1, r5, #3
 118 0062 97F82718 		ldrb	r1, [r7, #2087]	@ zero_extendqisi2
 119 0066 4FF00002 		mov	r2, #0
 120 006a D400     		lsls	r4, r2, #3
 121 006c 44EA5174 		orr	r4, r4, r1, lsr #29
 122 0070 CB00     		lsls	r3, r1, #3
 123 0072 97F82738 		ldrb	r3, [r7, #2087]	@ zero_extendqisi2
 124 0076 0733     		adds	r3, r3, #7
 125 0078 DB08     		lsrs	r3, r3, #3
 126 007a DB00     		lsls	r3, r3, #3
 127 007c ADEB030D 		sub	sp, sp, r3
 128 0080 04AB     		add	r3, sp, #16
 129 0082 0033     		adds	r3, r3, #0
 130 0084 C7F81C38 		str	r3, [r7, #2076]
  66:main.c        ****     uint8_t rateSpot=1;
 131              		.loc 1 66 0
 132 0088 0123     		movs	r3, #1
 133 008a 87F81B38 		strb	r3, [r7, #2075]
  67:main.c        ****     uint16 lastBeat=0; //Time at which the last beat occurred
 134              		.loc 1 67 0
 135 008e 0023     		movs	r3, #0
 136 0090 A7F81838 		strh	r3, [r7, #2072]	@ movhi
  68:main.c        ****     uint8_t x;
  69:main.c        ****     uint32 beatsPerMinute;
  70:main.c        ****     uint8_t beatAvg=0;
 137              		.loc 1 70 0
 138 0094 0023     		movs	r3, #0
 139 0096 87F81738 		strb	r3, [r7, #2071]
  71:main.c        ****     uint16_t delta;
  72:main.c        ****     extern volatile long count;
  73:main.c        ****     //long irValue;
  74:main.c        ****     int i=0;
 140              		.loc 1 74 0
 141 009a 0023     		movs	r3, #0
 142 009c C7F83C38 		str	r3, [r7, #2108]
  75:main.c        ****     uint8_t sum=0;
 143              		.loc 1 75 0
 144 00a0 0023     		movs	r3, #0
ARM GAS  C:\Users\Perro\AppData\Local\Temp\cc8KFj9d.s 			page 5


 145 00a2 87F81638 		strb	r3, [r7, #2070]
  76:main.c        ****     
  77:main.c        ****     // Initialization
  78:main.c        ****     MAX30101_Start();
 146              		.loc 1 78 0
 147 00a6 FFF7FEFF 		bl	MAX30101_Start
  79:main.c        ****     UART_Debug_Start();
 148              		.loc 1 79 0
 149 00aa FFF7FEFF 		bl	UART_Debug_Start
  80:main.c        **** //    Timer_1_Start();
  81:main.c        ****     CyDelay(100);
 150              		.loc 1 81 0
 151 00ae 6420     		movs	r0, #100
 152 00b0 FFF7FEFF 		bl	CyDelay
  82:main.c        ****     
  83:main.c        ****     /*debug_print("**************************\r\n");
  84:main.c        ****     debug_print("         MAX30101         \r\n");
  85:main.c        ****     debug_print("**************************\r\n");*/
  86:main.c        ****     
  87:main.c        ****     if (MAX30101_IsDevicePresent() == MAX30101_OK)
 153              		.loc 1 87 0
 154 00b4 FFF7FEFF 		bl	MAX30101_IsDevicePresent
 155 00b8 0346     		mov	r3, r0
 156 00ba 002B     		cmp	r3, #0
 157 00bc 4FD1     		bne	.L2
 158              	.LBB2:
  88:main.c        ****     {
  89:main.c        ****         // Check if device is present
  90:main.c        ****         //debug_print("Device found on I2C bus\r\n");
  91:main.c        ****         Connection_LED_Write(1);
 159              		.loc 1 91 0
 160 00be 0120     		movs	r0, #1
 161 00c0 FFF7FEFF 		bl	Connection_LED_Write
  92:main.c        ****         
  93:main.c        ****         // Read revision and part id
  94:main.c        ****         uint8_t rev_id, part_id = 0;
 162              		.loc 1 94 0
 163 00c4 BB1D     		adds	r3, r7, #6
 164 00c6 0022     		movs	r2, #0
 165 00c8 1A70     		strb	r2, [r3]
  95:main.c        ****         MAX30101_ReadPartID(&part_id);
 166              		.loc 1 95 0
 167 00ca BB1D     		adds	r3, r7, #6
 168 00cc 1846     		mov	r0, r3
 169 00ce FFF7FEFF 		bl	MAX30101_ReadPartID
  96:main.c        ****         MAX30101_ReadRevisionID(&rev_id);
 170              		.loc 1 96 0
 171 00d2 FB1D     		adds	r3, r7, #7
 172 00d4 1846     		mov	r0, r3
 173 00d6 FFF7FEFF 		bl	MAX30101_ReadRevisionID
  97:main.c        ****         sprintf(msg,"Revision ID: 0x%02X\r\n", rev_id);
 174              		.loc 1 97 0
 175 00da FB1D     		adds	r3, r7, #7
 176 00dc 1B78     		ldrb	r3, [r3]	@ zero_extendqisi2
 177 00de 1A46     		mov	r2, r3
 178 00e0 07F25C63 		addw	r3, r7, #1628
 179 00e4 AE49     		ldr	r1, .L11+4
ARM GAS  C:\Users\Perro\AppData\Local\Temp\cc8KFj9d.s 			page 6


 180 00e6 1846     		mov	r0, r3
 181 00e8 FFF7FEFF 		bl	sprintf
  98:main.c        ****         //debug_print(msg);
  99:main.c        ****         sprintf(msg,"Part ID: 0x%02X\r\n", part_id);
 182              		.loc 1 99 0
 183 00ec BB1D     		adds	r3, r7, #6
 184 00ee 1B78     		ldrb	r3, [r3]	@ zero_extendqisi2
 185 00f0 1A46     		mov	r2, r3
 186 00f2 07F25C63 		addw	r3, r7, #1628
 187 00f6 AB49     		ldr	r1, .L11+8
 188 00f8 1846     		mov	r0, r3
 189 00fa FFF7FEFF 		bl	sprintf
 100:main.c        ****         //debug_print(msg);
 101:main.c        ****         
 102:main.c        ****         //debug_print("Registers before configuration\r\n");
 103:main.c        ****         //MAX30101_LogRegisters(print_ptr);
 104:main.c        ****         
 105:main.c        ****         // Soft reset sensor
 106:main.c        ****         MAX30101_Reset();
 190              		.loc 1 106 0
 191 00fe FFF7FEFF 		bl	MAX30101_Reset
 107:main.c        ****         CyDelay(100);
 192              		.loc 1 107 0
 193 0102 6420     		movs	r0, #100
 194 0104 FFF7FEFF 		bl	CyDelay
 108:main.c        ****         
 109:main.c        ****         // Wake up sensor
 110:main.c        ****         MAX30101_WakeUp();
 195              		.loc 1 110 0
 196 0108 FFF7FEFF 		bl	MAX30101_WakeUp
 111:main.c        ****         
 112:main.c        ****         MAX30101_DisableALCOverflowInt();
 197              		.loc 1 112 0
 198 010c FFF7FEFF 		bl	MAX30101_DisableALCOverflowInt
 113:main.c        ****         MAX30101_DisableTempReadyInt();
 199              		.loc 1 113 0
 200 0110 FFF7FEFF 		bl	MAX30101_DisableTempReadyInt
 114:main.c        ****         MAX30101_DisablePPGReadyInt();
 201              		.loc 1 114 0
 202 0114 FFF7FEFF 		bl	MAX30101_DisablePPGReadyInt
 115:main.c        ****         MAX30101_EnableFIFOAFullInt();
 203              		.loc 1 115 0
 204 0118 FFF7FEFF 		bl	MAX30101_EnableFIFOAFullInt
 116:main.c        ****      
 117:main.c        ****         // set 28 samples to trigger interrupt
 118:main.c        ****         MAX30101_SetFIFOAlmostFull(FIFO_max_size);
 205              		.loc 1 118 0
 206 011c D7F82838 		ldr	r3, [r7, #2088]
 207 0120 DBB2     		uxtb	r3, r3
 208 0122 1846     		mov	r0, r3
 209 0124 FFF7FEFF 		bl	MAX30101_SetFIFOAlmostFull
 119:main.c        **** 
 120:main.c        ****         // enable fifo rollover
 121:main.c        ****         MAX30101_EnableFIFORollover();
 210              		.loc 1 121 0
 211 0128 FFF7FEFF 		bl	MAX30101_EnableFIFORollover
 122:main.c        ****         
ARM GAS  C:\Users\Perro\AppData\Local\Temp\cc8KFj9d.s 			page 7


 123:main.c        ****         // 8 samples averaged
 124:main.c        ****         MAX30101_SetSampleAverage(MAX30101_SAMPLE_AVG_8);
 212              		.loc 1 124 0
 213 012c 6020     		movs	r0, #96
 214 012e FFF7FEFF 		bl	MAX30101_SetSampleAverage
 125:main.c        ****         
 126:main.c        ****         // Set LED Power level
 127:main.c        ****         MAX30101_SetLEDPulseAmplitude(MAX30101_LED_1, 0x1F);
 215              		.loc 1 127 0
 216 0132 1F21     		movs	r1, #31
 217 0134 0020     		movs	r0, #0
 218 0136 FFF7FEFF 		bl	MAX30101_SetLEDPulseAmplitude
 128:main.c        ****         
 129:main.c        ****         MAX30101_SetLEDPulseAmplitude(MAX30101_LED_2, 0x1F);
 219              		.loc 1 129 0
 220 013a 1F21     		movs	r1, #31
 221 013c 0120     		movs	r0, #1
 222 013e FFF7FEFF 		bl	MAX30101_SetLEDPulseAmplitude
 130:main.c        ****                
 131:main.c        ****         // Set ADC Range
 132:main.c        ****         MAX30101_SetSpO2ADCRange(MAX30101_ADC_RANGE_2048);
 223              		.loc 1 132 0
 224 0142 0020     		movs	r0, #0
 225 0144 FFF7FEFF 		bl	MAX30101_SetSpO2ADCRange
 133:main.c        ****         
 134:main.c        ****         // Pulse width
 135:main.c        ****         MAX30101_SetSpO2PulseWidth(MAX30101_PULSEWIDTH_411);
 226              		.loc 1 135 0
 227 0148 0320     		movs	r0, #3
 228 014a FFF7FEFF 		bl	MAX30101_SetSpO2PulseWidth
 136:main.c        ****         
 137:main.c        ****         // Set Sample Rate
 138:main.c        ****         MAX30101_SetSpO2SampleRate(MAX30101_SAMPLE_RATE_400);
 229              		.loc 1 138 0
 230 014e 0C20     		movs	r0, #12
 231 0150 FFF7FEFF 		bl	MAX30101_SetSpO2SampleRate
 139:main.c        ****         
 140:main.c        ****         // Set mode
 141:main.c        ****         MAX30101_SetMode(MAX30101_SPO2_MODE);
 232              		.loc 1 141 0
 233 0154 0320     		movs	r0, #3
 234 0156 FFF7FEFF 		bl	MAX30101_SetMode
 142:main.c        ****         
 143:main.c        ****         // Enable Slots
 144:main.c        ****         MAX30101_DisableSlots();
 235              		.loc 1 144 0
 236 015a FFF7FEFF 		bl	MAX30101_DisableSlots
 237              	.L2:
 238              	.LBE2:
 145:main.c        ****         
 146:main.c        ****         //debug_print("Registers after configuration\r\n");
 147:main.c        ****        // MAX30101_LogRegisters(print_ptr);
 148:main.c        ****     }
 149:main.c        ****     
 150:main.c        ****     //debug_print("\r\n\r\n");    
 151:main.c        ****     isr_MAX30101_StartEx(MAX30101_ISR);
 239              		.loc 1 151 0
ARM GAS  C:\Users\Perro\AppData\Local\Temp\cc8KFj9d.s 			page 8


 240 015e 9248     		ldr	r0, .L11+12
 241 0160 FFF7FEFF 		bl	isr_MAX30101_StartEx
 152:main.c        ****     isr_1_StartEx(Count);
 242              		.loc 1 152 0
 243 0164 9148     		ldr	r0, .L11+16
 244 0166 FFF7FEFF 		bl	isr_1_StartEx
 153:main.c        **** //    isr_RX_StartEx(Custom_ISR_RX);
 154:main.c        ****     //isr_flag_StartEx(FLAG);
 155:main.c        ****     // Clear FIFO
 156:main.c        ****     MAX30101_ClearFIFO();
 245              		.loc 1 156 0
 246 016a FFF7FEFF 		bl	MAX30101_ClearFIFO
 157:main.c        ****     CyGlobalIntEnable; /* Enable global interrupts. */
 247              		.loc 1 157 0
 248              		.syntax unified
 249              	@ 157 "main.c" 1
 250 016e 62B6     		CPSIE   i
 251              	@ 0 "" 2
 252              		.thumb
 253              		.syntax unified
 254              	.L10:
 158:main.c        ****       
 159:main.c        ****     for(;;)
 160:main.c        ****     {       
 161:main.c        ****             
 162:main.c        ****         if (flag_temp == 1)
 255              		.loc 1 162 0
 256 0170 8F4B     		ldr	r3, .L11+20
 257 0172 1B78     		ldrb	r3, [r3]	@ zero_extendqisi2
 258 0174 012B     		cmp	r3, #1
 259 0176 FBD1     		bne	.L10
 163:main.c        ****         {
 164:main.c        ****             MAX30101_IsFIFOAFull(&flag);
 260              		.loc 1 164 0
 261 0178 07F25963 		addw	r3, r7, #1625
 262 017c 1846     		mov	r0, r3
 263 017e FFF7FEFF 		bl	MAX30101_IsFIFOAFull
 165:main.c        ****             if(flag>0)
 264              		.loc 1 165 0
 265 0182 07F25963 		addw	r3, r7, #1625
 266 0186 1B78     		ldrb	r3, [r3]	@ zero_extendqisi2
 267 0188 002B     		cmp	r3, #0
 268 018a 00F00281 		beq	.L4
 166:main.c        ****             {
 167:main.c        ****                 MAX30101_ReadReadPointer(&rp);
 269              		.loc 1 167 0
 270 018e 07F25B63 		addw	r3, r7, #1627
 271 0192 1846     		mov	r0, r3
 272 0194 FFF7FEFF 		bl	MAX30101_ReadReadPointer
 168:main.c        ****                 MAX30101_ReadWritePointer(&wp);
 273              		.loc 1 168 0
 274 0198 07F25A63 		addw	r3, r7, #1626
 275 019c 1846     		mov	r0, r3
 276 019e FFF7FEFF 		bl	MAX30101_ReadWritePointer
 169:main.c        ****                 //Calculate the number of readings we need to get from sensor
 170:main.c        ****                 num_samples = wp - rp;
 277              		.loc 1 170 0
ARM GAS  C:\Users\Perro\AppData\Local\Temp\cc8KFj9d.s 			page 9


 278 01a2 07F25A63 		addw	r3, r7, #1626
 279 01a6 1B78     		ldrb	r3, [r3]	@ zero_extendqisi2
 280 01a8 1A46     		mov	r2, r3
 281 01aa 07F25B63 		addw	r3, r7, #1627
 282 01ae 1B78     		ldrb	r3, [r3]	@ zero_extendqisi2
 283 01b0 D31A     		subs	r3, r2, r3
 284 01b2 C7F84438 		str	r3, [r7, #2116]
 171:main.c        ****                 if (num_samples <= 0) num_samples += 32; //Wrap condition                
 285              		.loc 1 171 0
 286 01b6 D7F84438 		ldr	r3, [r7, #2116]
 287 01ba 002B     		cmp	r3, #0
 288 01bc 04DC     		bgt	.L5
 289              		.loc 1 171 0 is_stmt 0 discriminator 1
 290 01be D7F84438 		ldr	r3, [r7, #2116]
 291 01c2 2033     		adds	r3, r3, #32
 292 01c4 C7F84438 		str	r3, [r7, #2116]
 293              	.L5:
 172:main.c        ****                 // Read FIFO
 173:main.c        ****                 MAX30101_ReadFIFO(num_samples, active_leds, &data, j);
 294              		.loc 1 173 0 is_stmt 1
 295 01c8 D7F84438 		ldr	r3, [r7, #2116]
 296 01cc D8B2     		uxtb	r0, r3
 297 01ce 07F5D262 		add	r2, r7, #1680
 298 01d2 97F83318 		ldrb	r1, [r7, #2099]	@ zero_extendqisi2
 299 01d6 D7F84038 		ldr	r3, [r7, #2112]
 300 01da FFF7FEFF 		bl	MAX30101_ReadFIFO
 174:main.c        ****                 for (i=0;i<num_samples;i++)
 301              		.loc 1 174 0
 302 01de 0023     		movs	r3, #0
 303 01e0 C7F83C38 		str	r3, [r7, #2108]
 304 01e4 63E0     		b	.L6
 305              	.L7:
 175:main.c        ****                 {                    
 176:main.c        ****                     redBuffer[j] = data.red[data.tail+i];
 306              		.loc 1 176 0
 307 01e6 07F5D263 		add	r3, r7, #1680
 308 01ea 93F88131 		ldrb	r3, [r3, #385]	@ zero_extendqisi2
 309 01ee 1A46     		mov	r2, r3
 310 01f0 D7F83C38 		ldr	r3, [r7, #2108]
 311 01f4 1A44     		add	r2, r2, r3
 312 01f6 07F5D263 		add	r3, r7, #1680
 313 01fa 53F82210 		ldr	r1, [r3, r2, lsl #2]
 314 01fe 07F10803 		add	r3, r7, #8
 315 0202 D7F84028 		ldr	r2, [r7, #2112]
 316 0206 43F82210 		str	r1, [r3, r2, lsl #2]
 177:main.c        ****                     irBuffer[j] = data.IR[data.tail+i];
 317              		.loc 1 177 0
 318 020a 07F5D263 		add	r3, r7, #1680
 319 020e 93F88131 		ldrb	r3, [r3, #385]	@ zero_extendqisi2
 320 0212 1A46     		mov	r2, r3
 321 0214 D7F83C38 		ldr	r3, [r7, #2108]
 322 0218 1A44     		add	r2, r2, r3
 323 021a 07F5D263 		add	r3, r7, #1680
 324 021e 2032     		adds	r2, r2, #32
 325 0220 53F82210 		ldr	r1, [r3, r2, lsl #2]
 326 0224 07F54A73 		add	r3, r7, #808
 327 0228 D7F84028 		ldr	r2, [r7, #2112]
ARM GAS  C:\Users\Perro\AppData\Local\Temp\cc8KFj9d.s 			page 10


 328 022c 43F82210 		str	r1, [r3, r2, lsl #2]
 178:main.c        ****                     j++;
 329              		.loc 1 178 0
 330 0230 D7F84038 		ldr	r3, [r7, #2112]
 331 0234 0133     		adds	r3, r3, #1
 332 0236 C7F84038 		str	r3, [r7, #2112]
 179:main.c        ****                     debug_print("1\r\n");
 333              		.loc 1 179 0
 334 023a 5E48     		ldr	r0, .L11+24
 335 023c FFF7FEFF 		bl	UART_Debug_PutString
 180:main.c        ****                     sprintf(msg, "%ld\r\n", data.IR[data.tail+i]);
 336              		.loc 1 180 0
 337 0240 07F5D263 		add	r3, r7, #1680
 338 0244 93F88131 		ldrb	r3, [r3, #385]	@ zero_extendqisi2
 339 0248 1A46     		mov	r2, r3
 340 024a D7F83C38 		ldr	r3, [r7, #2108]
 341 024e 1A44     		add	r2, r2, r3
 342 0250 07F5D263 		add	r3, r7, #1680
 343 0254 2032     		adds	r2, r2, #32
 344 0256 53F82220 		ldr	r2, [r3, r2, lsl #2]
 345 025a 07F25C63 		addw	r3, r7, #1628
 346 025e 5649     		ldr	r1, .L11+28
 347 0260 1846     		mov	r0, r3
 348 0262 FFF7FEFF 		bl	sprintf
 181:main.c        ****                     debug_print(msg);
 349              		.loc 1 181 0
 350 0266 07F25C63 		addw	r3, r7, #1628
 351 026a 1846     		mov	r0, r3
 352 026c FFF7FEFF 		bl	UART_Debug_PutString
 182:main.c        ****                     debug_print("2\r\n");
 353              		.loc 1 182 0
 354 0270 5248     		ldr	r0, .L11+32
 355 0272 FFF7FEFF 		bl	UART_Debug_PutString
 183:main.c        ****                     sprintf(msg, "%ld\r\n", data.red[data.tail+i]);
 356              		.loc 1 183 0
 357 0276 07F5D263 		add	r3, r7, #1680
 358 027a 93F88131 		ldrb	r3, [r3, #385]	@ zero_extendqisi2
 359 027e 1A46     		mov	r2, r3
 360 0280 D7F83C38 		ldr	r3, [r7, #2108]
 361 0284 1A44     		add	r2, r2, r3
 362 0286 07F5D263 		add	r3, r7, #1680
 363 028a 53F82220 		ldr	r2, [r3, r2, lsl #2]
 364 028e 07F25C63 		addw	r3, r7, #1628
 365 0292 4949     		ldr	r1, .L11+28
 366 0294 1846     		mov	r0, r3
 367 0296 FFF7FEFF 		bl	sprintf
 184:main.c        ****                     debug_print(msg);
 368              		.loc 1 184 0
 369 029a 07F25C63 		addw	r3, r7, #1628
 370 029e 1846     		mov	r0, r3
 371 02a0 FFF7FEFF 		bl	UART_Debug_PutString
 174:main.c        ****                 {                    
 372              		.loc 1 174 0
 373 02a4 D7F83C38 		ldr	r3, [r7, #2108]
 374 02a8 0133     		adds	r3, r3, #1
 375 02aa C7F83C38 		str	r3, [r7, #2108]
 376              	.L6:
ARM GAS  C:\Users\Perro\AppData\Local\Temp\cc8KFj9d.s 			page 11


 174:main.c        ****                 {                    
 377              		.loc 1 174 0 is_stmt 0 discriminator 1
 378 02ae D7F83C28 		ldr	r2, [r7, #2108]
 379 02b2 D7F84438 		ldr	r3, [r7, #2116]
 380 02b6 9A42     		cmp	r2, r3
 381 02b8 95DB     		blt	.L7
 185:main.c        ****                     
 186:main.c        ****                 }                       
 187:main.c        ****                 if(j>=bufferLength) 
 382              		.loc 1 187 0 is_stmt 1
 383 02ba D7F84028 		ldr	r2, [r7, #2112]
 384 02be D7F82C38 		ldr	r3, [r7, #2092]
 385 02c2 9A42     		cmp	r2, r3
 386 02c4 65DB     		blt	.L4
 188:main.c        ****                 {
 189:main.c        ****                     maxim_heart_rate_and_oxygen_saturation(irBuffer, bufferLength, redBuffer, &spo2
 387              		.loc 1 189 0
 388 02c6 07F25461 		addw	r1, r7, #1620
 389 02ca 07F10802 		add	r2, r7, #8
 390 02ce 07F54A70 		add	r0, r7, #808
 391 02d2 07F24B63 		addw	r3, r7, #1611
 392 02d6 0293     		str	r3, [sp, #8]
 393 02d8 07F24C63 		addw	r3, r7, #1612
 394 02dc 0193     		str	r3, [sp, #4]
 395 02de 07F25363 		addw	r3, r7, #1619
 396 02e2 0093     		str	r3, [sp]
 397 02e4 0B46     		mov	r3, r1
 398 02e6 D7F82C18 		ldr	r1, [r7, #2092]
 399 02ea FFF7FEFF 		bl	maxim_heart_rate_and_oxygen_saturation
 190:main.c        ****                     //flag_1s = 1;
 191:main.c        ****                     j=bufferLength - 50;
 400              		.loc 1 191 0
 401 02ee D7F82C38 		ldr	r3, [r7, #2092]
 402 02f2 323B     		subs	r3, r3, #50
 403 02f4 C7F84038 		str	r3, [r7, #2112]
 404              	.LBB3:
 192:main.c        ****                     for (int i=50; i<bufferLength; i++) 
 405              		.loc 1 192 0
 406 02f8 3223     		movs	r3, #50
 407 02fa C7F83838 		str	r3, [r7, #2104]
 408 02fe 20E0     		b	.L8
 409              	.L9:
 193:main.c        ****                     {
 194:main.c        ****                         redBuffer[i-50] = redBuffer[i];
 410              		.loc 1 194 0 discriminator 3
 411 0300 D7F83838 		ldr	r3, [r7, #2104]
 412 0304 A3F13202 		sub	r2, r3, #50
 413 0308 07F10803 		add	r3, r7, #8
 414 030c D7F83818 		ldr	r1, [r7, #2104]
 415 0310 53F82110 		ldr	r1, [r3, r1, lsl #2]
 416 0314 07F10803 		add	r3, r7, #8
 417 0318 43F82210 		str	r1, [r3, r2, lsl #2]
 195:main.c        ****                         irBuffer[i-50] = irBuffer[i];
 418              		.loc 1 195 0 discriminator 3
 419 031c D7F83838 		ldr	r3, [r7, #2104]
 420 0320 A3F13202 		sub	r2, r3, #50
 421 0324 07F54A73 		add	r3, r7, #808
ARM GAS  C:\Users\Perro\AppData\Local\Temp\cc8KFj9d.s 			page 12


 422 0328 D7F83818 		ldr	r1, [r7, #2104]
 423 032c 53F82110 		ldr	r1, [r3, r1, lsl #2]
 424 0330 07F54A73 		add	r3, r7, #808
 425 0334 43F82210 		str	r1, [r3, r2, lsl #2]
 192:main.c        ****                     for (int i=50; i<bufferLength; i++) 
 426              		.loc 1 192 0 discriminator 3
 427 0338 D7F83838 		ldr	r3, [r7, #2104]
 428 033c 0133     		adds	r3, r3, #1
 429 033e C7F83838 		str	r3, [r7, #2104]
 430              	.L8:
 192:main.c        ****                     for (int i=50; i<bufferLength; i++) 
 431              		.loc 1 192 0 is_stmt 0 discriminator 1
 432 0342 D7F83828 		ldr	r2, [r7, #2104]
 433 0346 D7F82C38 		ldr	r3, [r7, #2092]
 434 034a 9A42     		cmp	r2, r3
 435 034c D8DB     		blt	.L9
 436              	.LBE3:
 196:main.c        ****                     }
 197:main.c        ****                     debug_print("3\r\n");
 437              		.loc 1 197 0 is_stmt 1
 438 034e 1C48     		ldr	r0, .L11+36
 439 0350 FFF7FEFF 		bl	UART_Debug_PutString
 198:main.c        ****                     sprintf(msg, "%ld\r\n", spo2);
 440              		.loc 1 198 0
 441 0354 07F25463 		addw	r3, r7, #1620
 442 0358 1A68     		ldr	r2, [r3]
 443 035a 07F25C63 		addw	r3, r7, #1628
 444 035e 1649     		ldr	r1, .L11+28
 445 0360 1846     		mov	r0, r3
 446 0362 FFF7FEFF 		bl	sprintf
 199:main.c        ****                     debug_print(msg);
 447              		.loc 1 199 0
 448 0366 07F25C63 		addw	r3, r7, #1628
 449 036a 1846     		mov	r0, r3
 450 036c FFF7FEFF 		bl	UART_Debug_PutString
 200:main.c        ****                     debug_print("4\r\n");
 451              		.loc 1 200 0
 452 0370 1448     		ldr	r0, .L11+40
 453 0372 FFF7FEFF 		bl	UART_Debug_PutString
 201:main.c        ****                     sprintf(msg, "%ld\r\n", heartRate);
 454              		.loc 1 201 0
 455 0376 07F24C63 		addw	r3, r7, #1612
 456 037a 1A68     		ldr	r2, [r3]
 457 037c 07F25C63 		addw	r3, r7, #1628
 458 0380 0D49     		ldr	r1, .L11+28
 459 0382 1846     		mov	r0, r3
 460 0384 FFF7FEFF 		bl	sprintf
 202:main.c        ****                     debug_print(msg);
 461              		.loc 1 202 0
 462 0388 07F25C63 		addw	r3, r7, #1628
 463 038c 1846     		mov	r0, r3
 464 038e FFF7FEFF 		bl	UART_Debug_PutString
 465              	.L4:
 203:main.c        ****                 }                
 204:main.c        ****             }
 205:main.c        ****             flag_temp = 0;
 466              		.loc 1 205 0
ARM GAS  C:\Users\Perro\AppData\Local\Temp\cc8KFj9d.s 			page 13


 467 0392 074B     		ldr	r3, .L11+20
 468 0394 0022     		movs	r2, #0
 469 0396 1A70     		strb	r2, [r3]
 206:main.c        ****         }
 207:main.c        ****     }
 470              		.loc 1 207 0
 471 0398 EAE6     		b	.L10
 472              	.L12:
 473 039a 00BF     		.align	2
 474              	.L11:
 475 039c 00000000 		.word	UART_Debug_PutString
 476 03a0 00000000 		.word	.LC0
 477 03a4 18000000 		.word	.LC1
 478 03a8 00000000 		.word	MAX30101_ISR
 479 03ac 00000000 		.word	Count
 480 03b0 00000000 		.word	flag_temp
 481 03b4 2C000000 		.word	.LC2
 482 03b8 30000000 		.word	.LC3
 483 03bc 38000000 		.word	.LC4
 484 03c0 3C000000 		.word	.LC5
 485 03c4 40000000 		.word	.LC6
 486              		.cfi_endproc
 487              	.LFE64:
 488              		.size	main, .-main
 489              		.section	.text.MAX30101_ISR,"ax",%progbits
 490              		.align	2
 491              		.global	MAX30101_ISR
 492              		.thumb
 493              		.thumb_func
 494              		.type	MAX30101_ISR, %function
 495              	MAX30101_ISR:
 496              	.LFB65:
 208:main.c        **** }   
 209:main.c        **** 
 210:main.c        **** 
 211:main.c        **** CY_ISR(MAX30101_ISR)
 212:main.c        **** {
 497              		.loc 1 212 0
 498              		.cfi_startproc
 499              		@ args = 0, pretend = 0, frame = 0
 500              		@ frame_needed = 1, uses_anonymous_args = 0
 501 0000 80B5     		push	{r7, lr}
 502              		.cfi_def_cfa_offset 8
 503              		.cfi_offset 7, -8
 504              		.cfi_offset 14, -4
 505 0002 00AF     		add	r7, sp, #0
 506              		.cfi_def_cfa_register 7
 213:main.c        ****     Connection_LED_Write(!Connection_LED_Read());
 507              		.loc 1 213 0
 508 0004 FFF7FEFF 		bl	Connection_LED_Read
 509 0008 0346     		mov	r3, r0
 510 000a 002B     		cmp	r3, #0
 511 000c 0CBF     		ite	eq
 512 000e 0123     		moveq	r3, #1
 513 0010 0023     		movne	r3, #0
 514 0012 DBB2     		uxtb	r3, r3
 515 0014 1846     		mov	r0, r3
ARM GAS  C:\Users\Perro\AppData\Local\Temp\cc8KFj9d.s 			page 14


 516 0016 FFF7FEFF 		bl	Connection_LED_Write
 214:main.c        ****     MAX30101_INT_ClearInterrupt();
 517              		.loc 1 214 0
 518 001a FFF7FEFF 		bl	MAX30101_INT_ClearInterrupt
 215:main.c        ****     flag_temp = 1;
 519              		.loc 1 215 0
 520 001e 024B     		ldr	r3, .L14
 521 0020 0122     		movs	r2, #1
 522 0022 1A70     		strb	r2, [r3]
 216:main.c        **** }
 523              		.loc 1 216 0
 524 0024 00BF     		nop
 525 0026 80BD     		pop	{r7, pc}
 526              	.L15:
 527              		.align	2
 528              	.L14:
 529 0028 00000000 		.word	flag_temp
 530              		.cfi_endproc
 531              	.LFE65:
 532              		.size	MAX30101_ISR, .-MAX30101_ISR
 533              		.text
 534              	.Letext0:
 535              		.file 2 "c:\\program files (x86)\\cypress\\psoc creator\\4.4\\psoc creator\\import\\gnu\\arm\\5.4.
 536              		.file 3 "c:\\program files (x86)\\cypress\\psoc creator\\4.4\\psoc creator\\import\\gnu\\arm\\5.4.
 537              		.file 4 "Generated_Source\\PSoC5/cytypes.h"
 538              		.file 5 "MAX30101.h"
 539              		.file 6 "Generated_Source\\PSoC5/core_cm3.h"
 540              		.file 7 "SpO2.h"