ARM GAS  C:\Users\Perro\AppData\Local\Temp\ccIynadQ.s 			page 1


   1              		.syntax unified
   2              		.cpu cortex-m3
   3              		.fpu softvfp
   4              		.eabi_attribute 20, 1
   5              		.eabi_attribute 21, 1
   6              		.eabi_attribute 23, 3
   7              		.eabi_attribute 24, 1
   8              		.eabi_attribute 25, 1
   9              		.eabi_attribute 26, 1
  10              		.eabi_attribute 30, 6
  11              		.eabi_attribute 34, 1
  12              		.eabi_attribute 18, 4
  13              		.thumb
  14              		.syntax unified
  15              		.file	"main.c"
  16              		.text
  17              	.Ltext0:
  18              		.cfi_sections	.debug_frame
  19              		.comm	data,388,4
  20              		.global	flag_temp
  21              		.bss
  22              		.type	flag_temp, %object
  23              		.size	flag_temp, 1
  24              	flag_temp:
  25 0000 00       		.space	1
  26              		.global	flag_1s
  27              		.type	flag_1s, %object
  28              		.size	flag_1s, 1
  29              	flag_1s:
  30 0001 00       		.space	1
  31              		.section	.rodata
  32              		.align	2
  33              	.LC0:
  34 0000 2A2A2A2A 		.ascii	"**************************\015\012\000"
  34      2A2A2A2A 
  34      2A2A2A2A 
  34      2A2A2A2A 
  34      2A2A2A2A 
  35 001d 000000   		.align	2
  36              	.LC1:
  37 0020 20202020 		.ascii	"         MAX30101         \015\012\000"
  37      20202020 
  37      204D4158 
  37      33303130 
  37      31202020 
  38 003d 000000   		.align	2
  39              	.LC2:
  40 0040 44657669 		.ascii	"Device found on I2C bus\015\012\000"
  40      63652066 
  40      6F756E64 
  40      206F6E20 
  40      49324320 
  41 005a 0000     		.align	2
  42              	.LC3:
  43 005c 52657669 		.ascii	"Revision ID: 0x%02X\015\012\000"
  43      73696F6E 
  43      2049443A 
ARM GAS  C:\Users\Perro\AppData\Local\Temp\ccIynadQ.s 			page 2


  43      20307825 
  43      3032580D 
  44 0072 0000     		.align	2
  45              	.LC4:
  46 0074 50617274 		.ascii	"Part ID: 0x%02X\015\012\000"
  46      2049443A 
  46      20307825 
  46      3032580D 
  46      0A00
  47 0086 0000     		.align	2
  48              	.LC5:
  49 0088 52656769 		.ascii	"Registers before configuration\015\012\000"
  49      73746572 
  49      73206265 
  49      666F7265 
  49      20636F6E 
  50 00a9 000000   		.align	2
  51              	.LC6:
  52 00ac 52656769 		.ascii	"Registers after configuration\015\012\000"
  52      73746572 
  52      73206166 
  52      74657220 
  52      636F6E66 
  53              		.align	2
  54              	.LC7:
  55 00cc 0D0A0D0A 		.ascii	"\015\012\015\012\000"
  55      00
  56 00d1 000000   		.align	2
  57              	.LC8:
  58 00d4 25640D0A 		.ascii	"%d\015\012\000"
  58      00
  59 00d9 000000   		.align	2
  60              	.LC9:
  61 00dc 6E756D62 		.ascii	"number of samples taken: %d\015\000"
  61      6572206F 
  61      66207361 
  61      6D706C65 
  61      73207461 
  62 00f9 000000   		.align	2
  63              	.LC10:
  64 00fc 73706F32 		.ascii	"spo2: %ld\015\000"
  64      3A20256C 
  64      640D00
  65 0107 00       		.align	2
  66              	.LC11:
  67 0108 76616C69 		.ascii	"validspo2: %d\015\000"
  67      6473706F 
  67      323A2025 
  67      640D00
  68 0117 00       		.align	2
  69              	.LC12:
  70 0118 48523A20 		.ascii	"HR: %ld\015\000"
  70      256C640D 
  70      00
  71 0121 000000   		.align	2
  72              	.LC13:
  73 0124 76616C69 		.ascii	"validHR: %d\015\012\000"
ARM GAS  C:\Users\Perro\AppData\Local\Temp\ccIynadQ.s 			page 3


  73      6448523A 
  73      2025640D 
  73      0A00
  74              		.section	.text.main,"ax",%progbits
  75              		.align	2
  76              		.global	main
  77              		.thumb
  78              		.thumb_func
  79              		.type	main, %function
  80              	main:
  81              	.LFB64:
  82              		.file 1 "main.c"
   1:main.c        **** /**
   2:main.c        **** *   Main file for testing MAX30101 Library.
   3:main.c        ****     Last update: il codice funziona con la spo2 anche per FIFO bits diversi da 25, per come ho scri
   4:main.c        ****     non è da considerare perchè vengono superati i 200 samples però dalla successiva sono giuste
   5:main.c        ****     Questo branch serve a provare una nuova funzione, che prende 5 secondi di misura e introduce un
   6:main.c        ****     l'heart rate ma sembra essere troppo variabile così come nell'altro branch. Non so se è dovut
   7:main.c        ****     perchè la variabilità è davvero alta. Proverò con l'elastico per capire se migliora un mini
   8:main.c        ****     Emanuele 16.05 18:07
   9:main.c        **** */
  10:main.c        **** 
  11:main.c        **** #include "project.h"
  12:main.c        **** #include "MAX30101.h"
  13:main.c        **** #include "stdio.h"
  14:main.c        **** #include "I2C_Interface.h"
  15:main.c        **** #include "SpO2.h"
  16:main.c        **** #include "algorithm.h"
  17:main.c        **** 
  18:main.c        **** #define UART_DEBUG
  19:main.c        **** 
  20:main.c        **** #ifdef UART_DEBUG
  21:main.c        ****     
  22:main.c        ****     #define DEBUG_TEST 1
  23:main.c        ****     
  24:main.c        **** #else
  25:main.c        ****     
  26:main.c        ****     #define DEBUG_TEST 0
  27:main.c        ****     
  28:main.c        **** #endif
  29:main.c        **** 
  30:main.c        **** #define debug_print(msg) do { if (DEBUG_TEST) UART_Debug_PutString(msg);} while (0)
  31:main.c        **** 
  32:main.c        **** CY_ISR_PROTO(MAX30101_ISR);
  33:main.c        **** 
  34:main.c        **** uint8_t flag_temp = 0;
  35:main.c        **** uint8_t flag_1s = 0;
  36:main.c        **** 
  37:main.c        **** int main(void)
  38:main.c        **** {
  83              		.loc 1 38 0
  84              		.cfi_startproc
  85              		@ args = 0, pretend = 0, frame = 2496
  86              		@ frame_needed = 1, uses_anonymous_args = 0
  87 0000 80B5     		push	{r7, lr}
  88              		.cfi_def_cfa_offset 8
  89              		.cfi_offset 7, -8
ARM GAS  C:\Users\Perro\AppData\Local\Temp\ccIynadQ.s 			page 4


  90              		.cfi_offset 14, -4
  91 0002 ADF51D6D 		sub	sp, sp, #2512
  92              		.cfi_def_cfa_offset 2520
  93 0006 04AF     		add	r7, sp, #16
  94              		.cfi_def_cfa 7, 2504
  39:main.c        ****     // Variables
  40:main.c        ****     MAX30101_Data data;
  41:main.c        ****     data.head = 0;
  95              		.loc 1 41 0
  96 0008 07F61C03 		addw	r3, r7, #2076
  97 000c 0022     		movs	r2, #0
  98 000e 83F88021 		strb	r2, [r3, #384]
  42:main.c        ****     data.tail = 0;
  99              		.loc 1 42 0
 100 0012 07F61C03 		addw	r3, r7, #2076
 101 0016 0022     		movs	r2, #0
 102 0018 83F88121 		strb	r2, [r3, #385]
  43:main.c        ****     char msg[50];
  44:main.c        ****     void (*print_ptr)(const char*) = &(UART_Debug_PutString);
 103              		.loc 1 44 0
 104 001c D94B     		ldr	r3, .L12
 105 001e C7F8AC39 		str	r3, [r7, #2476]
  45:main.c        ****     uint8_t active_leds = 2;
 106              		.loc 1 45 0
 107 0022 0223     		movs	r3, #2
 108 0024 87F8AB39 		strb	r3, [r7, #2475]
  46:main.c        ****     uint8_t rp, wp, flag = 0;
 109              		.loc 1 46 0
 110 0028 07F2E573 		addw	r3, r7, #2021
 111 002c 0022     		movs	r2, #0
 112 002e 1A70     		strb	r2, [r3]
  47:main.c        ****     int32_t spo2; //SPO2 value
  48:main.c        ****     int8_t validSPO2; //indicator to show if the SPO2 calculation is valid
  49:main.c        ****     int32_t heartRate; //heart rate value
  50:main.c        ****     int8_t validHeartRate; //indicator to show if the heart rate calculation is valid
  51:main.c        ****     uint32_t irBuffer[250]; //infrared LED sensor data
  52:main.c        ****     uint32_t redBuffer[250];  //red LED sensor data
  53:main.c        ****     int32_t bufferLength = 250;
 113              		.loc 1 53 0
 114 0030 FA23     		movs	r3, #250
 115 0032 C7F8A439 		str	r3, [r7, #2468]
  54:main.c        ****     int num_samples;
  55:main.c        ****     int j=0;
 116              		.loc 1 55 0
 117 0036 0023     		movs	r3, #0
 118 0038 C7F8B839 		str	r3, [r7, #2488]
  56:main.c        ****     int FIFO_max_size = 25;
 119              		.loc 1 56 0
 120 003c 1923     		movs	r3, #25
 121 003e C7F8A039 		str	r3, [r7, #2464]
  57:main.c        ****     
  58:main.c        ****     // Initialization
  59:main.c        ****     MAX30101_Start();
 122              		.loc 1 59 0
 123 0042 FFF7FEFF 		bl	MAX30101_Start
  60:main.c        ****     UART_Debug_Start();
 124              		.loc 1 60 0
ARM GAS  C:\Users\Perro\AppData\Local\Temp\ccIynadQ.s 			page 5


 125 0046 FFF7FEFF 		bl	UART_Debug_Start
  61:main.c        **** 
  62:main.c        ****     CyDelay(100);
 126              		.loc 1 62 0
 127 004a 6420     		movs	r0, #100
 128 004c FFF7FEFF 		bl	CyDelay
  63:main.c        ****     
  64:main.c        ****     debug_print("**************************\r\n");
 129              		.loc 1 64 0
 130 0050 CD48     		ldr	r0, .L12+4
 131 0052 FFF7FEFF 		bl	UART_Debug_PutString
  65:main.c        ****     debug_print("         MAX30101         \r\n");
 132              		.loc 1 65 0
 133 0056 CD48     		ldr	r0, .L12+8
 134 0058 FFF7FEFF 		bl	UART_Debug_PutString
  66:main.c        ****     debug_print("**************************\r\n");
 135              		.loc 1 66 0
 136 005c CA48     		ldr	r0, .L12+4
 137 005e FFF7FEFF 		bl	UART_Debug_PutString
  67:main.c        ****     
  68:main.c        ****     if (MAX30101_IsDevicePresent() == MAX30101_OK)
 138              		.loc 1 68 0
 139 0062 FFF7FEFF 		bl	MAX30101_IsDevicePresent
 140 0066 0346     		mov	r3, r0
 141 0068 002B     		cmp	r3, #0
 142 006a 72D1     		bne	.L11
 143              	.LBB2:
  69:main.c        ****     {
  70:main.c        ****         // Check if device is present
  71:main.c        ****         debug_print("Device found on I2C bus\r\n");
 144              		.loc 1 71 0
 145 006c C848     		ldr	r0, .L12+12
 146 006e FFF7FEFF 		bl	UART_Debug_PutString
  72:main.c        ****         Connection_LED_Write(1);
 147              		.loc 1 72 0
 148 0072 0120     		movs	r0, #1
 149 0074 FFF7FEFF 		bl	Connection_LED_Write
  73:main.c        ****         
  74:main.c        ****         // Read revision and part id
  75:main.c        ****         uint8_t rev_id, part_id = 0;
 150              		.loc 1 75 0
 151 0078 BB1C     		adds	r3, r7, #2
 152 007a 0022     		movs	r2, #0
 153 007c 1A70     		strb	r2, [r3]
  76:main.c        ****         MAX30101_ReadPartID(&part_id);
 154              		.loc 1 76 0
 155 007e BB1C     		adds	r3, r7, #2
 156 0080 1846     		mov	r0, r3
 157 0082 FFF7FEFF 		bl	MAX30101_ReadPartID
  77:main.c        ****         MAX30101_ReadRevisionID(&rev_id);
 158              		.loc 1 77 0
 159 0086 FB1C     		adds	r3, r7, #3
 160 0088 1846     		mov	r0, r3
 161 008a FFF7FEFF 		bl	MAX30101_ReadRevisionID
  78:main.c        ****         sprintf(msg,"Revision ID: 0x%02X\r\n", rev_id);
 162              		.loc 1 78 0
 163 008e FB1C     		adds	r3, r7, #3
ARM GAS  C:\Users\Perro\AppData\Local\Temp\ccIynadQ.s 			page 6


 164 0090 1B78     		ldrb	r3, [r3]	@ zero_extendqisi2
 165 0092 1A46     		mov	r2, r3
 166 0094 07F5FD63 		add	r3, r7, #2024
 167 0098 BE49     		ldr	r1, .L12+16
 168 009a 1846     		mov	r0, r3
 169 009c FFF7FEFF 		bl	sprintf
  79:main.c        ****         debug_print(msg);
 170              		.loc 1 79 0
 171 00a0 07F5FD63 		add	r3, r7, #2024
 172 00a4 1846     		mov	r0, r3
 173 00a6 FFF7FEFF 		bl	UART_Debug_PutString
  80:main.c        ****         sprintf(msg,"Part ID: 0x%02X\r\n", part_id);
 174              		.loc 1 80 0
 175 00aa BB1C     		adds	r3, r7, #2
 176 00ac 1B78     		ldrb	r3, [r3]	@ zero_extendqisi2
 177 00ae 1A46     		mov	r2, r3
 178 00b0 07F5FD63 		add	r3, r7, #2024
 179 00b4 B849     		ldr	r1, .L12+20
 180 00b6 1846     		mov	r0, r3
 181 00b8 FFF7FEFF 		bl	sprintf
  81:main.c        ****         debug_print(msg);
 182              		.loc 1 81 0
 183 00bc 07F5FD63 		add	r3, r7, #2024
 184 00c0 1846     		mov	r0, r3
 185 00c2 FFF7FEFF 		bl	UART_Debug_PutString
  82:main.c        ****         
  83:main.c        ****         debug_print("Registers before configuration\r\n");
 186              		.loc 1 83 0
 187 00c6 B548     		ldr	r0, .L12+24
 188 00c8 FFF7FEFF 		bl	UART_Debug_PutString
  84:main.c        ****         MAX30101_LogRegisters(print_ptr);
 189              		.loc 1 84 0
 190 00cc D7F8AC09 		ldr	r0, [r7, #2476]
 191 00d0 FFF7FEFF 		bl	MAX30101_LogRegisters
  85:main.c        ****         
  86:main.c        ****         // Soft reset sensor
  87:main.c        ****         MAX30101_Reset();
 192              		.loc 1 87 0
 193 00d4 FFF7FEFF 		bl	MAX30101_Reset
  88:main.c        ****         CyDelay(100);
 194              		.loc 1 88 0
 195 00d8 6420     		movs	r0, #100
 196 00da FFF7FEFF 		bl	CyDelay
  89:main.c        ****         
  90:main.c        ****         // Wake up sensor
  91:main.c        ****         MAX30101_WakeUp();
 197              		.loc 1 91 0
 198 00de FFF7FEFF 		bl	MAX30101_WakeUp
  92:main.c        ****         
  93:main.c        ****         MAX30101_DisableALCOverflowInt();
 199              		.loc 1 93 0
 200 00e2 FFF7FEFF 		bl	MAX30101_DisableALCOverflowInt
  94:main.c        ****         MAX30101_DisableTempReadyInt();
 201              		.loc 1 94 0
 202 00e6 FFF7FEFF 		bl	MAX30101_DisableTempReadyInt
  95:main.c        ****         MAX30101_DisablePPGReadyInt();
 203              		.loc 1 95 0
ARM GAS  C:\Users\Perro\AppData\Local\Temp\ccIynadQ.s 			page 7


 204 00ea FFF7FEFF 		bl	MAX30101_DisablePPGReadyInt
  96:main.c        ****         MAX30101_EnableFIFOAFullInt();
 205              		.loc 1 96 0
 206 00ee FFF7FEFF 		bl	MAX30101_EnableFIFOAFullInt
  97:main.c        ****      
  98:main.c        ****         // set 28 samples to trigger interrupt
  99:main.c        ****         MAX30101_SetFIFOAlmostFull(FIFO_max_size);
 207              		.loc 1 99 0
 208 00f2 D7F8A039 		ldr	r3, [r7, #2464]
 209 00f6 DBB2     		uxtb	r3, r3
 210 00f8 1846     		mov	r0, r3
 211 00fa FFF7FEFF 		bl	MAX30101_SetFIFOAlmostFull
 100:main.c        **** 
 101:main.c        ****         // enable fifo rollover
 102:main.c        ****         MAX30101_EnableFIFORollover();
 212              		.loc 1 102 0
 213 00fe FFF7FEFF 		bl	MAX30101_EnableFIFORollover
 103:main.c        ****         
 104:main.c        ****         // 8 samples averaged
 105:main.c        ****         MAX30101_SetSampleAverage(MAX30101_SAMPLE_AVG_2);
 214              		.loc 1 105 0
 215 0102 2020     		movs	r0, #32
 216 0104 FFF7FEFF 		bl	MAX30101_SetSampleAverage
 106:main.c        ****         
 107:main.c        ****         // Set LED Power level
 108:main.c        ****         MAX30101_SetLEDPulseAmplitude(MAX30101_LED_1, 0x05);
 217              		.loc 1 108 0
 218 0108 0521     		movs	r1, #5
 219 010a 0020     		movs	r0, #0
 220 010c FFF7FEFF 		bl	MAX30101_SetLEDPulseAmplitude
 109:main.c        ****         
 110:main.c        ****         MAX30101_SetLEDPulseAmplitude(MAX30101_LED_2, 0x05);
 221              		.loc 1 110 0
 222 0110 0521     		movs	r1, #5
 223 0112 0120     		movs	r0, #1
 224 0114 FFF7FEFF 		bl	MAX30101_SetLEDPulseAmplitude
 111:main.c        ****         
 112:main.c        ****         MAX30101_SetLEDPulseAmplitude(MAX30101_LED_3, 0x1F);
 225              		.loc 1 112 0
 226 0118 1F21     		movs	r1, #31
 227 011a 0220     		movs	r0, #2
 228 011c FFF7FEFF 		bl	MAX30101_SetLEDPulseAmplitude
 113:main.c        ****         
 114:main.c        ****         MAX30101_SetLEDPulseAmplitude(MAX30101_LED_4, 0x1F);
 229              		.loc 1 114 0
 230 0120 1F21     		movs	r1, #31
 231 0122 0320     		movs	r0, #3
 232 0124 FFF7FEFF 		bl	MAX30101_SetLEDPulseAmplitude
 115:main.c        ****         
 116:main.c        ****         // Set ADC Range
 117:main.c        ****         MAX30101_SetSpO2ADCRange(MAX30101_ADC_RANGE_2048);
 233              		.loc 1 117 0
 234 0128 0020     		movs	r0, #0
 235 012a FFF7FEFF 		bl	MAX30101_SetSpO2ADCRange
 118:main.c        ****         
 119:main.c        ****         // Pulse width
 120:main.c        ****         MAX30101_SetSpO2PulseWidth(MAX30101_PULSEWIDTH_411);
ARM GAS  C:\Users\Perro\AppData\Local\Temp\ccIynadQ.s 			page 8


 236              		.loc 1 120 0
 237 012e 0320     		movs	r0, #3
 238 0130 FFF7FEFF 		bl	MAX30101_SetSpO2PulseWidth
 121:main.c        ****         
 122:main.c        ****         // Set Sample Rate
 123:main.c        ****         MAX30101_SetSpO2SampleRate(MAX30101_SAMPLE_RATE_100);
 239              		.loc 1 123 0
 240 0134 0420     		movs	r0, #4
 241 0136 FFF7FEFF 		bl	MAX30101_SetSpO2SampleRate
 124:main.c        ****         
 125:main.c        ****         // Set mode
 126:main.c        ****         MAX30101_SetMode(MAX30101_SPO2_MODE);
 242              		.loc 1 126 0
 243 013a 0320     		movs	r0, #3
 244 013c FFF7FEFF 		bl	MAX30101_SetMode
 127:main.c        ****         
 128:main.c        ****         // Enable Slots
 129:main.c        ****         MAX30101_DisableSlots();
 245              		.loc 1 129 0
 246 0140 FFF7FEFF 		bl	MAX30101_DisableSlots
 130:main.c        ****         
 131:main.c        ****         debug_print("Registers after configuration\r\n");
 247              		.loc 1 131 0
 248 0144 9648     		ldr	r0, .L12+28
 249 0146 FFF7FEFF 		bl	UART_Debug_PutString
 132:main.c        ****         MAX30101_LogRegisters(print_ptr);
 250              		.loc 1 132 0
 251 014a D7F8AC09 		ldr	r0, [r7, #2476]
 252 014e FFF7FEFF 		bl	MAX30101_LogRegisters
 253              	.L11:
 254              	.LBE2:
 133:main.c        ****     }
 134:main.c        ****     
 135:main.c        ****     debug_print("\r\n\r\n");
 255              		.loc 1 135 0 discriminator 1
 256 0152 9448     		ldr	r0, .L12+32
 257 0154 FFF7FEFF 		bl	UART_Debug_PutString
 136:main.c        ****     
 137:main.c        ****     isr_MAX30101_StartEx(MAX30101_ISR);
 258              		.loc 1 137 0 discriminator 1
 259 0158 9348     		ldr	r0, .L12+36
 260 015a FFF7FEFF 		bl	isr_MAX30101_StartEx
 138:main.c        ****     // Clear FIFO
 139:main.c        ****     MAX30101_ClearFIFO();
 261              		.loc 1 139 0 discriminator 1
 262 015e FFF7FEFF 		bl	MAX30101_ClearFIFO
 140:main.c        ****     
 141:main.c        ****     CyGlobalIntEnable; /* Enable global interrupts. */
 263              		.loc 1 141 0 discriminator 1
 264              		.syntax unified
 265              	@ 141 "main.c" 1
 266 0162 62B6     		CPSIE   i
 267              	@ 0 "" 2
 268              		.thumb
 269              		.syntax unified
 270              	.L10:
 142:main.c        ****     
ARM GAS  C:\Users\Perro\AppData\Local\Temp\ccIynadQ.s 			page 9


 143:main.c        ****     for(;;)
 144:main.c        ****     {
 145:main.c        ****         if (flag_temp == 1)
 271              		.loc 1 145 0
 272 0164 914B     		ldr	r3, .L12+40
 273 0166 1B78     		ldrb	r3, [r3]	@ zero_extendqisi2
 274 0168 012B     		cmp	r3, #1
 275 016a FBD1     		bne	.L10
 146:main.c        ****         {
 147:main.c        ****             MAX30101_IsFIFOAFull(&flag);
 276              		.loc 1 147 0
 277 016c 07F2E573 		addw	r3, r7, #2021
 278 0170 1846     		mov	r0, r3
 279 0172 FFF7FEFF 		bl	MAX30101_IsFIFOAFull
 148:main.c        ****             if (flag > 0)
 280              		.loc 1 148 0
 281 0176 07F2E573 		addw	r3, r7, #2021
 282 017a 1B78     		ldrb	r3, [r3]	@ zero_extendqisi2
 283 017c 002B     		cmp	r3, #0
 284 017e 79D0     		beq	.L4
 149:main.c        ****             {   
 150:main.c        ****                 MAX30101_ReadReadPointer(&rp);
 285              		.loc 1 150 0
 286 0180 07F2E773 		addw	r3, r7, #2023
 287 0184 1846     		mov	r0, r3
 288 0186 FFF7FEFF 		bl	MAX30101_ReadReadPointer
 151:main.c        ****                 MAX30101_ReadWritePointer(&wp);
 289              		.loc 1 151 0
 290 018a 07F2E673 		addw	r3, r7, #2022
 291 018e 1846     		mov	r0, r3
 292 0190 FFF7FEFF 		bl	MAX30101_ReadWritePointer
 152:main.c        ****                 //Calculate the number of readings we need to get from sensor
 153:main.c        ****                 num_samples = wp - rp;
 293              		.loc 1 153 0
 294 0194 07F2E673 		addw	r3, r7, #2022
 295 0198 1B78     		ldrb	r3, [r3]	@ zero_extendqisi2
 296 019a 1A46     		mov	r2, r3
 297 019c 07F2E773 		addw	r3, r7, #2023
 298 01a0 1B78     		ldrb	r3, [r3]	@ zero_extendqisi2
 299 01a2 D31A     		subs	r3, r2, r3
 300 01a4 C7F8BC39 		str	r3, [r7, #2492]
 154:main.c        ****                 if (num_samples <= 0) 
 301              		.loc 1 154 0
 302 01a8 D7F8BC39 		ldr	r3, [r7, #2492]
 303 01ac 002B     		cmp	r3, #0
 304 01ae 04DC     		bgt	.L5
 155:main.c        ****                     num_samples += 32; //Wrap condition
 305              		.loc 1 155 0
 306 01b0 D7F8BC39 		ldr	r3, [r7, #2492]
 307 01b4 2033     		adds	r3, r3, #32
 308 01b6 C7F8BC39 		str	r3, [r7, #2492]
 309              	.L5:
 156:main.c        ****                 // Print out number of samples
 157:main.c        ****                 sprintf(msg, "%d\r\n", num_samples);
 310              		.loc 1 157 0
 311 01ba 07F5FD63 		add	r3, r7, #2024
 312 01be D7F8BC29 		ldr	r2, [r7, #2492]
ARM GAS  C:\Users\Perro\AppData\Local\Temp\ccIynadQ.s 			page 10


 313 01c2 7B49     		ldr	r1, .L12+44
 314 01c4 1846     		mov	r0, r3
 315 01c6 FFF7FEFF 		bl	sprintf
 158:main.c        ****                 debug_print(msg);
 316              		.loc 1 158 0
 317 01ca 07F5FD63 		add	r3, r7, #2024
 318 01ce 1846     		mov	r0, r3
 319 01d0 FFF7FEFF 		bl	UART_Debug_PutString
 159:main.c        ****                 // Read FIFO
 160:main.c        ****                 MAX30101_ReadFIFO(num_samples, active_leds, &data, j);
 320              		.loc 1 160 0
 321 01d4 D7F8BC39 		ldr	r3, [r7, #2492]
 322 01d8 D8B2     		uxtb	r0, r3
 323 01da 07F61C02 		addw	r2, r7, #2076
 324 01de 97F8AB19 		ldrb	r1, [r7, #2475]	@ zero_extendqisi2
 325 01e2 D7F8B839 		ldr	r3, [r7, #2488]
 326 01e6 FFF7FEFF 		bl	MAX30101_ReadFIFO
 327              	.LBB3:
 161:main.c        ****                 //int samples = data.head - data.tail;
 162:main.c        ****                 //sprintf(msg, "%d\r\n", samples);
 163:main.c        ****                 //debug_print(msg);
 164:main.c        ****                 for (int i=0;i<num_samples;i++){
 328              		.loc 1 164 0
 329 01ea 0023     		movs	r3, #0
 330 01ec C7F8B439 		str	r3, [r7, #2484]
 331 01f0 3AE0     		b	.L6
 332              	.L7:
 165:main.c        ****                     /*sprintf(msg, "red: %lu\r", data.red[data.tail+i]);
 166:main.c        ****                     debug_print(msg);
 167:main.c        ****                     sprintf(msg, "ir: %lu\r", data.IR[data.tail+i]);
 168:main.c        ****                     debug_print(msg);*/
 169:main.c        ****                     //data.tail++;
 170:main.c        ****                     redBuffer[j] = data.red[data.tail+i];
 333              		.loc 1 170 0
 334 01f2 07F61C03 		addw	r3, r7, #2076
 335 01f6 93F88131 		ldrb	r3, [r3, #385]	@ zero_extendqisi2
 336 01fa 1A46     		mov	r2, r3
 337 01fc D7F8B439 		ldr	r3, [r7, #2484]
 338 0200 1A44     		add	r2, r2, r3
 339 0202 07F61C03 		addw	r3, r7, #2076
 340 0206 53F82210 		ldr	r1, [r3, r2, lsl #2]
 341 020a 3B1D     		adds	r3, r7, #4
 342 020c D7F8B829 		ldr	r2, [r7, #2488]
 343 0210 43F82210 		str	r1, [r3, r2, lsl #2]
 171:main.c        ****                     irBuffer[j] = data.IR[data.tail+i];
 344              		.loc 1 171 0
 345 0214 07F61C03 		addw	r3, r7, #2076
 346 0218 93F88131 		ldrb	r3, [r3, #385]	@ zero_extendqisi2
 347 021c 1A46     		mov	r2, r3
 348 021e D7F8B439 		ldr	r3, [r7, #2484]
 349 0222 1A44     		add	r2, r2, r3
 350 0224 07F61C03 		addw	r3, r7, #2076
 351 0228 2032     		adds	r2, r2, #32
 352 022a 53F82210 		ldr	r1, [r3, r2, lsl #2]
 353 022e 07F57B73 		add	r3, r7, #1004
 354 0232 D7F8B829 		ldr	r2, [r7, #2488]
 355 0236 43F82210 		str	r1, [r3, r2, lsl #2]
ARM GAS  C:\Users\Perro\AppData\Local\Temp\ccIynadQ.s 			page 11


 172:main.c        ****                     j++;
 356              		.loc 1 172 0
 357 023a D7F8B839 		ldr	r3, [r7, #2488]
 358 023e 0133     		adds	r3, r3, #1
 359 0240 C7F8B839 		str	r3, [r7, #2488]
 173:main.c        ****                     sprintf(msg, "number of samples taken: %d\r", j);
 360              		.loc 1 173 0
 361 0244 07F5FD63 		add	r3, r7, #2024
 362 0248 D7F8B829 		ldr	r2, [r7, #2488]
 363 024c 5949     		ldr	r1, .L12+48
 364 024e 1846     		mov	r0, r3
 365 0250 FFF7FEFF 		bl	sprintf
 174:main.c        ****                     debug_print(msg);
 366              		.loc 1 174 0
 367 0254 07F5FD63 		add	r3, r7, #2024
 368 0258 1846     		mov	r0, r3
 369 025a FFF7FEFF 		bl	UART_Debug_PutString
 164:main.c        ****                     /*sprintf(msg, "red: %lu\r", data.red[data.tail+i]);
 370              		.loc 1 164 0
 371 025e D7F8B439 		ldr	r3, [r7, #2484]
 372 0262 0133     		adds	r3, r3, #1
 373 0264 C7F8B439 		str	r3, [r7, #2484]
 374              	.L6:
 164:main.c        ****                     /*sprintf(msg, "red: %lu\r", data.red[data.tail+i]);
 375              		.loc 1 164 0 is_stmt 0 discriminator 1
 376 0268 D7F8B429 		ldr	r2, [r7, #2484]
 377 026c D7F8BC39 		ldr	r3, [r7, #2492]
 378 0270 9A42     		cmp	r2, r3
 379 0272 BEDB     		blt	.L7
 380              	.L4:
 381              	.LBE3:
 175:main.c        ****                     /*if(flag_1s) {
 176:main.c        ****                         sprintf(msg, "spo2: %ld\r", spo2);
 177:main.c        ****                         debug_print(msg);
 178:main.c        ****                         sprintf(msg, "validspo2: %d\r", validSPO2);
 179:main.c        ****                         debug_print(msg);
 180:main.c        ****                         sprintf(msg, "HR: %ld\r", heartRate);
 181:main.c        ****                         debug_print(msg);
 182:main.c        ****                         sprintf(msg, "validHR: %d\r\n", validHeartRate);
 183:main.c        ****                         debug_print(msg);   
 184:main.c        ****                         flag_1s = 0;
 185:main.c        ****                     }*/
 186:main.c        ****                 }
 187:main.c        ****                 //data.tail = 0;
 188:main.c        ****                 //data.head = 0;
 189:main.c        ****             }
 190:main.c        ****             flag_temp = 0;
 382              		.loc 1 190 0 is_stmt 1
 383 0274 4D4B     		ldr	r3, .L12+40
 384 0276 0022     		movs	r2, #0
 385 0278 1A70     		strb	r2, [r3]
 191:main.c        ****             if(j>=bufferLength) {
 386              		.loc 1 191 0
 387 027a D7F8B829 		ldr	r2, [r7, #2488]
 388 027e D7F8A439 		ldr	r3, [r7, #2468]
 389 0282 9A42     		cmp	r2, r3
 390 0284 FFF66EAF 		blt	.L10
ARM GAS  C:\Users\Perro\AppData\Local\Temp\ccIynadQ.s 			page 12


 192:main.c        ****                 maxim_heart_rate_and_oxygen_saturation(irBuffer, bufferLength, redBuffer, &spo2, &v
 391              		.loc 1 192 0
 392 0288 07F5FC61 		add	r1, r7, #2016
 393 028c 3A1D     		adds	r2, r7, #4
 394 028e 07F57B70 		add	r0, r7, #1004
 395 0292 07F2D773 		addw	r3, r7, #2007
 396 0296 0293     		str	r3, [sp, #8]
 397 0298 07F5FB63 		add	r3, r7, #2008
 398 029c 0193     		str	r3, [sp, #4]
 399 029e 07F2DF73 		addw	r3, r7, #2015
 400 02a2 0093     		str	r3, [sp]
 401 02a4 0B46     		mov	r3, r1
 402 02a6 D7F8A419 		ldr	r1, [r7, #2468]
 403 02aa FFF7FEFF 		bl	maxim_heart_rate_and_oxygen_saturation
 193:main.c        ****                 //flag_1s = 1;
 194:main.c        ****                 j=bufferLength - 50;
 404              		.loc 1 194 0
 405 02ae D7F8A439 		ldr	r3, [r7, #2468]
 406 02b2 323B     		subs	r3, r3, #50
 407 02b4 C7F8B839 		str	r3, [r7, #2488]
 408              	.LBB4:
 195:main.c        ****                 for (int i=50; i<bufferLength; i++) {
 409              		.loc 1 195 0
 410 02b8 3223     		movs	r3, #50
 411 02ba C7F8B039 		str	r3, [r7, #2480]
 412 02be 1EE0     		b	.L8
 413              	.L9:
 196:main.c        ****                     redBuffer[i-50] = redBuffer[i];
 414              		.loc 1 196 0 discriminator 3
 415 02c0 D7F8B039 		ldr	r3, [r7, #2480]
 416 02c4 A3F13202 		sub	r2, r3, #50
 417 02c8 3B1D     		adds	r3, r7, #4
 418 02ca D7F8B019 		ldr	r1, [r7, #2480]
 419 02ce 53F82110 		ldr	r1, [r3, r1, lsl #2]
 420 02d2 3B1D     		adds	r3, r7, #4
 421 02d4 43F82210 		str	r1, [r3, r2, lsl #2]
 197:main.c        ****                     irBuffer[i-50] = irBuffer[i];
 422              		.loc 1 197 0 discriminator 3
 423 02d8 D7F8B039 		ldr	r3, [r7, #2480]
 424 02dc A3F13202 		sub	r2, r3, #50
 425 02e0 07F57B73 		add	r3, r7, #1004
 426 02e4 D7F8B019 		ldr	r1, [r7, #2480]
 427 02e8 53F82110 		ldr	r1, [r3, r1, lsl #2]
 428 02ec 07F57B73 		add	r3, r7, #1004
 429 02f0 43F82210 		str	r1, [r3, r2, lsl #2]
 195:main.c        ****                 for (int i=50; i<bufferLength; i++) {
 430              		.loc 1 195 0 discriminator 3
 431 02f4 D7F8B039 		ldr	r3, [r7, #2480]
 432 02f8 0133     		adds	r3, r3, #1
 433 02fa C7F8B039 		str	r3, [r7, #2480]
 434              	.L8:
 195:main.c        ****                 for (int i=50; i<bufferLength; i++) {
 435              		.loc 1 195 0 is_stmt 0 discriminator 1
 436 02fe D7F8B029 		ldr	r2, [r7, #2480]
 437 0302 D7F8A439 		ldr	r3, [r7, #2468]
 438 0306 9A42     		cmp	r2, r3
 439 0308 DADB     		blt	.L9
ARM GAS  C:\Users\Perro\AppData\Local\Temp\ccIynadQ.s 			page 13


 440              	.LBE4:
 198:main.c        ****                 }
 199:main.c        ****                 sprintf(msg, "spo2: %ld\r", spo2);
 441              		.loc 1 199 0 is_stmt 1
 442 030a 07F5FC63 		add	r3, r7, #2016
 443 030e 1A68     		ldr	r2, [r3]
 444 0310 07F5FD63 		add	r3, r7, #2024
 445 0314 2849     		ldr	r1, .L12+52
 446 0316 1846     		mov	r0, r3
 447 0318 FFF7FEFF 		bl	sprintf
 200:main.c        ****                 debug_print(msg);
 448              		.loc 1 200 0
 449 031c 07F5FD63 		add	r3, r7, #2024
 450 0320 1846     		mov	r0, r3
 451 0322 FFF7FEFF 		bl	UART_Debug_PutString
 201:main.c        ****                 sprintf(msg, "validspo2: %d\r", validSPO2);
 452              		.loc 1 201 0
 453 0326 07F2DF73 		addw	r3, r7, #2015
 454 032a 93F90030 		ldrsb	r3, [r3]
 455 032e 1A46     		mov	r2, r3
 456 0330 07F5FD63 		add	r3, r7, #2024
 457 0334 2149     		ldr	r1, .L12+56
 458 0336 1846     		mov	r0, r3
 459 0338 FFF7FEFF 		bl	sprintf
 202:main.c        ****                 debug_print(msg);
 460              		.loc 1 202 0
 461 033c 07F5FD63 		add	r3, r7, #2024
 462 0340 1846     		mov	r0, r3
 463 0342 FFF7FEFF 		bl	UART_Debug_PutString
 203:main.c        ****                 sprintf(msg, "HR: %ld\r", heartRate);
 464              		.loc 1 203 0
 465 0346 07F5FB63 		add	r3, r7, #2008
 466 034a 1A68     		ldr	r2, [r3]
 467 034c 07F5FD63 		add	r3, r7, #2024
 468 0350 1B49     		ldr	r1, .L12+60
 469 0352 1846     		mov	r0, r3
 470 0354 FFF7FEFF 		bl	sprintf
 204:main.c        ****                 debug_print(msg);
 471              		.loc 1 204 0
 472 0358 07F5FD63 		add	r3, r7, #2024
 473 035c 1846     		mov	r0, r3
 474 035e FFF7FEFF 		bl	UART_Debug_PutString
 205:main.c        ****                 sprintf(msg, "validHR: %d\r\n", validHeartRate);
 475              		.loc 1 205 0
 476 0362 07F2D773 		addw	r3, r7, #2007
 477 0366 93F90030 		ldrsb	r3, [r3]
 478 036a 1A46     		mov	r2, r3
 479 036c 07F5FD63 		add	r3, r7, #2024
 480 0370 1449     		ldr	r1, .L12+64
 481 0372 1846     		mov	r0, r3
 482 0374 FFF7FEFF 		bl	sprintf
 206:main.c        ****                 debug_print(msg); 
 483              		.loc 1 206 0
 484 0378 07F5FD63 		add	r3, r7, #2024
 485 037c 1846     		mov	r0, r3
 486 037e FFF7FEFF 		bl	UART_Debug_PutString
 207:main.c        ****             }
ARM GAS  C:\Users\Perro\AppData\Local\Temp\ccIynadQ.s 			page 14


 208:main.c        ****         }
 209:main.c        ****     }
 487              		.loc 1 209 0
 488 0382 EFE6     		b	.L10
 489              	.L13:
 490              		.align	2
 491              	.L12:
 492 0384 00000000 		.word	UART_Debug_PutString
 493 0388 00000000 		.word	.LC0
 494 038c 20000000 		.word	.LC1
 495 0390 40000000 		.word	.LC2
 496 0394 5C000000 		.word	.LC3
 497 0398 74000000 		.word	.LC4
 498 039c 88000000 		.word	.LC5
 499 03a0 AC000000 		.word	.LC6
 500 03a4 CC000000 		.word	.LC7
 501 03a8 00000000 		.word	MAX30101_ISR
 502 03ac 00000000 		.word	flag_temp
 503 03b0 D4000000 		.word	.LC8
 504 03b4 DC000000 		.word	.LC9
 505 03b8 FC000000 		.word	.LC10
 506 03bc 08010000 		.word	.LC11
 507 03c0 18010000 		.word	.LC12
 508 03c4 24010000 		.word	.LC13
 509              		.cfi_endproc
 510              	.LFE64:
 511              		.size	main, .-main
 512              		.section	.text.MAX30101_ISR,"ax",%progbits
 513              		.align	2
 514              		.global	MAX30101_ISR
 515              		.thumb
 516              		.thumb_func
 517              		.type	MAX30101_ISR, %function
 518              	MAX30101_ISR:
 519              	.LFB65:
 210:main.c        **** }
 211:main.c        **** 
 212:main.c        **** CY_ISR(MAX30101_ISR)
 213:main.c        **** {
 520              		.loc 1 213 0
 521              		.cfi_startproc
 522              		@ args = 0, pretend = 0, frame = 0
 523              		@ frame_needed = 1, uses_anonymous_args = 0
 524 0000 80B5     		push	{r7, lr}
 525              		.cfi_def_cfa_offset 8
 526              		.cfi_offset 7, -8
 527              		.cfi_offset 14, -4
 528 0002 00AF     		add	r7, sp, #0
 529              		.cfi_def_cfa_register 7
 214:main.c        ****     Connection_LED_Write(!Connection_LED_Read());
 530              		.loc 1 214 0
 531 0004 FFF7FEFF 		bl	Connection_LED_Read
 532 0008 0346     		mov	r3, r0
 533 000a 002B     		cmp	r3, #0
 534 000c 0CBF     		ite	eq
 535 000e 0123     		moveq	r3, #1
 536 0010 0023     		movne	r3, #0
ARM GAS  C:\Users\Perro\AppData\Local\Temp\ccIynadQ.s 			page 15


 537 0012 DBB2     		uxtb	r3, r3
 538 0014 1846     		mov	r0, r3
 539 0016 FFF7FEFF 		bl	Connection_LED_Write
 215:main.c        ****     MAX30101_INT_ClearInterrupt();
 540              		.loc 1 215 0
 541 001a FFF7FEFF 		bl	MAX30101_INT_ClearInterrupt
 216:main.c        ****     flag_temp = 1;
 542              		.loc 1 216 0
 543 001e 024B     		ldr	r3, .L15
 544 0020 0122     		movs	r2, #1
 545 0022 1A70     		strb	r2, [r3]
 217:main.c        **** }
 546              		.loc 1 217 0
 547 0024 00BF     		nop
 548 0026 80BD     		pop	{r7, pc}
 549              	.L16:
 550              		.align	2
 551              	.L15:
 552 0028 00000000 		.word	flag_temp
 553              		.cfi_endproc
 554              	.LFE65:
 555              		.size	MAX30101_ISR, .-MAX30101_ISR
 556              		.text
 557              	.Letext0:
 558              		.file 2 "c:\\program files (x86)\\cypress\\psoc creator\\4.4\\psoc creator\\import\\gnu\\arm\\5.4.
 559              		.file 3 "c:\\program files (x86)\\cypress\\psoc creator\\4.4\\psoc creator\\import\\gnu\\arm\\5.4.
 560              		.file 4 "MAX30101.h"
 561              		.file 5 "Generated_Source\\PSoC5/core_cm3.h"
 562              		.section	.debug_info,"",%progbits
 563              	.Ldebug_info0:
 564 0000 42030000 		.4byte	0x342
 565 0004 0400     		.2byte	0x4
 566 0006 00000000 		.4byte	.Ldebug_abbrev0
 567 000a 04       		.byte	0x4
 568 000b 01       		.uleb128 0x1
 569 000c 1E000000 		.4byte	.LASF44
 570 0010 0C       		.byte	0xc
 571 0011 07020000 		.4byte	.LASF45
 572 0015 3C020000 		.4byte	.LASF46
 573 0019 00000000 		.4byte	.Ldebug_ranges0+0
 574 001d 00000000 		.4byte	0
 575 0021 00000000 		.4byte	.Ldebug_line0
 576 0025 02       		.uleb128 0x2
 577 0026 99020000 		.4byte	.LASF0
 578 002a 02       		.byte	0x2
 579 002b 1B       		.byte	0x1b
 580 002c 30000000 		.4byte	0x30
 581 0030 03       		.uleb128 0x3
 582 0031 01       		.byte	0x1
 583 0032 06       		.byte	0x6
 584 0033 F5000000 		.4byte	.LASF2
 585 0037 02       		.uleb128 0x2
 586 0038 14000000 		.4byte	.LASF1
 587 003c 02       		.byte	0x2
 588 003d 1D       		.byte	0x1d
 589 003e 42000000 		.4byte	0x42
 590 0042 03       		.uleb128 0x3
ARM GAS  C:\Users\Perro\AppData\Local\Temp\ccIynadQ.s 			page 16


 591 0043 01       		.byte	0x1
 592 0044 08       		.byte	0x8
 593 0045 01010000 		.4byte	.LASF3
 594 0049 03       		.uleb128 0x3
 595 004a 02       		.byte	0x2
 596 004b 05       		.byte	0x5
 597 004c 21020000 		.4byte	.LASF4
 598 0050 03       		.uleb128 0x3
 599 0051 02       		.byte	0x2
 600 0052 07       		.byte	0x7
 601 0053 3A010000 		.4byte	.LASF5
 602 0057 02       		.uleb128 0x2
 603 0058 AC000000 		.4byte	.LASF6
 604 005c 02       		.byte	0x2
 605 005d 3F       		.byte	0x3f
 606 005e 62000000 		.4byte	0x62
 607 0062 03       		.uleb128 0x3
 608 0063 04       		.byte	0x4
 609 0064 05       		.byte	0x5
 610 0065 90020000 		.4byte	.LASF7
 611 0069 02       		.uleb128 0x2
 612 006a 84010000 		.4byte	.LASF8
 613 006e 02       		.byte	0x2
 614 006f 41       		.byte	0x41
 615 0070 74000000 		.4byte	0x74
 616 0074 03       		.uleb128 0x3
 617 0075 04       		.byte	0x4
 618 0076 07       		.byte	0x7
 619 0077 28010000 		.4byte	.LASF9
 620 007b 03       		.uleb128 0x3
 621 007c 08       		.byte	0x8
 622 007d 05       		.byte	0x5
 623 007e F9010000 		.4byte	.LASF10
 624 0082 03       		.uleb128 0x3
 625 0083 08       		.byte	0x8
 626 0084 07       		.byte	0x7
 627 0085 B8010000 		.4byte	.LASF11
 628 0089 04       		.uleb128 0x4
 629 008a 04       		.byte	0x4
 630 008b 05       		.byte	0x5
 631 008c 696E7400 		.ascii	"int\000"
 632 0090 03       		.uleb128 0x3
 633 0091 04       		.byte	0x4
 634 0092 07       		.byte	0x7
 635 0093 AB010000 		.4byte	.LASF12
 636 0097 02       		.uleb128 0x2
 637 0098 D6000000 		.4byte	.LASF13
 638 009c 03       		.byte	0x3
 639 009d 14       		.byte	0x14
 640 009e 25000000 		.4byte	0x25
 641 00a2 02       		.uleb128 0x2
 642 00a3 CF010000 		.4byte	.LASF14
 643 00a7 03       		.byte	0x3
 644 00a8 18       		.byte	0x18
 645 00a9 37000000 		.4byte	0x37
 646 00ad 02       		.uleb128 0x2
 647 00ae 17010000 		.4byte	.LASF15
ARM GAS  C:\Users\Perro\AppData\Local\Temp\ccIynadQ.s 			page 17


 648 00b2 03       		.byte	0x3
 649 00b3 2C       		.byte	0x2c
 650 00b4 57000000 		.4byte	0x57
 651 00b8 02       		.uleb128 0x2
 652 00b9 87020000 		.4byte	.LASF16
 653 00bd 03       		.byte	0x3
 654 00be 30       		.byte	0x30
 655 00bf 69000000 		.4byte	0x69
 656 00c3 03       		.uleb128 0x3
 657 00c4 04       		.byte	0x4
 658 00c5 04       		.byte	0x4
 659 00c6 EA000000 		.4byte	.LASF17
 660 00ca 03       		.uleb128 0x3
 661 00cb 08       		.byte	0x8
 662 00cc 04       		.byte	0x4
 663 00cd 6F010000 		.4byte	.LASF18
 664 00d1 03       		.uleb128 0x3
 665 00d2 01       		.byte	0x1
 666 00d3 08       		.byte	0x8
 667 00d4 0E020000 		.4byte	.LASF19
 668 00d8 03       		.uleb128 0x3
 669 00d9 08       		.byte	0x8
 670 00da 04       		.byte	0x4
 671 00db E4010000 		.4byte	.LASF20
 672 00df 03       		.uleb128 0x3
 673 00e0 04       		.byte	0x4
 674 00e1 07       		.byte	0x7
 675 00e2 F0010000 		.4byte	.LASF21
 676 00e6 05       		.uleb128 0x5
 677 00e7 04       		.byte	0x4
 678 00e8 EC000000 		.4byte	0xec
 679 00ec 06       		.uleb128 0x6
 680 00ed D1000000 		.4byte	0xd1
 681 00f1 07       		.uleb128 0x7
 682 00f2 8401     		.2byte	0x184
 683 00f4 04       		.byte	0x4
 684 00f5 1B       		.byte	0x1b
 685 00f6 39010000 		.4byte	0x139
 686 00fa 08       		.uleb128 0x8
 687 00fb 72656400 		.ascii	"red\000"
 688 00ff 04       		.byte	0x4
 689 0100 1D       		.byte	0x1d
 690 0101 39010000 		.4byte	0x139
 691 0105 00       		.byte	0
 692 0106 08       		.uleb128 0x8
 693 0107 495200   		.ascii	"IR\000"
 694 010a 04       		.byte	0x4
 695 010b 1E       		.byte	0x1e
 696 010c 39010000 		.4byte	0x139
 697 0110 80       		.byte	0x80
 698 0111 09       		.uleb128 0x9
 699 0112 4D010000 		.4byte	.LASF22
 700 0116 04       		.byte	0x4
 701 0117 1F       		.byte	0x1f
 702 0118 39010000 		.4byte	0x139
 703 011c 0001     		.2byte	0x100
 704 011e 09       		.uleb128 0x9
ARM GAS  C:\Users\Perro\AppData\Local\Temp\ccIynadQ.s 			page 18


 705 011f 8F010000 		.4byte	.LASF23
 706 0123 04       		.byte	0x4
 707 0124 20       		.byte	0x20
 708 0125 A2000000 		.4byte	0xa2
 709 0129 8001     		.2byte	0x180
 710 012b 09       		.uleb128 0x9
 711 012c 37020000 		.4byte	.LASF24
 712 0130 04       		.byte	0x4
 713 0131 21       		.byte	0x21
 714 0132 A2000000 		.4byte	0xa2
 715 0136 8101     		.2byte	0x181
 716 0138 00       		.byte	0
 717 0139 0A       		.uleb128 0xa
 718 013a B8000000 		.4byte	0xb8
 719 013e 49010000 		.4byte	0x149
 720 0142 0B       		.uleb128 0xb
 721 0143 DF000000 		.4byte	0xdf
 722 0147 1F       		.byte	0x1f
 723 0148 00       		.byte	0
 724 0149 02       		.uleb128 0x2
 725 014a 13020000 		.4byte	.LASF25
 726 014e 04       		.byte	0x4
 727 014f 22       		.byte	0x22
 728 0150 F1000000 		.4byte	0xf1
 729 0154 0C       		.uleb128 0xc
 730 0155 9E010000 		.4byte	.LASF47
 731 0159 01       		.byte	0x1
 732 015a 25       		.byte	0x25
 733 015b 89000000 		.4byte	0x89
 734 015f 00000000 		.4byte	.LFB64
 735 0163 C8030000 		.4byte	.LFE64-.LFB64
 736 0167 01       		.uleb128 0x1
 737 0168 9C       		.byte	0x9c
 738 0169 BF020000 		.4byte	0x2bf
 739 016d 0D       		.uleb128 0xd
 740 016e F0000000 		.4byte	.LASF26
 741 0172 01       		.byte	0x1
 742 0173 28       		.byte	0x28
 743 0174 49010000 		.4byte	0x149
 744 0178 03       		.uleb128 0x3
 745 0179 91       		.byte	0x91
 746 017a D47C     		.sleb128 -428
 747 017c 0E       		.uleb128 0xe
 748 017d 6D736700 		.ascii	"msg\000"
 749 0181 01       		.byte	0x1
 750 0182 2B       		.byte	0x2b
 751 0183 BF020000 		.4byte	0x2bf
 752 0187 03       		.uleb128 0x3
 753 0188 91       		.byte	0x91
 754 0189 A07C     		.sleb128 -480
 755 018b 0D       		.uleb128 0xd
 756 018c 0A000000 		.4byte	.LASF27
 757 0190 01       		.byte	0x1
 758 0191 2C       		.byte	0x2c
 759 0192 DA020000 		.4byte	0x2da
 760 0196 02       		.uleb128 0x2
 761 0197 91       		.byte	0x91
ARM GAS  C:\Users\Perro\AppData\Local\Temp\ccIynadQ.s 			page 19


 762 0198 64       		.sleb128 -28
 763 0199 0D       		.uleb128 0xd
 764 019a 2B020000 		.4byte	.LASF28
 765 019e 01       		.byte	0x1
 766 019f 2D       		.byte	0x2d
 767 01a0 A2000000 		.4byte	0xa2
 768 01a4 02       		.uleb128 0x2
 769 01a5 91       		.byte	0x91
 770 01a6 63       		.sleb128 -29
 771 01a7 0E       		.uleb128 0xe
 772 01a8 727000   		.ascii	"rp\000"
 773 01ab 01       		.byte	0x1
 774 01ac 2E       		.byte	0x2e
 775 01ad A2000000 		.4byte	0xa2
 776 01b1 03       		.uleb128 0x3
 777 01b2 91       		.byte	0x91
 778 01b3 9F7C     		.sleb128 -481
 779 01b5 0E       		.uleb128 0xe
 780 01b6 777000   		.ascii	"wp\000"
 781 01b9 01       		.byte	0x1
 782 01ba 2E       		.byte	0x2e
 783 01bb A2000000 		.4byte	0xa2
 784 01bf 03       		.uleb128 0x3
 785 01c0 91       		.byte	0x91
 786 01c1 9E7C     		.sleb128 -482
 787 01c3 0D       		.uleb128 0xd
 788 01c4 99010000 		.4byte	.LASF29
 789 01c8 01       		.byte	0x1
 790 01c9 2E       		.byte	0x2e
 791 01ca A2000000 		.4byte	0xa2
 792 01ce 03       		.uleb128 0x3
 793 01cf 91       		.byte	0x91
 794 01d0 9D7C     		.sleb128 -483
 795 01d2 0D       		.uleb128 0xd
 796 01d3 94010000 		.4byte	.LASF30
 797 01d7 01       		.byte	0x1
 798 01d8 2F       		.byte	0x2f
 799 01d9 AD000000 		.4byte	0xad
 800 01dd 03       		.uleb128 0x3
 801 01de 91       		.byte	0x91
 802 01df 987C     		.sleb128 -488
 803 01e1 0D       		.uleb128 0xd
 804 01e2 00000000 		.4byte	.LASF31
 805 01e6 01       		.byte	0x1
 806 01e7 30       		.byte	0x30
 807 01e8 97000000 		.4byte	0x97
 808 01ec 03       		.uleb128 0x3
 809 01ed 91       		.byte	0x91
 810 01ee 977C     		.sleb128 -489
 811 01f0 0D       		.uleb128 0xd
 812 01f1 CC000000 		.4byte	.LASF32
 813 01f5 01       		.byte	0x1
 814 01f6 31       		.byte	0x31
 815 01f7 AD000000 		.4byte	0xad
 816 01fb 03       		.uleb128 0x3
 817 01fc 91       		.byte	0x91
 818 01fd 907C     		.sleb128 -496
ARM GAS  C:\Users\Perro\AppData\Local\Temp\ccIynadQ.s 			page 20


 819 01ff 0D       		.uleb128 0xd
 820 0200 60010000 		.4byte	.LASF33
 821 0204 01       		.byte	0x1
 822 0205 32       		.byte	0x32
 823 0206 97000000 		.4byte	0x97
 824 020a 03       		.uleb128 0x3
 825 020b 91       		.byte	0x91
 826 020c 8F7C     		.sleb128 -497
 827 020e 0D       		.uleb128 0xd
 828 020f 1F010000 		.4byte	.LASF34
 829 0213 01       		.byte	0x1
 830 0214 33       		.byte	0x33
 831 0215 E0020000 		.4byte	0x2e0
 832 0219 03       		.uleb128 0x3
 833 021a 91       		.byte	0x91
 834 021b A474     		.sleb128 -1500
 835 021d 0D       		.uleb128 0xd
 836 021e A9020000 		.4byte	.LASF35
 837 0222 01       		.byte	0x1
 838 0223 34       		.byte	0x34
 839 0224 E0020000 		.4byte	0x2e0
 840 0228 03       		.uleb128 0x3
 841 0229 91       		.byte	0x91
 842 022a BC6C     		.sleb128 -2500
 843 022c 0D       		.uleb128 0xd
 844 022d D7010000 		.4byte	.LASF36
 845 0231 01       		.byte	0x1
 846 0232 35       		.byte	0x35
 847 0233 AD000000 		.4byte	0xad
 848 0237 02       		.uleb128 0x2
 849 0238 91       		.byte	0x91
 850 0239 5C       		.sleb128 -36
 851 023a 0D       		.uleb128 0xd
 852 023b C0000000 		.4byte	.LASF37
 853 023f 01       		.byte	0x1
 854 0240 36       		.byte	0x36
 855 0241 89000000 		.4byte	0x89
 856 0245 02       		.uleb128 0x2
 857 0246 91       		.byte	0x91
 858 0247 74       		.sleb128 -12
 859 0248 0E       		.uleb128 0xe
 860 0249 6A00     		.ascii	"j\000"
 861 024b 01       		.byte	0x1
 862 024c 37       		.byte	0x37
 863 024d 89000000 		.4byte	0x89
 864 0251 02       		.uleb128 0x2
 865 0252 91       		.byte	0x91
 866 0253 70       		.sleb128 -16
 867 0254 0D       		.uleb128 0xd
 868 0255 76010000 		.4byte	.LASF38
 869 0259 01       		.byte	0x1
 870 025a 38       		.byte	0x38
 871 025b 89000000 		.4byte	0x89
 872 025f 02       		.uleb128 0x2
 873 0260 91       		.byte	0x91
 874 0261 58       		.sleb128 -40
 875 0262 0F       		.uleb128 0xf
ARM GAS  C:\Users\Perro\AppData\Local\Temp\ccIynadQ.s 			page 21


 876 0263 6C000000 		.4byte	.LBB2
 877 0267 E6000000 		.4byte	.LBE2-.LBB2
 878 026b 8E020000 		.4byte	0x28e
 879 026f 0D       		.uleb128 0xd
 880 0270 A2020000 		.4byte	.LASF39
 881 0274 01       		.byte	0x1
 882 0275 4B       		.byte	0x4b
 883 0276 A2000000 		.4byte	0xa2
 884 027a 03       		.uleb128 0x3
 885 027b 91       		.byte	0x91
 886 027c BB6C     		.sleb128 -2501
 887 027e 0D       		.uleb128 0xd
 888 027f 0F010000 		.4byte	.LASF40
 889 0283 01       		.byte	0x1
 890 0284 4B       		.byte	0x4b
 891 0285 A2000000 		.4byte	0xa2
 892 0289 03       		.uleb128 0x3
 893 028a 91       		.byte	0x91
 894 028b BA6C     		.sleb128 -2502
 895 028d 00       		.byte	0
 896 028e 0F       		.uleb128 0xf
 897 028f EA010000 		.4byte	.LBB3
 898 0293 8A000000 		.4byte	.LBE3-.LBB3
 899 0297 A8020000 		.4byte	0x2a8
 900 029b 0E       		.uleb128 0xe
 901 029c 6900     		.ascii	"i\000"
 902 029e 01       		.byte	0x1
 903 029f A4       		.byte	0xa4
 904 02a0 89000000 		.4byte	0x89
 905 02a4 02       		.uleb128 0x2
 906 02a5 91       		.byte	0x91
 907 02a6 6C       		.sleb128 -20
 908 02a7 00       		.byte	0
 909 02a8 10       		.uleb128 0x10
 910 02a9 B8020000 		.4byte	.LBB4
 911 02ad 52000000 		.4byte	.LBE4-.LBB4
 912 02b1 0E       		.uleb128 0xe
 913 02b2 6900     		.ascii	"i\000"
 914 02b4 01       		.byte	0x1
 915 02b5 C3       		.byte	0xc3
 916 02b6 89000000 		.4byte	0x89
 917 02ba 02       		.uleb128 0x2
 918 02bb 91       		.byte	0x91
 919 02bc 68       		.sleb128 -24
 920 02bd 00       		.byte	0
 921 02be 00       		.byte	0
 922 02bf 0A       		.uleb128 0xa
 923 02c0 D1000000 		.4byte	0xd1
 924 02c4 CF020000 		.4byte	0x2cf
 925 02c8 0B       		.uleb128 0xb
 926 02c9 DF000000 		.4byte	0xdf
 927 02cd 31       		.byte	0x31
 928 02ce 00       		.byte	0
 929 02cf 11       		.uleb128 0x11
 930 02d0 DA020000 		.4byte	0x2da
 931 02d4 12       		.uleb128 0x12
 932 02d5 E6000000 		.4byte	0xe6
ARM GAS  C:\Users\Perro\AppData\Local\Temp\ccIynadQ.s 			page 22


 933 02d9 00       		.byte	0
 934 02da 05       		.uleb128 0x5
 935 02db 04       		.byte	0x4
 936 02dc CF020000 		.4byte	0x2cf
 937 02e0 0A       		.uleb128 0xa
 938 02e1 B8000000 		.4byte	0xb8
 939 02e5 F0020000 		.4byte	0x2f0
 940 02e9 0B       		.uleb128 0xb
 941 02ea DF000000 		.4byte	0xdf
 942 02ee F9       		.byte	0xf9
 943 02ef 00       		.byte	0
 944 02f0 13       		.uleb128 0x13
 945 02f1 DD000000 		.4byte	.LASF48
 946 02f5 01       		.byte	0x1
 947 02f6 D4       		.byte	0xd4
 948 02f7 00000000 		.4byte	.LFB65
 949 02fb 2C000000 		.4byte	.LFE65-.LFB65
 950 02ff 01       		.uleb128 0x1
 951 0300 9C       		.byte	0x9c
 952 0301 14       		.uleb128 0x14
 953 0302 53010000 		.4byte	.LASF41
 954 0306 05       		.byte	0x5
 955 0307 1207     		.2byte	0x712
 956 0309 0D030000 		.4byte	0x30d
 957 030d 15       		.uleb128 0x15
 958 030e AD000000 		.4byte	0xad
 959 0312 16       		.uleb128 0x16
 960 0313 F0000000 		.4byte	.LASF26
 961 0317 04       		.byte	0x4
 962 0318 24       		.byte	0x24
 963 0319 49010000 		.4byte	0x149
 964 031d 05       		.uleb128 0x5
 965 031e 03       		.byte	0x3
 966 031f 00000000 		.4byte	data
 967 0323 16       		.uleb128 0x16
 968 0324 B6000000 		.4byte	.LASF42
 969 0328 01       		.byte	0x1
 970 0329 22       		.byte	0x22
 971 032a A2000000 		.4byte	0xa2
 972 032e 05       		.uleb128 0x5
 973 032f 03       		.byte	0x3
 974 0330 00000000 		.4byte	flag_temp
 975 0334 16       		.uleb128 0x16
 976 0335 A3010000 		.4byte	.LASF43
 977 0339 01       		.byte	0x1
 978 033a 23       		.byte	0x23
 979 033b A2000000 		.4byte	0xa2
 980 033f 05       		.uleb128 0x5
 981 0340 03       		.byte	0x3
 982 0341 00000000 		.4byte	flag_1s
 983 0345 00       		.byte	0
 984              		.section	.debug_abbrev,"",%progbits
 985              	.Ldebug_abbrev0:
 986 0000 01       		.uleb128 0x1
 987 0001 11       		.uleb128 0x11
 988 0002 01       		.byte	0x1
 989 0003 25       		.uleb128 0x25
ARM GAS  C:\Users\Perro\AppData\Local\Temp\ccIynadQ.s 			page 23


 990 0004 0E       		.uleb128 0xe
 991 0005 13       		.uleb128 0x13
 992 0006 0B       		.uleb128 0xb
 993 0007 03       		.uleb128 0x3
 994 0008 0E       		.uleb128 0xe
 995 0009 1B       		.uleb128 0x1b
 996 000a 0E       		.uleb128 0xe
 997 000b 55       		.uleb128 0x55
 998 000c 17       		.uleb128 0x17
 999 000d 11       		.uleb128 0x11
 1000 000e 01       		.uleb128 0x1
 1001 000f 10       		.uleb128 0x10
 1002 0010 17       		.uleb128 0x17
 1003 0011 00       		.byte	0
 1004 0012 00       		.byte	0
 1005 0013 02       		.uleb128 0x2
 1006 0014 16       		.uleb128 0x16
 1007 0015 00       		.byte	0
 1008 0016 03       		.uleb128 0x3
 1009 0017 0E       		.uleb128 0xe
 1010 0018 3A       		.uleb128 0x3a
 1011 0019 0B       		.uleb128 0xb
 1012 001a 3B       		.uleb128 0x3b
 1013 001b 0B       		.uleb128 0xb
 1014 001c 49       		.uleb128 0x49
 1015 001d 13       		.uleb128 0x13
 1016 001e 00       		.byte	0
 1017 001f 00       		.byte	0
 1018 0020 03       		.uleb128 0x3
 1019 0021 24       		.uleb128 0x24
 1020 0022 00       		.byte	0
 1021 0023 0B       		.uleb128 0xb
 1022 0024 0B       		.uleb128 0xb
 1023 0025 3E       		.uleb128 0x3e
 1024 0026 0B       		.uleb128 0xb
 1025 0027 03       		.uleb128 0x3
 1026 0028 0E       		.uleb128 0xe
 1027 0029 00       		.byte	0
 1028 002a 00       		.byte	0
 1029 002b 04       		.uleb128 0x4
 1030 002c 24       		.uleb128 0x24
 1031 002d 00       		.byte	0
 1032 002e 0B       		.uleb128 0xb
 1033 002f 0B       		.uleb128 0xb
 1034 0030 3E       		.uleb128 0x3e
 1035 0031 0B       		.uleb128 0xb
 1036 0032 03       		.uleb128 0x3
 1037 0033 08       		.uleb128 0x8
 1038 0034 00       		.byte	0
 1039 0035 00       		.byte	0
 1040 0036 05       		.uleb128 0x5
 1041 0037 0F       		.uleb128 0xf
 1042 0038 00       		.byte	0
 1043 0039 0B       		.uleb128 0xb
 1044 003a 0B       		.uleb128 0xb
 1045 003b 49       		.uleb128 0x49
 1046 003c 13       		.uleb128 0x13
ARM GAS  C:\Users\Perro\AppData\Local\Temp\ccIynadQ.s 			page 24


 1047 003d 00       		.byte	0
 1048 003e 00       		.byte	0
 1049 003f 06       		.uleb128 0x6
 1050 0040 26       		.uleb128 0x26
 1051 0041 00       		.byte	0
 1052 0042 49       		.uleb128 0x49
 1053 0043 13       		.uleb128 0x13
 1054 0044 00       		.byte	0
 1055 0045 00       		.byte	0
 1056 0046 07       		.uleb128 0x7
 1057 0047 13       		.uleb128 0x13
 1058 0048 01       		.byte	0x1
 1059 0049 0B       		.uleb128 0xb
 1060 004a 05       		.uleb128 0x5
 1061 004b 3A       		.uleb128 0x3a
 1062 004c 0B       		.uleb128 0xb
 1063 004d 3B       		.uleb128 0x3b
 1064 004e 0B       		.uleb128 0xb
 1065 004f 01       		.uleb128 0x1
 1066 0050 13       		.uleb128 0x13
 1067 0051 00       		.byte	0
 1068 0052 00       		.byte	0
 1069 0053 08       		.uleb128 0x8
 1070 0054 0D       		.uleb128 0xd
 1071 0055 00       		.byte	0
 1072 0056 03       		.uleb128 0x3
 1073 0057 08       		.uleb128 0x8
 1074 0058 3A       		.uleb128 0x3a
 1075 0059 0B       		.uleb128 0xb
 1076 005a 3B       		.uleb128 0x3b
 1077 005b 0B       		.uleb128 0xb
 1078 005c 49       		.uleb128 0x49
 1079 005d 13       		.uleb128 0x13
 1080 005e 38       		.uleb128 0x38
 1081 005f 0B       		.uleb128 0xb
 1082 0060 00       		.byte	0
 1083 0061 00       		.byte	0
 1084 0062 09       		.uleb128 0x9
 1085 0063 0D       		.uleb128 0xd
 1086 0064 00       		.byte	0
 1087 0065 03       		.uleb128 0x3
 1088 0066 0E       		.uleb128 0xe
 1089 0067 3A       		.uleb128 0x3a
 1090 0068 0B       		.uleb128 0xb
 1091 0069 3B       		.uleb128 0x3b
 1092 006a 0B       		.uleb128 0xb
 1093 006b 49       		.uleb128 0x49
 1094 006c 13       		.uleb128 0x13
 1095 006d 38       		.uleb128 0x38
 1096 006e 05       		.uleb128 0x5
 1097 006f 00       		.byte	0
 1098 0070 00       		.byte	0
 1099 0071 0A       		.uleb128 0xa
 1100 0072 01       		.uleb128 0x1
 1101 0073 01       		.byte	0x1
 1102 0074 49       		.uleb128 0x49
 1103 0075 13       		.uleb128 0x13
ARM GAS  C:\Users\Perro\AppData\Local\Temp\ccIynadQ.s 			page 25


 1104 0076 01       		.uleb128 0x1
 1105 0077 13       		.uleb128 0x13
 1106 0078 00       		.byte	0
 1107 0079 00       		.byte	0
 1108 007a 0B       		.uleb128 0xb
 1109 007b 21       		.uleb128 0x21
 1110 007c 00       		.byte	0
 1111 007d 49       		.uleb128 0x49
 1112 007e 13       		.uleb128 0x13
 1113 007f 2F       		.uleb128 0x2f
 1114 0080 0B       		.uleb128 0xb
 1115 0081 00       		.byte	0
 1116 0082 00       		.byte	0
 1117 0083 0C       		.uleb128 0xc
 1118 0084 2E       		.uleb128 0x2e
 1119 0085 01       		.byte	0x1
 1120 0086 3F       		.uleb128 0x3f
 1121 0087 19       		.uleb128 0x19
 1122 0088 03       		.uleb128 0x3
 1123 0089 0E       		.uleb128 0xe
 1124 008a 3A       		.uleb128 0x3a
 1125 008b 0B       		.uleb128 0xb
 1126 008c 3B       		.uleb128 0x3b
 1127 008d 0B       		.uleb128 0xb
 1128 008e 27       		.uleb128 0x27
 1129 008f 19       		.uleb128 0x19
 1130 0090 49       		.uleb128 0x49
 1131 0091 13       		.uleb128 0x13
 1132 0092 11       		.uleb128 0x11
 1133 0093 01       		.uleb128 0x1
 1134 0094 12       		.uleb128 0x12
 1135 0095 06       		.uleb128 0x6
 1136 0096 40       		.uleb128 0x40
 1137 0097 18       		.uleb128 0x18
 1138 0098 9642     		.uleb128 0x2116
 1139 009a 19       		.uleb128 0x19
 1140 009b 01       		.uleb128 0x1
 1141 009c 13       		.uleb128 0x13
 1142 009d 00       		.byte	0
 1143 009e 00       		.byte	0
 1144 009f 0D       		.uleb128 0xd
 1145 00a0 34       		.uleb128 0x34
 1146 00a1 00       		.byte	0
 1147 00a2 03       		.uleb128 0x3
 1148 00a3 0E       		.uleb128 0xe
 1149 00a4 3A       		.uleb128 0x3a
 1150 00a5 0B       		.uleb128 0xb
 1151 00a6 3B       		.uleb128 0x3b
 1152 00a7 0B       		.uleb128 0xb
 1153 00a8 49       		.uleb128 0x49
 1154 00a9 13       		.uleb128 0x13
 1155 00aa 02       		.uleb128 0x2
 1156 00ab 18       		.uleb128 0x18
 1157 00ac 00       		.byte	0
 1158 00ad 00       		.byte	0
 1159 00ae 0E       		.uleb128 0xe
 1160 00af 34       		.uleb128 0x34
ARM GAS  C:\Users\Perro\AppData\Local\Temp\ccIynadQ.s 			page 26


 1161 00b0 00       		.byte	0
 1162 00b1 03       		.uleb128 0x3
 1163 00b2 08       		.uleb128 0x8
 1164 00b3 3A       		.uleb128 0x3a
 1165 00b4 0B       		.uleb128 0xb
 1166 00b5 3B       		.uleb128 0x3b
 1167 00b6 0B       		.uleb128 0xb
 1168 00b7 49       		.uleb128 0x49
 1169 00b8 13       		.uleb128 0x13
 1170 00b9 02       		.uleb128 0x2
 1171 00ba 18       		.uleb128 0x18
 1172 00bb 00       		.byte	0
 1173 00bc 00       		.byte	0
 1174 00bd 0F       		.uleb128 0xf
 1175 00be 0B       		.uleb128 0xb
 1176 00bf 01       		.byte	0x1
 1177 00c0 11       		.uleb128 0x11
 1178 00c1 01       		.uleb128 0x1
 1179 00c2 12       		.uleb128 0x12
 1180 00c3 06       		.uleb128 0x6
 1181 00c4 01       		.uleb128 0x1
 1182 00c5 13       		.uleb128 0x13
 1183 00c6 00       		.byte	0
 1184 00c7 00       		.byte	0
 1185 00c8 10       		.uleb128 0x10
 1186 00c9 0B       		.uleb128 0xb
 1187 00ca 01       		.byte	0x1
 1188 00cb 11       		.uleb128 0x11
 1189 00cc 01       		.uleb128 0x1
 1190 00cd 12       		.uleb128 0x12
 1191 00ce 06       		.uleb128 0x6
 1192 00cf 00       		.byte	0
 1193 00d0 00       		.byte	0
 1194 00d1 11       		.uleb128 0x11
 1195 00d2 15       		.uleb128 0x15
 1196 00d3 01       		.byte	0x1
 1197 00d4 27       		.uleb128 0x27
 1198 00d5 19       		.uleb128 0x19
 1199 00d6 01       		.uleb128 0x1
 1200 00d7 13       		.uleb128 0x13
 1201 00d8 00       		.byte	0
 1202 00d9 00       		.byte	0
 1203 00da 12       		.uleb128 0x12
 1204 00db 05       		.uleb128 0x5
 1205 00dc 00       		.byte	0
 1206 00dd 49       		.uleb128 0x49
 1207 00de 13       		.uleb128 0x13
 1208 00df 00       		.byte	0
 1209 00e0 00       		.byte	0
 1210 00e1 13       		.uleb128 0x13
 1211 00e2 2E       		.uleb128 0x2e
 1212 00e3 00       		.byte	0
 1213 00e4 3F       		.uleb128 0x3f
 1214 00e5 19       		.uleb128 0x19
 1215 00e6 03       		.uleb128 0x3
 1216 00e7 0E       		.uleb128 0xe
 1217 00e8 3A       		.uleb128 0x3a
ARM GAS  C:\Users\Perro\AppData\Local\Temp\ccIynadQ.s 			page 27


 1218 00e9 0B       		.uleb128 0xb
 1219 00ea 3B       		.uleb128 0x3b
 1220 00eb 0B       		.uleb128 0xb
 1221 00ec 27       		.uleb128 0x27
 1222 00ed 19       		.uleb128 0x19
 1223 00ee 11       		.uleb128 0x11
 1224 00ef 01       		.uleb128 0x1
 1225 00f0 12       		.uleb128 0x12
 1226 00f1 06       		.uleb128 0x6
 1227 00f2 40       		.uleb128 0x40
 1228 00f3 18       		.uleb128 0x18
 1229 00f4 9642     		.uleb128 0x2116
 1230 00f6 19       		.uleb128 0x19
 1231 00f7 00       		.byte	0
 1232 00f8 00       		.byte	0
 1233 00f9 14       		.uleb128 0x14
 1234 00fa 34       		.uleb128 0x34
 1235 00fb 00       		.byte	0
 1236 00fc 03       		.uleb128 0x3
 1237 00fd 0E       		.uleb128 0xe
 1238 00fe 3A       		.uleb128 0x3a
 1239 00ff 0B       		.uleb128 0xb
 1240 0100 3B       		.uleb128 0x3b
 1241 0101 05       		.uleb128 0x5
 1242 0102 49       		.uleb128 0x49
 1243 0103 13       		.uleb128 0x13
 1244 0104 3F       		.uleb128 0x3f
 1245 0105 19       		.uleb128 0x19
 1246 0106 3C       		.uleb128 0x3c
 1247 0107 19       		.uleb128 0x19
 1248 0108 00       		.byte	0
 1249 0109 00       		.byte	0
 1250 010a 15       		.uleb128 0x15
 1251 010b 35       		.uleb128 0x35
 1252 010c 00       		.byte	0
 1253 010d 49       		.uleb128 0x49
 1254 010e 13       		.uleb128 0x13
 1255 010f 00       		.byte	0
 1256 0110 00       		.byte	0
 1257 0111 16       		.uleb128 0x16
 1258 0112 34       		.uleb128 0x34
 1259 0113 00       		.byte	0
 1260 0114 03       		.uleb128 0x3
 1261 0115 0E       		.uleb128 0xe
 1262 0116 3A       		.uleb128 0x3a
 1263 0117 0B       		.uleb128 0xb
 1264 0118 3B       		.uleb128 0x3b
 1265 0119 0B       		.uleb128 0xb
 1266 011a 49       		.uleb128 0x49
 1267 011b 13       		.uleb128 0x13
 1268 011c 3F       		.uleb128 0x3f
 1269 011d 19       		.uleb128 0x19
 1270 011e 02       		.uleb128 0x2
 1271 011f 18       		.uleb128 0x18
 1272 0120 00       		.byte	0
 1273 0121 00       		.byte	0
 1274 0122 00       		.byte	0
ARM GAS  C:\Users\Perro\AppData\Local\Temp\ccIynadQ.s 			page 28


 1275              		.section	.debug_aranges,"",%progbits
 1276 0000 24000000 		.4byte	0x24
 1277 0004 0200     		.2byte	0x2
 1278 0006 00000000 		.4byte	.Ldebug_info0
 1279 000a 04       		.byte	0x4
 1280 000b 00       		.byte	0
 1281 000c 0000     		.2byte	0
 1282 000e 0000     		.2byte	0
 1283 0010 00000000 		.4byte	.LFB64
 1284 0014 C8030000 		.4byte	.LFE64-.LFB64
 1285 0018 00000000 		.4byte	.LFB65
 1286 001c 2C000000 		.4byte	.LFE65-.LFB65
 1287 0020 00000000 		.4byte	0
 1288 0024 00000000 		.4byte	0
 1289              		.section	.debug_ranges,"",%progbits
 1290              	.Ldebug_ranges0:
 1291 0000 00000000 		.4byte	.LFB64
 1292 0004 C8030000 		.4byte	.LFE64
 1293 0008 00000000 		.4byte	.LFB65
 1294 000c 2C000000 		.4byte	.LFE65
 1295 0010 00000000 		.4byte	0
 1296 0014 00000000 		.4byte	0
 1297              		.section	.debug_line,"",%progbits
 1298              	.Ldebug_line0:
 1299 0000 FD010000 		.section	.debug_str,"MS",%progbits,1
 1299      02004D01 
 1299      00000201 
 1299      FB0E0D00 
 1299      01010101 
 1300              	.LASF31:
 1301 0000 76616C69 		.ascii	"validSPO2\000"
 1301      6453504F 
 1301      3200
 1302              	.LASF27:
 1303 000a 7072696E 		.ascii	"print_ptr\000"
 1303      745F7074 
 1303      7200
 1304              	.LASF1:
 1305 0014 5F5F7569 		.ascii	"__uint8_t\000"
 1305      6E74385F 
 1305      7400
 1306              	.LASF44:
 1307 001e 474E5520 		.ascii	"GNU C11 5.4.1 20160609 (release) [ARM/embedded-5-br"
 1307      43313120 
 1307      352E342E 
 1307      31203230 
 1307      31363036 
 1308 0051 616E6368 		.ascii	"anch revision 237715] -mcpu=cortex-m3 -mthumb -g -O"
 1308      20726576 
 1308      6973696F 
 1308      6E203233 
 1308      37373135 
 1309 0084 30202D66 		.ascii	"0 -ffunction-sections -ffat-lto-objects\000"
 1309      66756E63 
 1309      74696F6E 
 1309      2D736563 
 1309      74696F6E 
ARM GAS  C:\Users\Perro\AppData\Local\Temp\ccIynadQ.s 			page 29


 1310              	.LASF6:
 1311 00ac 5F5F696E 		.ascii	"__int32_t\000"
 1311      7433325F 
 1311      7400
 1312              	.LASF42:
 1313 00b6 666C6167 		.ascii	"flag_temp\000"
 1313      5F74656D 
 1313      7000
 1314              	.LASF37:
 1315 00c0 6E756D5F 		.ascii	"num_samples\000"
 1315      73616D70 
 1315      6C657300 
 1316              	.LASF32:
 1317 00cc 68656172 		.ascii	"heartRate\000"
 1317      74526174 
 1317      6500
 1318              	.LASF13:
 1319 00d6 696E7438 		.ascii	"int8_t\000"
 1319      5F7400
 1320              	.LASF48:
 1321 00dd 4D415833 		.ascii	"MAX30101_ISR\000"
 1321      30313031 
 1321      5F495352 
 1321      00
 1322              	.LASF17:
 1323 00ea 666C6F61 		.ascii	"float\000"
 1323      7400
 1324              	.LASF26:
 1325 00f0 64617461 		.ascii	"data\000"
 1325      00
 1326              	.LASF2:
 1327 00f5 7369676E 		.ascii	"signed char\000"
 1327      65642063 
 1327      68617200 
 1328              	.LASF3:
 1329 0101 756E7369 		.ascii	"unsigned char\000"
 1329      676E6564 
 1329      20636861 
 1329      7200
 1330              	.LASF40:
 1331 010f 70617274 		.ascii	"part_id\000"
 1331      5F696400 
 1332              	.LASF15:
 1333 0117 696E7433 		.ascii	"int32_t\000"
 1333      325F7400 
 1334              	.LASF34:
 1335 011f 69724275 		.ascii	"irBuffer\000"
 1335      66666572 
 1335      00
 1336              	.LASF9:
 1337 0128 6C6F6E67 		.ascii	"long unsigned int\000"
 1337      20756E73 
 1337      69676E65 
 1337      6420696E 
 1337      7400
 1338              	.LASF5:
 1339 013a 73686F72 		.ascii	"short unsigned int\000"
ARM GAS  C:\Users\Perro\AppData\Local\Temp\ccIynadQ.s 			page 30


 1339      7420756E 
 1339      7369676E 
 1339      65642069 
 1339      6E7400
 1340              	.LASF22:
 1341 014d 67726565 		.ascii	"green\000"
 1341      6E00
 1342              	.LASF41:
 1343 0153 49544D5F 		.ascii	"ITM_RxBuffer\000"
 1343      52784275 
 1343      66666572 
 1343      00
 1344              	.LASF33:
 1345 0160 76616C69 		.ascii	"validHeartRate\000"
 1345      64486561 
 1345      72745261 
 1345      746500
 1346              	.LASF18:
 1347 016f 646F7562 		.ascii	"double\000"
 1347      6C6500
 1348              	.LASF38:
 1349 0176 4649464F 		.ascii	"FIFO_max_size\000"
 1349      5F6D6178 
 1349      5F73697A 
 1349      6500
 1350              	.LASF8:
 1351 0184 5F5F7569 		.ascii	"__uint32_t\000"
 1351      6E743332 
 1351      5F7400
 1352              	.LASF23:
 1353 018f 68656164 		.ascii	"head\000"
 1353      00
 1354              	.LASF30:
 1355 0194 73706F32 		.ascii	"spo2\000"
 1355      00
 1356              	.LASF29:
 1357 0199 666C6167 		.ascii	"flag\000"
 1357      00
 1358              	.LASF47:
 1359 019e 6D61696E 		.ascii	"main\000"
 1359      00
 1360              	.LASF43:
 1361 01a3 666C6167 		.ascii	"flag_1s\000"
 1361      5F317300 
 1362              	.LASF12:
 1363 01ab 756E7369 		.ascii	"unsigned int\000"
 1363      676E6564 
 1363      20696E74 
 1363      00
 1364              	.LASF11:
 1365 01b8 6C6F6E67 		.ascii	"long long unsigned int\000"
 1365      206C6F6E 
 1365      6720756E 
 1365      7369676E 
 1365      65642069 
 1366              	.LASF14:
 1367 01cf 75696E74 		.ascii	"uint8_t\000"
ARM GAS  C:\Users\Perro\AppData\Local\Temp\ccIynadQ.s 			page 31


 1367      385F7400 
 1368              	.LASF36:
 1369 01d7 62756666 		.ascii	"bufferLength\000"
 1369      65724C65 
 1369      6E677468 
 1369      00
 1370              	.LASF20:
 1371 01e4 6C6F6E67 		.ascii	"long double\000"
 1371      20646F75 
 1371      626C6500 
 1372              	.LASF21:
 1373 01f0 73697A65 		.ascii	"sizetype\000"
 1373      74797065 
 1373      00
 1374              	.LASF10:
 1375 01f9 6C6F6E67 		.ascii	"long long int\000"
 1375      206C6F6E 
 1375      6720696E 
 1375      7400
 1376              	.LASF45:
 1377 0207 6D61696E 		.ascii	"main.c\000"
 1377      2E6300
 1378              	.LASF19:
 1379 020e 63686172 		.ascii	"char\000"
 1379      00
 1380              	.LASF25:
 1381 0213 4D415833 		.ascii	"MAX30101_Data\000"
 1381      30313031 
 1381      5F446174 
 1381      6100
 1382              	.LASF4:
 1383 0221 73686F72 		.ascii	"short int\000"
 1383      7420696E 
 1383      7400
 1384              	.LASF28:
 1385 022b 61637469 		.ascii	"active_leds\000"
 1385      76655F6C 
 1385      65647300 
 1386              	.LASF24:
 1387 0237 7461696C 		.ascii	"tail\000"
 1387      00
 1388              	.LASF46:
 1389 023c 433A5C55 		.ascii	"C:\\Users\\Perro\\Desktop\\AY2122_II_Project-1\\Pro"
 1389      73657273 
 1389      5C506572 
 1389      726F5C44 
 1389      65736B74 
 1390 026a 6A656374 		.ascii	"ject_LTEBS\\Saturimetro.cydsn\000"
 1390      5F4C5445 
 1390      42535C53 
 1390      61747572 
 1390      696D6574 
 1391              	.LASF16:
 1392 0287 75696E74 		.ascii	"uint32_t\000"
 1392      33325F74 
 1392      00
 1393              	.LASF7:
ARM GAS  C:\Users\Perro\AppData\Local\Temp\ccIynadQ.s 			page 32


 1394 0290 6C6F6E67 		.ascii	"long int\000"
 1394      20696E74 
 1394      00
 1395              	.LASF0:
 1396 0299 5F5F696E 		.ascii	"__int8_t\000"
 1396      74385F74 
 1396      00
 1397              	.LASF39:
 1398 02a2 7265765F 		.ascii	"rev_id\000"
 1398      696400
 1399              	.LASF35:
 1400 02a9 72656442 		.ascii	"redBuffer\000"
 1400      75666665 
 1400      7200
 1401              		.ident	"GCC: (GNU Tools for ARM Embedded Processors) 5.4.1 20160609 (release) [ARM/embedded-5-bran
