ARM GAS  C:\Users\Perro\AppData\Local\Temp\ccUR568Z.s 			page 1


   1              		.syntax unified
   2              		.cpu cortex-m3
   3              		.fpu softvfp
   4              		.eabi_attribute 20, 1
   5              		.eabi_attribute 21, 1
   6              		.eabi_attribute 23, 3
   7              		.eabi_attribute 24, 1
   8              		.eabi_attribute 25, 1
   9              		.eabi_attribute 26, 1
  10              		.eabi_attribute 30, 6
  11              		.eabi_attribute 34, 1
  12              		.eabi_attribute 18, 4
  13              		.thumb
  14              		.syntax unified
  15              		.file	"main.c"
  16              		.text
  17              	.Ltext0:
  18              		.cfi_sections	.debug_frame
  19              		.comm	data,388,4
  20              		.comm	an_x,800,4
  21              		.comm	an_y,800,4
  22              		.comm	ADC_range,2,2
  23              		.comm	Samples,2,2
  24              		.comm	Pulse_width,2,2
  25              		.comm	Pulse_amp,2,2
  26              		.comm	Average,2,2
  27              		.comm	flag_ADC,1,1
  28              		.comm	flag_PW,1,1
  29              		.comm	flag_PA,1,1
  30              		.comm	flag_SR,1,1
  31              		.global	flag_temp
  32              		.bss
  33              		.type	flag_temp, %object
  34              		.size	flag_temp, 1
  35              	flag_temp:
  36 0000 00       		.space	1
  37              		.global	flag_1s
  38              		.type	flag_1s, %object
  39              		.size	flag_1s, 1
  40              	flag_1s:
  41 0001 00       		.space	1
  42              		.global	gotInterrupt
  43 0002 0000     		.align	2
  44              		.type	gotInterrupt, %object
  45              		.size	gotInterrupt, 4
  46              	gotInterrupt:
  47 0004 00000000 		.space	4
  48              		.global	j
  49              		.type	j, %object
  50              		.size	j, 1
  51              	j:
  52 0008 00       		.space	1
  53              		.global	flag_start
  54              		.data
  55              		.type	flag_start, %object
  56              		.size	flag_start, 1
  57              	flag_start:
ARM GAS  C:\Users\Perro\AppData\Local\Temp\ccUR568Z.s 			page 2


  58 0000 01       		.byte	1
  59              		.section	.rodata
  60              		.align	2
  61              	.LC0:
  62 0000 312C00   		.ascii	"1,\000"
  63 0003 00       		.align	2
  64              	.LC1:
  65 0004 256C642C 		.ascii	"%ld,\000"
  65      00
  66 0009 000000   		.align	2
  67              	.LC2:
  68 000c 322C00   		.ascii	"2,\000"
  69 000f 00       		.align	2
  70              	.LC3:
  71 0010 302C00   		.ascii	"0,\000"
  72 0013 00       		.align	2
  73              	.LC4:
  74 0014 300A00   		.ascii	"0\012\000"
  75 0017 00       		.align	2
  76              	.LC5:
  77 0018 332C00   		.ascii	"3,\000"
  78 001b 00       		.align	2
  79              	.LC6:
  80 001c 342C00   		.ascii	"4,\000"
  81 001f 00       		.align	2
  82              	.LC7:
  83 0020 256C640A 		.ascii	"%ld\012\000"
  83      00
  84              		.section	.text.main,"ax",%progbits
  85              		.align	2
  86              		.global	main
  87              		.thumb
  88              		.thumb_func
  89              		.type	main, %function
  90              	main:
  91              	.LFB64:
  92              		.file 1 "main.c"
   1:main.c        **** /**
   2:main.c        **** *   Main file for testing MAX30101 Library.
   3:main.c        ****     Last update: il codice funziona con la spo2 anche per FIFO bits diversi da 25, per come ho scri
   4:main.c        ****     non è da considerare perchè vengono superati i 200 samples però dalla successiva sono giuste
   5:main.c        ****     Questo branch serve a provare una nuova funzione, che prende 5 secondi di misura e introduce un
   6:main.c        ****     l'heart rate ma sembra essere troppo variabile così come nell'altro branch. Non so se è dovut
   7:main.c        ****     perchè la variabilità è davvero alta. Proverò con l'elastico per capire se migliora un mini
   8:main.c        ****     Emanuele 16.05 18:07
   9:main.c        **** */
  10:main.c        **** 
  11:main.c        **** #include "project.h"
  12:main.c        **** #include "MAX30101.h"
  13:main.c        **** #include "stdio.h"
  14:main.c        **** #include "I2C_Interface.h"
  15:main.c        **** #include "SpO2.h"
  16:main.c        **** #include "HeartRate.h"
  17:main.c        **** #include "Timer.h"
  18:main.c        **** #include "isr.h"
  19:main.c        **** #include "USER.h"
  20:main.c        **** #include "parameters.h"
ARM GAS  C:\Users\Perro\AppData\Local\Temp\ccUR568Z.s 			page 3


  21:main.c        **** #include "setting_parameters.h"
  22:main.c        **** 
  23:main.c        **** #define UART_DEBUG
  24:main.c        **** #define FIFO_max_size 25
  25:main.c        **** 
  26:main.c        **** #ifdef UART_DEBUG
  27:main.c        ****     
  28:main.c        ****     #define DEBUG_TEST 1
  29:main.c        ****     
  30:main.c        **** #else
  31:main.c        ****     
  32:main.c        ****     #define DEBUG_TEST 0
  33:main.c        ****     
  34:main.c        **** #endif
  35:main.c        **** 
  36:main.c        **** #define debug_print(msg) do { if (DEBUG_TEST) UART_Debug_PutString(msg);} while (0)
  37:main.c        **** 
  38:main.c        **** CY_ISR_PROTO(MAX30101_ISR);
  39:main.c        **** //CY_ISR_PROTO(WAKEUP_TIMER);
  40:main.c        ****     
  41:main.c        **** extern volatile long count;
  42:main.c        **** extern volatile uint8 SM;
  43:main.c        **** extern volatile uint8 flag_SM;  
  44:main.c        **** uint8_t flag_temp = 0;
  45:main.c        **** uint8_t flag_1s = 0;
  46:main.c        **** volatile int gotInterrupt = 0;
  47:main.c        **** uint8_t j=0;
  48:main.c        **** uint8 flag_start = 1;
  49:main.c        **** 
  50:main.c        **** int main(void)
  51:main.c        **** {
  93              		.loc 1 51 0
  94              		.cfi_startproc
  95              		@ args = 0, pretend = 0, frame = 2104
  96              		@ frame_needed = 1, uses_anonymous_args = 0
  97 0000 90B5     		push	{r4, r7, lr}
  98              		.cfi_def_cfa_offset 12
  99              		.cfi_offset 4, -12
 100              		.cfi_offset 7, -8
 101              		.cfi_offset 14, -4
 102 0002 ADF64C0D 		subw	sp, sp, #2124
 103              		.cfi_def_cfa_offset 2136
 104 0006 04AF     		add	r7, sp, #16
 105              		.cfi_def_cfa 7, 2120
  52:main.c        ****     // Variables
  53:main.c        ****     MAX30101_Data data;
  54:main.c        ****     data.head = 0;
 106              		.loc 1 54 0
 107 0008 07F5D263 		add	r3, r7, #1680
 108 000c 0022     		movs	r2, #0
 109 000e 83F88021 		strb	r2, [r3, #384]
  55:main.c        ****     data.tail = 0;
 110              		.loc 1 55 0
 111 0012 07F5D263 		add	r3, r7, #1680
 112 0016 0022     		movs	r2, #0
 113 0018 83F88121 		strb	r2, [r3, #385]
  56:main.c        ****     char msg[50];
ARM GAS  C:\Users\Perro\AppData\Local\Temp\ccUR568Z.s 			page 4


  57:main.c        ****     void (*print_ptr)(const char*) = &(UART_Debug_PutString);
 114              		.loc 1 57 0
 115 001c A24B     		ldr	r3, .L21
 116 001e C7F81C38 		str	r3, [r7, #2076]
  58:main.c        ****     uint8_t active_leds = 2;
 117              		.loc 1 58 0
 118 0022 0223     		movs	r3, #2
 119 0024 87F81B38 		strb	r3, [r7, #2075]
  59:main.c        ****     uint8_t rp, wp, flag = 0;
 120              		.loc 1 59 0
 121 0028 07F25963 		addw	r3, r7, #1625
 122 002c 0022     		movs	r2, #0
 123 002e 1A70     		strb	r2, [r3]
  60:main.c        ****     int32_t spo2; //SPO2 value
  61:main.c        ****     int8_t validSPO2; //indicator to show if the SPO2 calculation is valid
  62:main.c        ****     int32_t heartRate; //heart rate value
  63:main.c        ****     int8_t validHeartRate; //indicator to show if the heart rate calculation is valid
  64:main.c        ****     uint32_t irBuffer[200]; //infrared LED sensor data
  65:main.c        ****     uint32_t redBuffer[200];  //red LED sensor data
  66:main.c        ****     int32_t bufferLength = 200;
 124              		.loc 1 66 0
 125 0030 C823     		movs	r3, #200
 126 0032 C7F81438 		str	r3, [r7, #2068]
  67:main.c        ****     int32_t somma=0;
 127              		.loc 1 67 0
 128 0036 0023     		movs	r3, #0
 129 0038 C7F83438 		str	r3, [r7, #2100]
  68:main.c        ****     int32_t avg_hr=0;
 130              		.loc 1 68 0
 131 003c 0023     		movs	r3, #0
 132 003e C7F83038 		str	r3, [r7, #2096]
  69:main.c        ****     int num_samples;
  70:main.c        ****     
  71:main.c        ****     
  72:main.c        ****  
  73:main.c        ****     int i=0;
 133              		.loc 1 73 0
 134 0042 0023     		movs	r3, #0
 135 0044 C7F82838 		str	r3, [r7, #2088]
  74:main.c        ****     int f=1;
 136              		.loc 1 74 0
 137 0048 0123     		movs	r3, #1
 138 004a C7F82438 		str	r3, [r7, #2084]
  75:main.c        **** 
  76:main.c        ****     
  77:main.c        ****     //SET BY THE USER
  78:main.c        **** 
  79:main.c        ****     
  80:main.c        ****     // Initialization
  81:main.c        ****     MAX30101_Start();
 139              		.loc 1 81 0
 140 004e FFF7FEFF 		bl	MAX30101_Start
  82:main.c        ****     UART_Debug_Start();
 141              		.loc 1 82 0
 142 0052 FFF7FEFF 		bl	UART_Debug_Start
  83:main.c        ****     CyDelay(100);    
 143              		.loc 1 83 0
ARM GAS  C:\Users\Perro\AppData\Local\Temp\ccUR568Z.s 			page 5


 144 0056 6420     		movs	r0, #100
 145 0058 FFF7FEFF 		bl	CyDelay
  84:main.c        ****     if (MAX30101_IsDevicePresent() == MAX30101_OK)
 146              		.loc 1 84 0
 147 005c FFF7FEFF 		bl	MAX30101_IsDevicePresent
 148 0060 0346     		mov	r3, r0
 149 0062 002B     		cmp	r3, #0
 150 0064 34D1     		bne	.L2
 151              	.LBB2:
  85:main.c        ****     {
  86:main.c        ****         // Check if device is present
  87:main.c        ****         Connection_LED_Write(1);
 152              		.loc 1 87 0
 153 0066 0120     		movs	r0, #1
 154 0068 FFF7FEFF 		bl	Connection_LED_Write
  88:main.c        ****         
  89:main.c        ****         // Read revision and part id
  90:main.c        ****         uint8_t rev_id, part_id = 0;
 155              		.loc 1 90 0
 156 006c BB1D     		adds	r3, r7, #6
 157 006e 0022     		movs	r2, #0
 158 0070 1A70     		strb	r2, [r3]
  91:main.c        ****         MAX30101_ReadPartID(&part_id);
 159              		.loc 1 91 0
 160 0072 BB1D     		adds	r3, r7, #6
 161 0074 1846     		mov	r0, r3
 162 0076 FFF7FEFF 		bl	MAX30101_ReadPartID
  92:main.c        ****         MAX30101_ReadRevisionID(&rev_id);
 163              		.loc 1 92 0
 164 007a FB1D     		adds	r3, r7, #7
 165 007c 1846     		mov	r0, r3
 166 007e FFF7FEFF 		bl	MAX30101_ReadRevisionID
  93:main.c        ****         
  94:main.c        ****         //debug_print("Registers before configuration\r\n");
  95:main.c        ****         //MAX30101_LogRegisters(print_ptr);
  96:main.c        ****         
  97:main.c        ****         // Soft reset sensor
  98:main.c        ****         MAX30101_Reset();
 167              		.loc 1 98 0
 168 0082 FFF7FEFF 		bl	MAX30101_Reset
  99:main.c        ****         CyDelay(100);
 169              		.loc 1 99 0
 170 0086 6420     		movs	r0, #100
 171 0088 FFF7FEFF 		bl	CyDelay
 100:main.c        ****        
 101:main.c        ****         // Wake up sensor
 102:main.c        ****         MAX30101_WakeUp();        
 172              		.loc 1 102 0
 173 008c FFF7FEFF 		bl	MAX30101_WakeUp
 103:main.c        ****         MAX30101_EnableFIFOAFullInt();
 174              		.loc 1 103 0
 175 0090 FFF7FEFF 		bl	MAX30101_EnableFIFOAFullInt
 104:main.c        ****      
 105:main.c        ****         // set 25 samples to trigger interrupt
 106:main.c        ****         MAX30101_SetFIFOAlmostFull(FIFO_max_size);
 176              		.loc 1 106 0
 177 0094 1920     		movs	r0, #25
ARM GAS  C:\Users\Perro\AppData\Local\Temp\ccUR568Z.s 			page 6


 178 0096 FFF7FEFF 		bl	MAX30101_SetFIFOAlmostFull
 107:main.c        **** 
 108:main.c        ****         // enable fifo rollover
 109:main.c        ****         MAX30101_EnableFIFORollover();
 179              		.loc 1 109 0
 180 009a FFF7FEFF 		bl	MAX30101_EnableFIFORollover
 110:main.c        ****         
 111:main.c        ****         // samples averaged       
 112:main.c        ****         MAX30101_SetSampleAverage(MAX30101_SAMPLE_AVG_2);
 181              		.loc 1 112 0
 182 009e 2020     		movs	r0, #32
 183 00a0 FFF7FEFF 		bl	MAX30101_SetSampleAverage
 113:main.c        ****         // Set LED Power level
 114:main.c        ****         MAX30101_SetLEDPulseAmplitude(MAX30101_LED_1, 0x1F);        
 184              		.loc 1 114 0
 185 00a4 1F21     		movs	r1, #31
 186 00a6 0020     		movs	r0, #0
 187 00a8 FFF7FEFF 		bl	MAX30101_SetLEDPulseAmplitude
 115:main.c        ****         MAX30101_SetLEDPulseAmplitude(MAX30101_LED_2, 0x1F);
 188              		.loc 1 115 0
 189 00ac 1F21     		movs	r1, #31
 190 00ae 0120     		movs	r0, #1
 191 00b0 FFF7FEFF 		bl	MAX30101_SetLEDPulseAmplitude
 116:main.c        ****                
 117:main.c        ****         // Set ADC Range
 118:main.c        ****         MAX30101_SetSpO2ADCRange(MAX30101_ADC_RANGE_8192);
 192              		.loc 1 118 0
 193 00b4 4020     		movs	r0, #64
 194 00b6 FFF7FEFF 		bl	MAX30101_SetSpO2ADCRange
 119:main.c        ****         
 120:main.c        ****         // Pulse width
 121:main.c        ****         MAX30101_SetSpO2PulseWidth(MAX30101_PULSEWIDTH_411);
 195              		.loc 1 121 0
 196 00ba 0320     		movs	r0, #3
 197 00bc FFF7FEFF 		bl	MAX30101_SetSpO2PulseWidth
 122:main.c        ****         
 123:main.c        ****         // Set Sample Rate
 124:main.c        ****         MAX30101_SetSpO2SampleRate(MAX30101_SAMPLE_RATE_100);
 198              		.loc 1 124 0
 199 00c0 0420     		movs	r0, #4
 200 00c2 FFF7FEFF 		bl	MAX30101_SetSpO2SampleRate
 125:main.c        ****         
 126:main.c        ****         // Set mode
 127:main.c        ****         MAX30101_SetMode(MAX30101_SPO2_MODE);
 201              		.loc 1 127 0
 202 00c6 0320     		movs	r0, #3
 203 00c8 FFF7FEFF 		bl	MAX30101_SetMode
 128:main.c        ****         
 129:main.c        ****         // Enable Slots
 130:main.c        ****         MAX30101_DisableSlots();
 204              		.loc 1 130 0
 205 00cc FFF7FEFF 		bl	MAX30101_DisableSlots
 206              	.L2:
 207              	.LBE2:
 131:main.c        ****         
 132:main.c        ****     }
 133:main.c        ****     
ARM GAS  C:\Users\Perro\AppData\Local\Temp\ccUR568Z.s 			page 7


 134:main.c        ****     
 135:main.c        ****     isr_MAX30101_StartEx(MAX30101_ISR);
 208              		.loc 1 135 0
 209 00d0 7648     		ldr	r0, .L21+4
 210 00d2 FFF7FEFF 		bl	isr_MAX30101_StartEx
 136:main.c        ****     //isr_Timer_StartEx(WAKEUP_TIMER);
 137:main.c        ****     //isr_SM_StartEx(Count);
 138:main.c        ****     isr_RX_StartEx(Custom_ISR_RX);
 211              		.loc 1 138 0
 212 00d6 7648     		ldr	r0, .L21+8
 213 00d8 FFF7FEFF 		bl	isr_RX_StartEx
 139:main.c        ****     //SleepTimer_Start();
 140:main.c        ****     
 141:main.c        ****     
 142:main.c        ****     // Clear FIFO
 143:main.c        ****     MAX30101_ClearFIFO();
 214              		.loc 1 143 0
 215 00dc FFF7FEFF 		bl	MAX30101_ClearFIFO
 144:main.c        ****     
 145:main.c        ****     CyGlobalIntEnable; /* Enable global interrupts. */
 216              		.loc 1 145 0
 217              		.syntax unified
 218              	@ 145 "main.c" 1
 219 00e0 62B6     		CPSIE   i
 220              	@ 0 "" 2
 221              		.thumb
 222              		.syntax unified
 223              	.L20:
 146:main.c        ****       
 147:main.c        ****     for(;;)
 148:main.c        ****     {    
 149:main.c        ****         if(flag_temp == 1)
 224              		.loc 1 149 0
 225 00e2 744B     		ldr	r3, .L21+12
 226 00e4 1B78     		ldrb	r3, [r3]	@ zero_extendqisi2
 227 00e6 012B     		cmp	r3, #1
 228 00e8 FBD1     		bne	.L20
 150:main.c        ****         {
 151:main.c        ****             MAX30101_IsFIFOAFull(&flag);
 229              		.loc 1 151 0
 230 00ea 07F25963 		addw	r3, r7, #1625
 231 00ee 1846     		mov	r0, r3
 232 00f0 FFF7FEFF 		bl	MAX30101_IsFIFOAFull
 152:main.c        ****             if(flag>0)
 233              		.loc 1 152 0
 234 00f4 07F25963 		addw	r3, r7, #1625
 235 00f8 1B78     		ldrb	r3, [r3]	@ zero_extendqisi2
 236 00fa 002B     		cmp	r3, #0
 237 00fc 00F05E81 		beq	.L4
 153:main.c        ****             {
 154:main.c        ****                 MAX30101_ReadReadPointer(&rp);
 238              		.loc 1 154 0
 239 0100 07F25B63 		addw	r3, r7, #1627
 240 0104 1846     		mov	r0, r3
 241 0106 FFF7FEFF 		bl	MAX30101_ReadReadPointer
 155:main.c        ****                 MAX30101_ReadWritePointer(&wp);
 242              		.loc 1 155 0
ARM GAS  C:\Users\Perro\AppData\Local\Temp\ccUR568Z.s 			page 8


 243 010a 07F25A63 		addw	r3, r7, #1626
 244 010e 1846     		mov	r0, r3
 245 0110 FFF7FEFF 		bl	MAX30101_ReadWritePointer
 156:main.c        ****                 //Calculate the number of readings we need to get from sensor
 157:main.c        ****                 num_samples = wp - rp;
 246              		.loc 1 157 0
 247 0114 07F25A63 		addw	r3, r7, #1626
 248 0118 1B78     		ldrb	r3, [r3]	@ zero_extendqisi2
 249 011a 1A46     		mov	r2, r3
 250 011c 07F25B63 		addw	r3, r7, #1627
 251 0120 1B78     		ldrb	r3, [r3]	@ zero_extendqisi2
 252 0122 D31A     		subs	r3, r2, r3
 253 0124 C7F82C38 		str	r3, [r7, #2092]
 158:main.c        ****                 if (num_samples <= 0) num_samples += 32; //Wrap condition                
 254              		.loc 1 158 0
 255 0128 D7F82C38 		ldr	r3, [r7, #2092]
 256 012c 002B     		cmp	r3, #0
 257 012e 04DC     		bgt	.L5
 258              		.loc 1 158 0 is_stmt 0 discriminator 1
 259 0130 D7F82C38 		ldr	r3, [r7, #2092]
 260 0134 2033     		adds	r3, r3, #32
 261 0136 C7F82C38 		str	r3, [r7, #2092]
 262              	.L5:
 159:main.c        ****                 // Read FIFO
 160:main.c        ****                 MAX30101_ReadFIFO(num_samples, active_leds, &data, j);
 263              		.loc 1 160 0 is_stmt 1
 264 013a D7F82C38 		ldr	r3, [r7, #2092]
 265 013e D8B2     		uxtb	r0, r3
 266 0140 5D4B     		ldr	r3, .L21+16
 267 0142 1B78     		ldrb	r3, [r3]	@ zero_extendqisi2
 268 0144 07F5D262 		add	r2, r7, #1680
 269 0148 97F81B18 		ldrb	r1, [r7, #2075]	@ zero_extendqisi2
 270 014c FFF7FEFF 		bl	MAX30101_ReadFIFO
 161:main.c        ****                 for (i=0;i<num_samples;i++)
 271              		.loc 1 161 0
 272 0150 0023     		movs	r3, #0
 273 0152 C7F82838 		str	r3, [r7, #2088]
 274 0156 79E0     		b	.L6
 275              	.L8:
 162:main.c        ****                 {                    
 163:main.c        ****                     redBuffer[j] = data.red[data.tail+i];
 276              		.loc 1 163 0
 277 0158 574B     		ldr	r3, .L21+16
 278 015a 1B78     		ldrb	r3, [r3]	@ zero_extendqisi2
 279 015c 1946     		mov	r1, r3
 280 015e 07F5D263 		add	r3, r7, #1680
 281 0162 93F88131 		ldrb	r3, [r3, #385]	@ zero_extendqisi2
 282 0166 1A46     		mov	r2, r3
 283 0168 D7F82838 		ldr	r3, [r7, #2088]
 284 016c 1A44     		add	r2, r2, r3
 285 016e 07F5D263 		add	r3, r7, #1680
 286 0172 53F82220 		ldr	r2, [r3, r2, lsl #2]
 287 0176 07F10803 		add	r3, r7, #8
 288 017a 43F82120 		str	r2, [r3, r1, lsl #2]
 164:main.c        ****                     irBuffer[j] = data.IR[data.tail+i];
 289              		.loc 1 164 0
 290 017e 4E4B     		ldr	r3, .L21+16
ARM GAS  C:\Users\Perro\AppData\Local\Temp\ccUR568Z.s 			page 9


 291 0180 1B78     		ldrb	r3, [r3]	@ zero_extendqisi2
 292 0182 1946     		mov	r1, r3
 293 0184 07F5D263 		add	r3, r7, #1680
 294 0188 93F88131 		ldrb	r3, [r3, #385]	@ zero_extendqisi2
 295 018c 1A46     		mov	r2, r3
 296 018e D7F82838 		ldr	r3, [r7, #2088]
 297 0192 1A44     		add	r2, r2, r3
 298 0194 07F5D263 		add	r3, r7, #1680
 299 0198 2032     		adds	r2, r2, #32
 300 019a 53F82220 		ldr	r2, [r3, r2, lsl #2]
 301 019e 07F54A73 		add	r3, r7, #808
 302 01a2 43F82120 		str	r2, [r3, r1, lsl #2]
 165:main.c        ****                     j++;
 303              		.loc 1 165 0
 304 01a6 444B     		ldr	r3, .L21+16
 305 01a8 1B78     		ldrb	r3, [r3]	@ zero_extendqisi2
 306 01aa 0133     		adds	r3, r3, #1
 307 01ac DAB2     		uxtb	r2, r3
 308 01ae 424B     		ldr	r3, .L21+16
 309 01b0 1A70     		strb	r2, [r3]
 166:main.c        ****                     debug_print("1,");
 310              		.loc 1 166 0
 311 01b2 4248     		ldr	r0, .L21+20
 312 01b4 FFF7FEFF 		bl	UART_Debug_PutString
 167:main.c        ****                     sprintf(msg, "%ld,", data.IR[data.tail+i]);
 313              		.loc 1 167 0
 314 01b8 07F5D263 		add	r3, r7, #1680
 315 01bc 93F88131 		ldrb	r3, [r3, #385]	@ zero_extendqisi2
 316 01c0 1A46     		mov	r2, r3
 317 01c2 D7F82838 		ldr	r3, [r7, #2088]
 318 01c6 1A44     		add	r2, r2, r3
 319 01c8 07F5D263 		add	r3, r7, #1680
 320 01cc 2032     		adds	r2, r2, #32
 321 01ce 53F82220 		ldr	r2, [r3, r2, lsl #2]
 322 01d2 07F25C63 		addw	r3, r7, #1628
 323 01d6 3A49     		ldr	r1, .L21+24
 324 01d8 1846     		mov	r0, r3
 325 01da FFF7FEFF 		bl	sprintf
 168:main.c        ****                     debug_print(msg);
 326              		.loc 1 168 0
 327 01de 07F25C63 		addw	r3, r7, #1628
 328 01e2 1846     		mov	r0, r3
 329 01e4 FFF7FEFF 		bl	UART_Debug_PutString
 169:main.c        ****                     debug_print("2,");
 330              		.loc 1 169 0
 331 01e8 3648     		ldr	r0, .L21+28
 332 01ea FFF7FEFF 		bl	UART_Debug_PutString
 170:main.c        ****                     sprintf(msg, "%ld,", data.red[data.tail+i]);
 333              		.loc 1 170 0
 334 01ee 07F5D263 		add	r3, r7, #1680
 335 01f2 93F88131 		ldrb	r3, [r3, #385]	@ zero_extendqisi2
 336 01f6 1A46     		mov	r2, r3
 337 01f8 D7F82838 		ldr	r3, [r7, #2088]
 338 01fc 1A44     		add	r2, r2, r3
 339 01fe 07F5D263 		add	r3, r7, #1680
 340 0202 53F82220 		ldr	r2, [r3, r2, lsl #2]
 341 0206 07F25C63 		addw	r3, r7, #1628
ARM GAS  C:\Users\Perro\AppData\Local\Temp\ccUR568Z.s 			page 10


 342 020a 2D49     		ldr	r1, .L21+24
 343 020c 1846     		mov	r0, r3
 344 020e FFF7FEFF 		bl	sprintf
 171:main.c        ****                     debug_print(msg);
 345              		.loc 1 171 0
 346 0212 07F25C63 		addw	r3, r7, #1628
 347 0216 1846     		mov	r0, r3
 348 0218 FFF7FEFF 		bl	UART_Debug_PutString
 172:main.c        ****                     
 173:main.c        ****                     if(j<bufferLength)
 349              		.loc 1 173 0
 350 021c 264B     		ldr	r3, .L21+16
 351 021e 1B78     		ldrb	r3, [r3]	@ zero_extendqisi2
 352 0220 1A46     		mov	r2, r3
 353 0222 D7F81438 		ldr	r3, [r7, #2068]
 354 0226 9A42     		cmp	r2, r3
 355 0228 0BDA     		bge	.L7
 174:main.c        ****                     {
 175:main.c        ****                         debug_print("0,");
 356              		.loc 1 175 0 discriminator 1
 357 022a 2748     		ldr	r0, .L21+32
 358 022c FFF7FEFF 		bl	UART_Debug_PutString
 176:main.c        ****                         debug_print("0,");
 359              		.loc 1 176 0 discriminator 1
 360 0230 2548     		ldr	r0, .L21+32
 361 0232 FFF7FEFF 		bl	UART_Debug_PutString
 177:main.c        ****                         debug_print("0,");
 362              		.loc 1 177 0 discriminator 1
 363 0236 2448     		ldr	r0, .L21+32
 364 0238 FFF7FEFF 		bl	UART_Debug_PutString
 178:main.c        ****                         debug_print("0\n");
 365              		.loc 1 178 0 discriminator 1
 366 023c 2348     		ldr	r0, .L21+36
 367 023e FFF7FEFF 		bl	UART_Debug_PutString
 368              	.L7:
 161:main.c        ****                 {                    
 369              		.loc 1 161 0 discriminator 2
 370 0242 D7F82838 		ldr	r3, [r7, #2088]
 371 0246 0133     		adds	r3, r3, #1
 372 0248 C7F82838 		str	r3, [r7, #2088]
 373              	.L6:
 161:main.c        ****                 {                    
 374              		.loc 1 161 0 is_stmt 0 discriminator 1
 375 024c D7F82828 		ldr	r2, [r7, #2088]
 376 0250 D7F82C38 		ldr	r3, [r7, #2092]
 377 0254 9A42     		cmp	r2, r3
 378 0256 FFF67FAF 		blt	.L8
 179:main.c        ****                     }
 180:main.c        ****                     
 181:main.c        ****                     /*if(data.IR[data.tail+i]<15000) 
 182:main.c        ****                     {
 183:main.c        ****                         flag_SM=1;
 184:main.c        ****                         
 185:main.c        ****                         if(SM==1)
 186:main.c        ****                         {
 187:main.c        ****                             flag_SM=0;
 188:main.c        ****                             //debug_print("SLEEP_MODE\r\n");
ARM GAS  C:\Users\Perro\AppData\Local\Temp\ccUR568Z.s 			page 11


 189:main.c        ****                             CyDelay(50);
 190:main.c        ****                             CyPmSaveClocks();
 191:main.c        ****                             CyPmAltAct(PM_ALT_ACT_TIME_NONE,PM_ALT_ACT_SRC_CTW);
 192:main.c        ****                             CyPmRestoreClocks();
 193:main.c        ****                             count=0;
 194:main.c        ****                         }
 195:main.c        ****                     }
 196:main.c        ****                     
 197:main.c        ****                     else if(data.IR[data.tail+i]>=15000)
 198:main.c        ****                     { 
 199:main.c        ****                         SM=0;
 200:main.c        ****                         flag_SM=0;
 201:main.c        ****                         count=0;
 202:main.c        ****                     }*/
 203:main.c        ****                 }
 204:main.c        ****                 
 205:main.c        ****                 if(j>=bufferLength) 
 379              		.loc 1 205 0 is_stmt 1
 380 025a 174B     		ldr	r3, .L21+16
 381 025c 1B78     		ldrb	r3, [r3]	@ zero_extendqisi2
 382 025e 1A46     		mov	r2, r3
 383 0260 D7F81438 		ldr	r3, [r7, #2068]
 384 0264 9A42     		cmp	r2, r3
 385 0266 C0F2A980 		blt	.L4
 206:main.c        ****                 {
 207:main.c        ****                     maxim_heart_rate_and_oxygen_saturation(irBuffer, bufferLength, redBuffer, &spo2
 386              		.loc 1 207 0
 387 026a 07F25461 		addw	r1, r7, #1620
 388 026e 07F10802 		add	r2, r7, #8
 389 0272 07F54A70 		add	r0, r7, #808
 390 0276 07F24B63 		addw	r3, r7, #1611
 391 027a 0293     		str	r3, [sp, #8]
 392 027c 07F24C63 		addw	r3, r7, #1612
 393 0280 0193     		str	r3, [sp, #4]
 394 0282 07F25363 		addw	r3, r7, #1619
 395 0286 0093     		str	r3, [sp]
 396 0288 0B46     		mov	r3, r1
 397 028a D7F81418 		ldr	r1, [r7, #2068]
 398 028e FFF7FEFF 		bl	maxim_heart_rate_and_oxygen_saturation
 208:main.c        ****                     j=bufferLength - 50;
 399              		.loc 1 208 0
 400 0292 D7F81438 		ldr	r3, [r7, #2068]
 401 0296 DBB2     		uxtb	r3, r3
 402 0298 323B     		subs	r3, r3, #50
 403 029a DAB2     		uxtb	r2, r3
 404 029c 064B     		ldr	r3, .L21+16
 405 029e 1A70     		strb	r2, [r3]
 406              	.LBB3:
 209:main.c        ****                     for (int i=50; i<bufferLength; i++) 
 407              		.loc 1 209 0
 408 02a0 3223     		movs	r3, #50
 409 02a2 C7F82038 		str	r3, [r7, #2080]
 410 02a6 34E0     		b	.L9
 411              	.L22:
 412              		.align	2
 413              	.L21:
 414 02a8 00000000 		.word	UART_Debug_PutString
ARM GAS  C:\Users\Perro\AppData\Local\Temp\ccUR568Z.s 			page 12


 415 02ac 00000000 		.word	MAX30101_ISR
 416 02b0 00000000 		.word	Custom_ISR_RX
 417 02b4 00000000 		.word	flag_temp
 418 02b8 00000000 		.word	j
 419 02bc 00000000 		.word	.LC0
 420 02c0 04000000 		.word	.LC1
 421 02c4 0C000000 		.word	.LC2
 422 02c8 10000000 		.word	.LC3
 423 02cc 14000000 		.word	.LC4
 424              	.L10:
 210:main.c        ****                     {
 211:main.c        ****                         redBuffer[i-50] = redBuffer[i];
 425              		.loc 1 211 0 discriminator 3
 426 02d0 D7F82038 		ldr	r3, [r7, #2080]
 427 02d4 A3F13202 		sub	r2, r3, #50
 428 02d8 07F10803 		add	r3, r7, #8
 429 02dc D7F82018 		ldr	r1, [r7, #2080]
 430 02e0 53F82110 		ldr	r1, [r3, r1, lsl #2]
 431 02e4 07F10803 		add	r3, r7, #8
 432 02e8 43F82210 		str	r1, [r3, r2, lsl #2]
 212:main.c        ****                         irBuffer[i-50] = irBuffer[i];
 433              		.loc 1 212 0 discriminator 3
 434 02ec D7F82038 		ldr	r3, [r7, #2080]
 435 02f0 A3F13202 		sub	r2, r3, #50
 436 02f4 07F54A73 		add	r3, r7, #808
 437 02f8 D7F82018 		ldr	r1, [r7, #2080]
 438 02fc 53F82110 		ldr	r1, [r3, r1, lsl #2]
 439 0300 07F54A73 		add	r3, r7, #808
 440 0304 43F82210 		str	r1, [r3, r2, lsl #2]
 209:main.c        ****                     for (int i=50; i<bufferLength; i++) 
 441              		.loc 1 209 0 discriminator 3
 442 0308 D7F82038 		ldr	r3, [r7, #2080]
 443 030c 0133     		adds	r3, r3, #1
 444 030e C7F82038 		str	r3, [r7, #2080]
 445              	.L9:
 209:main.c        ****                     for (int i=50; i<bufferLength; i++) 
 446              		.loc 1 209 0 is_stmt 0 discriminator 1
 447 0312 D7F82028 		ldr	r2, [r7, #2080]
 448 0316 D7F81438 		ldr	r3, [r7, #2068]
 449 031a 9A42     		cmp	r2, r3
 450 031c D8DB     		blt	.L10
 451              	.LBE3:
 213:main.c        ****                     }
 214:main.c        ****                     debug_print("3,");
 452              		.loc 1 214 0 is_stmt 1
 453 031e 7948     		ldr	r0, .L23
 454 0320 FFF7FEFF 		bl	UART_Debug_PutString
 215:main.c        ****                     sprintf(msg, "%ld,", spo2);
 455              		.loc 1 215 0
 456 0324 07F25463 		addw	r3, r7, #1620
 457 0328 1A68     		ldr	r2, [r3]
 458 032a 07F25C63 		addw	r3, r7, #1628
 459 032e 7649     		ldr	r1, .L23+4
 460 0330 1846     		mov	r0, r3
 461 0332 FFF7FEFF 		bl	sprintf
 216:main.c        ****                     debug_print(msg);
 462              		.loc 1 216 0
ARM GAS  C:\Users\Perro\AppData\Local\Temp\ccUR568Z.s 			page 13


 463 0336 07F25C63 		addw	r3, r7, #1628
 464 033a 1846     		mov	r0, r3
 465 033c FFF7FEFF 		bl	UART_Debug_PutString
 217:main.c        ****                     debug_print("4,");
 466              		.loc 1 217 0
 467 0340 7248     		ldr	r0, .L23+8
 468 0342 FFF7FEFF 		bl	UART_Debug_PutString
 218:main.c        ****                     sprintf(msg, "%ld\n", avg_hr);
 469              		.loc 1 218 0
 470 0346 07F25C63 		addw	r3, r7, #1628
 471 034a D7F83028 		ldr	r2, [r7, #2096]
 472 034e 7049     		ldr	r1, .L23+12
 473 0350 1846     		mov	r0, r3
 474 0352 FFF7FEFF 		bl	sprintf
 219:main.c        ****                     debug_print(msg);
 475              		.loc 1 219 0
 476 0356 07F25C63 		addw	r3, r7, #1628
 477 035a 1846     		mov	r0, r3
 478 035c FFF7FEFF 		bl	UART_Debug_PutString
 220:main.c        ****                     if(heartRate > 50 && heartRate < 160) 
 479              		.loc 1 220 0
 480 0360 07F24C63 		addw	r3, r7, #1612
 481 0364 1B68     		ldr	r3, [r3]
 482 0366 322B     		cmp	r3, #50
 483 0368 28DD     		ble	.L4
 484              		.loc 1 220 0 is_stmt 0 discriminator 1
 485 036a 07F24C63 		addw	r3, r7, #1612
 486 036e 1B68     		ldr	r3, [r3]
 487 0370 9F2B     		cmp	r3, #159
 488 0372 23DC     		bgt	.L4
 221:main.c        ****                     {
 222:main.c        ****                         somma += heartRate;
 489              		.loc 1 222 0 is_stmt 1
 490 0374 07F24C63 		addw	r3, r7, #1612
 491 0378 1B68     		ldr	r3, [r3]
 492 037a D7F83428 		ldr	r2, [r7, #2100]
 493 037e 1344     		add	r3, r3, r2
 494 0380 C7F83438 		str	r3, [r7, #2100]
 223:main.c        ****                         if(f==3)
 495              		.loc 1 223 0
 496 0384 D7F82438 		ldr	r3, [r7, #2084]
 497 0388 032B     		cmp	r3, #3
 498 038a 12D1     		bne	.L11
 224:main.c        ****                         {
 225:main.c        ****                             somma = somma/3;
 499              		.loc 1 225 0
 500 038c D7F83438 		ldr	r3, [r7, #2100]
 501 0390 604A     		ldr	r2, .L23+16
 502 0392 82FB0312 		smull	r1, r2, r2, r3
 503 0396 DB17     		asrs	r3, r3, #31
 504 0398 D31A     		subs	r3, r2, r3
 505 039a C7F83438 		str	r3, [r7, #2100]
 226:main.c        ****                             //debug_print("4,");
 227:main.c        ****                             //sprintf(msg, "%ld\n", somma);
 228:main.c        ****                             //debug_print(msg);
 229:main.c        ****                             f = 0;
 506              		.loc 1 229 0
ARM GAS  C:\Users\Perro\AppData\Local\Temp\ccUR568Z.s 			page 14


 507 039e 0023     		movs	r3, #0
 508 03a0 C7F82438 		str	r3, [r7, #2084]
 230:main.c        ****                             avg_hr = somma;
 509              		.loc 1 230 0
 510 03a4 D7F83438 		ldr	r3, [r7, #2100]
 511 03a8 C7F83038 		str	r3, [r7, #2096]
 231:main.c        ****                             somma = 0;
 512              		.loc 1 231 0
 513 03ac 0023     		movs	r3, #0
 514 03ae C7F83438 		str	r3, [r7, #2100]
 515              	.L11:
 232:main.c        ****                             
 233:main.c        ****                         }
 234:main.c        ****                         f++;
 516              		.loc 1 234 0
 517 03b2 D7F82438 		ldr	r3, [r7, #2084]
 518 03b6 0133     		adds	r3, r3, #1
 519 03b8 C7F82438 		str	r3, [r7, #2084]
 520              	.L4:
 235:main.c        ****                     }
 236:main.c        ****                 }
 237:main.c        ****             }
 238:main.c        ****             
 239:main.c        ****             if(flag_ADC == 1)
 521              		.loc 1 239 0
 522 03bc 564B     		ldr	r3, .L23+20
 523 03be 1B78     		ldrb	r3, [r3]	@ zero_extendqisi2
 524 03c0 012B     		cmp	r3, #1
 525 03c2 23D1     		bne	.L12
 240:main.c        ****             {
 241:main.c        ****                 if(flag_start)
 526              		.loc 1 241 0
 527 03c4 554B     		ldr	r3, .L23+24
 528 03c6 1B78     		ldrb	r3, [r3]	@ zero_extendqisi2
 529 03c8 002B     		cmp	r3, #0
 530 03ca 0ED0     		beq	.L13
 242:main.c        ****                 {
 243:main.c        ****                     Pulse_amp = 0x1F;
 531              		.loc 1 243 0
 532 03cc 544B     		ldr	r3, .L23+28
 533 03ce 1F22     		movs	r2, #31
 534 03d0 1A80     		strh	r2, [r3]	@ movhi
 244:main.c        ****                     Pulse_width = MAX30101_PULSEWIDTH_411;
 535              		.loc 1 244 0
 536 03d2 544B     		ldr	r3, .L23+32
 537 03d4 0322     		movs	r2, #3
 538 03d6 1A80     		strh	r2, [r3]	@ movhi
 245:main.c        ****                     Samples = MAX30101_SAMPLE_RATE_100;
 539              		.loc 1 245 0
 540 03d8 534B     		ldr	r3, .L23+36
 541 03da 0422     		movs	r2, #4
 542 03dc 1A80     		strh	r2, [r3]	@ movhi
 246:main.c        ****                     Average = MAX30101_SAMPLE_AVG_2;
 543              		.loc 1 246 0
 544 03de 534B     		ldr	r3, .L23+40
 545 03e0 2022     		movs	r2, #32
 546 03e2 1A80     		strh	r2, [r3]	@ movhi
ARM GAS  C:\Users\Perro\AppData\Local\Temp\ccUR568Z.s 			page 15


 247:main.c        ****                     flag_start = 0;
 547              		.loc 1 247 0
 548 03e4 4D4B     		ldr	r3, .L23+24
 549 03e6 0022     		movs	r2, #0
 550 03e8 1A70     		strb	r2, [r3]
 551              	.L13:
 248:main.c        ****                 }
 249:main.c        ****                 setting_parameters(ADC_range, Pulse_width, Pulse_amp, Samples, Average);
 552              		.loc 1 249 0
 553 03ea 514B     		ldr	r3, .L23+44
 554 03ec 1888     		ldrh	r0, [r3]
 555 03ee 4D4B     		ldr	r3, .L23+32
 556 03f0 1988     		ldrh	r1, [r3]
 557 03f2 4B4B     		ldr	r3, .L23+28
 558 03f4 1A88     		ldrh	r2, [r3]
 559 03f6 4C4B     		ldr	r3, .L23+36
 560 03f8 1C88     		ldrh	r4, [r3]
 561 03fa 4C4B     		ldr	r3, .L23+40
 562 03fc 1B88     		ldrh	r3, [r3]
 563 03fe 0093     		str	r3, [sp]
 564 0400 2346     		mov	r3, r4
 565 0402 FFF7FEFF 		bl	setting_parameters
 250:main.c        ****                 flag_ADC = 0;
 566              		.loc 1 250 0
 567 0406 444B     		ldr	r3, .L23+20
 568 0408 0022     		movs	r2, #0
 569 040a 1A70     		strb	r2, [r3]
 570              	.L12:
 251:main.c        ****                 
 252:main.c        ****             }
 253:main.c        ****             
 254:main.c        ****             if(flag_PW == 1)
 571              		.loc 1 254 0
 572 040c 494B     		ldr	r3, .L23+48
 573 040e 1B78     		ldrb	r3, [r3]	@ zero_extendqisi2
 574 0410 012B     		cmp	r3, #1
 575 0412 23D1     		bne	.L14
 255:main.c        ****             {
 256:main.c        ****                 if(flag_start)
 576              		.loc 1 256 0
 577 0414 414B     		ldr	r3, .L23+24
 578 0416 1B78     		ldrb	r3, [r3]	@ zero_extendqisi2
 579 0418 002B     		cmp	r3, #0
 580 041a 0ED0     		beq	.L15
 257:main.c        ****                 {
 258:main.c        ****                     Pulse_amp = 0x1F;
 581              		.loc 1 258 0
 582 041c 404B     		ldr	r3, .L23+28
 583 041e 1F22     		movs	r2, #31
 584 0420 1A80     		strh	r2, [r3]	@ movhi
 259:main.c        ****                     Samples = MAX30101_SAMPLE_RATE_100;
 585              		.loc 1 259 0
 586 0422 414B     		ldr	r3, .L23+36
 587 0424 0422     		movs	r2, #4
 588 0426 1A80     		strh	r2, [r3]	@ movhi
 260:main.c        ****                     Average = MAX30101_SAMPLE_AVG_2;
 589              		.loc 1 260 0
ARM GAS  C:\Users\Perro\AppData\Local\Temp\ccUR568Z.s 			page 16


 590 0428 404B     		ldr	r3, .L23+40
 591 042a 2022     		movs	r2, #32
 592 042c 1A80     		strh	r2, [r3]	@ movhi
 261:main.c        ****                     ADC_range = MAX30101_ADC_RANGE_4096;
 593              		.loc 1 261 0
 594 042e 404B     		ldr	r3, .L23+44
 595 0430 2022     		movs	r2, #32
 596 0432 1A80     		strh	r2, [r3]	@ movhi
 262:main.c        ****                     flag_start = 0;
 597              		.loc 1 262 0
 598 0434 394B     		ldr	r3, .L23+24
 599 0436 0022     		movs	r2, #0
 600 0438 1A70     		strb	r2, [r3]
 601              	.L15:
 263:main.c        ****                 }
 264:main.c        ****                 setting_parameters(ADC_range, Pulse_width,  Pulse_amp, Samples, Average);
 602              		.loc 1 264 0
 603 043a 3D4B     		ldr	r3, .L23+44
 604 043c 1888     		ldrh	r0, [r3]
 605 043e 394B     		ldr	r3, .L23+32
 606 0440 1988     		ldrh	r1, [r3]
 607 0442 374B     		ldr	r3, .L23+28
 608 0444 1A88     		ldrh	r2, [r3]
 609 0446 384B     		ldr	r3, .L23+36
 610 0448 1C88     		ldrh	r4, [r3]
 611 044a 384B     		ldr	r3, .L23+40
 612 044c 1B88     		ldrh	r3, [r3]
 613 044e 0093     		str	r3, [sp]
 614 0450 2346     		mov	r3, r4
 615 0452 FFF7FEFF 		bl	setting_parameters
 265:main.c        ****                 flag_PW = 0;
 616              		.loc 1 265 0
 617 0456 374B     		ldr	r3, .L23+48
 618 0458 0022     		movs	r2, #0
 619 045a 1A70     		strb	r2, [r3]
 620              	.L14:
 266:main.c        ****             }
 267:main.c        ****             
 268:main.c        ****             if(flag_PA == 1)
 621              		.loc 1 268 0
 622 045c 364B     		ldr	r3, .L23+52
 623 045e 1B78     		ldrb	r3, [r3]	@ zero_extendqisi2
 624 0460 012B     		cmp	r3, #1
 625 0462 23D1     		bne	.L16
 269:main.c        ****             {
 270:main.c        ****                 if(flag_start)
 626              		.loc 1 270 0
 627 0464 2D4B     		ldr	r3, .L23+24
 628 0466 1B78     		ldrb	r3, [r3]	@ zero_extendqisi2
 629 0468 002B     		cmp	r3, #0
 630 046a 0ED0     		beq	.L17
 271:main.c        ****                 {
 272:main.c        ****                     Pulse_width = MAX30101_PULSEWIDTH_411;
 631              		.loc 1 272 0
 632 046c 2D4B     		ldr	r3, .L23+32
 633 046e 0322     		movs	r2, #3
 634 0470 1A80     		strh	r2, [r3]	@ movhi
ARM GAS  C:\Users\Perro\AppData\Local\Temp\ccUR568Z.s 			page 17


 273:main.c        ****                     Samples = MAX30101_SAMPLE_RATE_100;
 635              		.loc 1 273 0
 636 0472 2D4B     		ldr	r3, .L23+36
 637 0474 0422     		movs	r2, #4
 638 0476 1A80     		strh	r2, [r3]	@ movhi
 274:main.c        ****                     Average = MAX30101_SAMPLE_AVG_2;
 639              		.loc 1 274 0
 640 0478 2C4B     		ldr	r3, .L23+40
 641 047a 2022     		movs	r2, #32
 642 047c 1A80     		strh	r2, [r3]	@ movhi
 275:main.c        ****                     ADC_range = MAX30101_ADC_RANGE_4096;
 643              		.loc 1 275 0
 644 047e 2C4B     		ldr	r3, .L23+44
 645 0480 2022     		movs	r2, #32
 646 0482 1A80     		strh	r2, [r3]	@ movhi
 276:main.c        ****                     flag_start = 0;
 647              		.loc 1 276 0
 648 0484 254B     		ldr	r3, .L23+24
 649 0486 0022     		movs	r2, #0
 650 0488 1A70     		strb	r2, [r3]
 651              	.L17:
 277:main.c        ****                 }
 278:main.c        ****                 setting_parameters(ADC_range, Pulse_width,  Pulse_amp, Samples, Average);
 652              		.loc 1 278 0
 653 048a 294B     		ldr	r3, .L23+44
 654 048c 1888     		ldrh	r0, [r3]
 655 048e 254B     		ldr	r3, .L23+32
 656 0490 1988     		ldrh	r1, [r3]
 657 0492 234B     		ldr	r3, .L23+28
 658 0494 1A88     		ldrh	r2, [r3]
 659 0496 244B     		ldr	r3, .L23+36
 660 0498 1C88     		ldrh	r4, [r3]
 661 049a 244B     		ldr	r3, .L23+40
 662 049c 1B88     		ldrh	r3, [r3]
 663 049e 0093     		str	r3, [sp]
 664 04a0 2346     		mov	r3, r4
 665 04a2 FFF7FEFF 		bl	setting_parameters
 279:main.c        ****                 flag_PA = 0;
 666              		.loc 1 279 0
 667 04a6 244B     		ldr	r3, .L23+52
 668 04a8 0022     		movs	r2, #0
 669 04aa 1A70     		strb	r2, [r3]
 670              	.L16:
 280:main.c        ****             }
 281:main.c        ****             
 282:main.c        ****             if(flag_SR == 1)
 671              		.loc 1 282 0
 672 04ac 234B     		ldr	r3, .L23+56
 673 04ae 1B78     		ldrb	r3, [r3]	@ zero_extendqisi2
 674 04b0 012B     		cmp	r3, #1
 675 04b2 23D1     		bne	.L18
 283:main.c        ****             {
 284:main.c        ****                 if(flag_start)
 676              		.loc 1 284 0
 677 04b4 194B     		ldr	r3, .L23+24
 678 04b6 1B78     		ldrb	r3, [r3]	@ zero_extendqisi2
 679 04b8 002B     		cmp	r3, #0
ARM GAS  C:\Users\Perro\AppData\Local\Temp\ccUR568Z.s 			page 18


 680 04ba 0ED0     		beq	.L19
 285:main.c        ****                 {
 286:main.c        ****                     Pulse_width = MAX30101_PULSEWIDTH_411;
 681              		.loc 1 286 0
 682 04bc 194B     		ldr	r3, .L23+32
 683 04be 0322     		movs	r2, #3
 684 04c0 1A80     		strh	r2, [r3]	@ movhi
 287:main.c        ****                     Pulse_amp = 0x1F;
 685              		.loc 1 287 0
 686 04c2 174B     		ldr	r3, .L23+28
 687 04c4 1F22     		movs	r2, #31
 688 04c6 1A80     		strh	r2, [r3]	@ movhi
 288:main.c        ****                     Average = MAX30101_SAMPLE_AVG_2;
 689              		.loc 1 288 0
 690 04c8 184B     		ldr	r3, .L23+40
 691 04ca 2022     		movs	r2, #32
 692 04cc 1A80     		strh	r2, [r3]	@ movhi
 289:main.c        ****                     ADC_range = MAX30101_ADC_RANGE_4096;
 693              		.loc 1 289 0
 694 04ce 184B     		ldr	r3, .L23+44
 695 04d0 2022     		movs	r2, #32
 696 04d2 1A80     		strh	r2, [r3]	@ movhi
 290:main.c        ****                     flag_start = 0;
 697              		.loc 1 290 0
 698 04d4 114B     		ldr	r3, .L23+24
 699 04d6 0022     		movs	r2, #0
 700 04d8 1A70     		strb	r2, [r3]
 701              	.L19:
 291:main.c        ****                 }
 292:main.c        ****                 setting_parameters(ADC_range, Pulse_width,  Pulse_amp, Samples, Average);
 702              		.loc 1 292 0
 703 04da 154B     		ldr	r3, .L23+44
 704 04dc 1888     		ldrh	r0, [r3]
 705 04de 114B     		ldr	r3, .L23+32
 706 04e0 1988     		ldrh	r1, [r3]
 707 04e2 0F4B     		ldr	r3, .L23+28
 708 04e4 1A88     		ldrh	r2, [r3]
 709 04e6 104B     		ldr	r3, .L23+36
 710 04e8 1C88     		ldrh	r4, [r3]
 711 04ea 104B     		ldr	r3, .L23+40
 712 04ec 1B88     		ldrh	r3, [r3]
 713 04ee 0093     		str	r3, [sp]
 714 04f0 2346     		mov	r3, r4
 715 04f2 FFF7FEFF 		bl	setting_parameters
 293:main.c        ****                 flag_SR = 0;
 716              		.loc 1 293 0
 717 04f6 114B     		ldr	r3, .L23+56
 718 04f8 0022     		movs	r2, #0
 719 04fa 1A70     		strb	r2, [r3]
 720              	.L18:
 294:main.c        ****             }
 295:main.c        ****             flag_temp = 0;
 721              		.loc 1 295 0
 722 04fc 104B     		ldr	r3, .L23+60
 723 04fe 0022     		movs	r2, #0
 724 0500 1A70     		strb	r2, [r3]
 296:main.c        ****         }        
ARM GAS  C:\Users\Perro\AppData\Local\Temp\ccUR568Z.s 			page 19


 297:main.c        ****     } 
 725              		.loc 1 297 0
 726 0502 EEE5     		b	.L20
 727              	.L24:
 728              		.align	2
 729              	.L23:
 730 0504 18000000 		.word	.LC5
 731 0508 04000000 		.word	.LC1
 732 050c 1C000000 		.word	.LC6
 733 0510 20000000 		.word	.LC7
 734 0514 56555555 		.word	1431655766
 735 0518 00000000 		.word	flag_ADC
 736 051c 00000000 		.word	flag_start
 737 0520 00000000 		.word	Pulse_amp
 738 0524 00000000 		.word	Pulse_width
 739 0528 00000000 		.word	Samples
 740 052c 00000000 		.word	Average
 741 0530 00000000 		.word	ADC_range
 742 0534 00000000 		.word	flag_PW
 743 0538 00000000 		.word	flag_PA
 744 053c 00000000 		.word	flag_SR
 745 0540 00000000 		.word	flag_temp
 746              		.cfi_endproc
 747              	.LFE64:
 748              		.size	main, .-main
 749              		.section	.text.MAX30101_ISR,"ax",%progbits
 750              		.align	2
 751              		.global	MAX30101_ISR
 752              		.thumb
 753              		.thumb_func
 754              		.type	MAX30101_ISR, %function
 755              	MAX30101_ISR:
 756              	.LFB65:
 298:main.c        **** }   
 299:main.c        **** 
 300:main.c        **** /*CY_ISR(WAKEUP_TIMER)
 301:main.c        **** {
 302:main.c        ****     SleepTimer_GetStatus();
 303:main.c        **** }*/
 304:main.c        **** 
 305:main.c        **** CY_ISR(MAX30101_ISR)
 306:main.c        **** {
 757              		.loc 1 306 0
 758              		.cfi_startproc
 759              		@ args = 0, pretend = 0, frame = 0
 760              		@ frame_needed = 1, uses_anonymous_args = 0
 761 0000 80B5     		push	{r7, lr}
 762              		.cfi_def_cfa_offset 8
 763              		.cfi_offset 7, -8
 764              		.cfi_offset 14, -4
 765 0002 00AF     		add	r7, sp, #0
 766              		.cfi_def_cfa_register 7
 307:main.c        ****     flag_temp = 1;
 767              		.loc 1 307 0
 768 0004 084B     		ldr	r3, .L26
 769 0006 0122     		movs	r2, #1
 770 0008 1A70     		strb	r2, [r3]
ARM GAS  C:\Users\Perro\AppData\Local\Temp\ccUR568Z.s 			page 20


 308:main.c        ****     Connection_LED_Write(!Connection_LED_Read());
 771              		.loc 1 308 0
 772 000a FFF7FEFF 		bl	Connection_LED_Read
 773 000e 0346     		mov	r3, r0
 774 0010 002B     		cmp	r3, #0
 775 0012 0CBF     		ite	eq
 776 0014 0123     		moveq	r3, #1
 777 0016 0023     		movne	r3, #0
 778 0018 DBB2     		uxtb	r3, r3
 779 001a 1846     		mov	r0, r3
 780 001c FFF7FEFF 		bl	Connection_LED_Write
 309:main.c        ****     MAX30101_INT_ClearInterrupt();
 781              		.loc 1 309 0
 782 0020 FFF7FEFF 		bl	MAX30101_INT_ClearInterrupt
 310:main.c        **** }
 783              		.loc 1 310 0
 784 0024 00BF     		nop
 785 0026 80BD     		pop	{r7, pc}
 786              	.L27:
 787              		.align	2
 788              	.L26:
 789 0028 00000000 		.word	flag_temp
 790              		.cfi_endproc
 791              	.LFE65:
 792              		.size	MAX30101_ISR, .-MAX30101_ISR
 793              		.text
 794              	.Letext0:
 795              		.file 2 "c:\\program files (x86)\\cypress\\psoc creator\\4.4\\psoc creator\\import\\gnu\\arm\\5.4.
 796              		.file 3 "c:\\program files (x86)\\cypress\\psoc creator\\4.4\\psoc creator\\import\\gnu\\arm\\5.4.
 797              		.file 4 "Generated_Source\\PSoC5/cytypes.h"
 798              		.file 5 "MAX30101.h"
 799              		.file 6 "Generated_Source\\PSoC5/core_cm3.h"
 800              		.file 7 "SpO2.h"
 801              		.file 8 "setting_parameters.h"
 802              		.section	.debug_info,"",%progbits
 803              	.Ldebug_info0:
 804 0000 5C040000 		.4byte	0x45c
 805 0004 0400     		.2byte	0x4
 806 0006 00000000 		.4byte	.Ldebug_abbrev0
 807 000a 04       		.byte	0x4
 808 000b 01       		.uleb128 0x1
 809 000c 2A000000 		.4byte	.LASF60
 810 0010 0C       		.byte	0xc
 811 0011 70020000 		.4byte	.LASF61
 812 0015 5A010000 		.4byte	.LASF62
 813 0019 00000000 		.4byte	.Ldebug_ranges0+0
 814 001d 00000000 		.4byte	0
 815 0021 00000000 		.4byte	.Ldebug_line0
 816 0025 02       		.uleb128 0x2
 817 0026 2E020000 		.4byte	.LASF0
 818 002a 02       		.byte	0x2
 819 002b 1B       		.byte	0x1b
 820 002c 30000000 		.4byte	0x30
 821 0030 03       		.uleb128 0x3
 822 0031 01       		.byte	0x1
 823 0032 06       		.byte	0x6
 824 0033 C8010000 		.4byte	.LASF2
ARM GAS  C:\Users\Perro\AppData\Local\Temp\ccUR568Z.s 			page 21


 825 0037 02       		.uleb128 0x2
 826 0038 2A010000 		.4byte	.LASF1
 827 003c 02       		.byte	0x2
 828 003d 1D       		.byte	0x1d
 829 003e 42000000 		.4byte	0x42
 830 0042 03       		.uleb128 0x3
 831 0043 01       		.byte	0x1
 832 0044 08       		.byte	0x8
 833 0045 AF010000 		.4byte	.LASF3
 834 0049 03       		.uleb128 0x3
 835 004a 02       		.byte	0x2
 836 004b 05       		.byte	0x5
 837 004c 17000000 		.4byte	.LASF4
 838 0050 03       		.uleb128 0x3
 839 0051 02       		.byte	0x2
 840 0052 07       		.byte	0x7
 841 0053 1B020000 		.4byte	.LASF5
 842 0057 02       		.uleb128 0x2
 843 0058 C4020000 		.4byte	.LASF6
 844 005c 02       		.byte	0x2
 845 005d 3F       		.byte	0x3f
 846 005e 62000000 		.4byte	0x62
 847 0062 03       		.uleb128 0x3
 848 0063 04       		.byte	0x4
 849 0064 05       		.byte	0x5
 850 0065 3C020000 		.4byte	.LASF7
 851 0069 02       		.uleb128 0x2
 852 006a BD000000 		.4byte	.LASF8
 853 006e 02       		.byte	0x2
 854 006f 41       		.byte	0x41
 855 0070 74000000 		.4byte	0x74
 856 0074 03       		.uleb128 0x3
 857 0075 04       		.byte	0x4
 858 0076 07       		.byte	0x7
 859 0077 77020000 		.4byte	.LASF9
 860 007b 03       		.uleb128 0x3
 861 007c 08       		.byte	0x8
 862 007d 05       		.byte	0x5
 863 007e 05010000 		.4byte	.LASF10
 864 0082 03       		.uleb128 0x3
 865 0083 08       		.byte	0x8
 866 0084 07       		.byte	0x7
 867 0085 D4010000 		.4byte	.LASF11
 868 0089 04       		.uleb128 0x4
 869 008a 04       		.byte	0x4
 870 008b 05       		.byte	0x5
 871 008c 696E7400 		.ascii	"int\000"
 872 0090 03       		.uleb128 0x3
 873 0091 04       		.byte	0x4
 874 0092 07       		.byte	0x7
 875 0093 F4010000 		.4byte	.LASF12
 876 0097 02       		.uleb128 0x2
 877 0098 10000000 		.4byte	.LASF13
 878 009c 03       		.byte	0x3
 879 009d 14       		.byte	0x14
 880 009e 25000000 		.4byte	0x25
 881 00a2 02       		.uleb128 0x2
ARM GAS  C:\Users\Perro\AppData\Local\Temp\ccUR568Z.s 			page 22


 882 00a3 CE020000 		.4byte	.LASF14
 883 00a7 03       		.byte	0x3
 884 00a8 18       		.byte	0x18
 885 00a9 37000000 		.4byte	0x37
 886 00ad 02       		.uleb128 0x2
 887 00ae 45020000 		.4byte	.LASF15
 888 00b2 03       		.byte	0x3
 889 00b3 2C       		.byte	0x2c
 890 00b4 57000000 		.4byte	0x57
 891 00b8 02       		.uleb128 0x2
 892 00b9 EB010000 		.4byte	.LASF16
 893 00bd 03       		.byte	0x3
 894 00be 30       		.byte	0x30
 895 00bf 69000000 		.4byte	0x69
 896 00c3 05       		.uleb128 0x5
 897 00c4 F0000000 		.4byte	.LASF17
 898 00c8 04       		.byte	0x4
 899 00c9 E801     		.2byte	0x1e8
 900 00cb 42000000 		.4byte	0x42
 901 00cf 05       		.uleb128 0x5
 902 00d0 69020000 		.4byte	.LASF18
 903 00d4 04       		.byte	0x4
 904 00d5 E901     		.2byte	0x1e9
 905 00d7 50000000 		.4byte	0x50
 906 00db 03       		.uleb128 0x3
 907 00dc 04       		.byte	0x4
 908 00dd 04       		.byte	0x4
 909 00de FF000000 		.4byte	.LASF19
 910 00e2 03       		.uleb128 0x3
 911 00e3 08       		.byte	0x8
 912 00e4 04       		.byte	0x4
 913 00e5 97020000 		.4byte	.LASF20
 914 00e9 03       		.uleb128 0x3
 915 00ea 01       		.byte	0x1
 916 00eb 08       		.byte	0x8
 917 00ec 37020000 		.4byte	.LASF21
 918 00f0 03       		.uleb128 0x3
 919 00f1 08       		.byte	0x8
 920 00f2 04       		.byte	0x4
 921 00f3 47010000 		.4byte	.LASF22
 922 00f7 03       		.uleb128 0x3
 923 00f8 04       		.byte	0x4
 924 00f9 07       		.byte	0x7
 925 00fa 21000000 		.4byte	.LASF23
 926 00fe 06       		.uleb128 0x6
 927 00ff 04       		.byte	0x4
 928 0100 04010000 		.4byte	0x104
 929 0104 07       		.uleb128 0x7
 930 0105 E9000000 		.4byte	0xe9
 931 0109 08       		.uleb128 0x8
 932 010a 8401     		.2byte	0x184
 933 010c 05       		.byte	0x5
 934 010d 1B       		.byte	0x1b
 935 010e 51010000 		.4byte	0x151
 936 0112 09       		.uleb128 0x9
 937 0113 72656400 		.ascii	"red\000"
 938 0117 05       		.byte	0x5
ARM GAS  C:\Users\Perro\AppData\Local\Temp\ccUR568Z.s 			page 23


 939 0118 1D       		.byte	0x1d
 940 0119 51010000 		.4byte	0x151
 941 011d 00       		.byte	0
 942 011e 09       		.uleb128 0x9
 943 011f 495200   		.ascii	"IR\000"
 944 0122 05       		.byte	0x5
 945 0123 1E       		.byte	0x1e
 946 0124 51010000 		.4byte	0x151
 947 0128 80       		.byte	0x80
 948 0129 0A       		.uleb128 0xa
 949 012a 34010000 		.4byte	.LASF24
 950 012e 05       		.byte	0x5
 951 012f 1F       		.byte	0x1f
 952 0130 51010000 		.4byte	0x151
 953 0134 0001     		.2byte	0x100
 954 0136 0A       		.uleb128 0xa
 955 0137 D3000000 		.4byte	.LASF25
 956 013b 05       		.byte	0x5
 957 013c 20       		.byte	0x20
 958 013d A2000000 		.4byte	0xa2
 959 0141 8001     		.2byte	0x180
 960 0143 0A       		.uleb128 0xa
 961 0144 BD010000 		.4byte	.LASF26
 962 0148 05       		.byte	0x5
 963 0149 21       		.byte	0x21
 964 014a A2000000 		.4byte	0xa2
 965 014e 8101     		.2byte	0x181
 966 0150 00       		.byte	0
 967 0151 0B       		.uleb128 0xb
 968 0152 B8000000 		.4byte	0xb8
 969 0156 61010000 		.4byte	0x161
 970 015a 0C       		.uleb128 0xc
 971 015b F7000000 		.4byte	0xf7
 972 015f 1F       		.byte	0x1f
 973 0160 00       		.byte	0
 974 0161 02       		.uleb128 0x2
 975 0162 89020000 		.4byte	.LASF27
 976 0166 05       		.byte	0x5
 977 0167 22       		.byte	0x22
 978 0168 09010000 		.4byte	0x109
 979 016c 0D       		.uleb128 0xd
 980 016d B8000000 		.4byte	.LASF63
 981 0171 01       		.byte	0x1
 982 0172 32       		.byte	0x32
 983 0173 89000000 		.4byte	0x89
 984 0177 00000000 		.4byte	.LFB64
 985 017b 44050000 		.4byte	.LFE64-.LFB64
 986 017f 01       		.uleb128 0x1
 987 0180 9C       		.byte	0x9c
 988 0181 D7020000 		.4byte	0x2d7
 989 0185 0E       		.uleb128 0xe
 990 0186 64020000 		.4byte	.LASF28
 991 018a 01       		.byte	0x1
 992 018b 35       		.byte	0x35
 993 018c 61010000 		.4byte	0x161
 994 0190 03       		.uleb128 0x3
 995 0191 91       		.byte	0x91
ARM GAS  C:\Users\Perro\AppData\Local\Temp\ccUR568Z.s 			page 24


 996 0192 C87C     		.sleb128 -440
 997 0194 0F       		.uleb128 0xf
 998 0195 6D736700 		.ascii	"msg\000"
 999 0199 01       		.byte	0x1
 1000 019a 38       		.byte	0x38
 1001 019b D7020000 		.4byte	0x2d7
 1002 019f 03       		.uleb128 0x3
 1003 01a0 91       		.byte	0x91
 1004 01a1 947C     		.sleb128 -492
 1005 01a3 0E       		.uleb128 0xe
 1006 01a4 9E020000 		.4byte	.LASF29
 1007 01a8 01       		.byte	0x1
 1008 01a9 39       		.byte	0x39
 1009 01aa F2020000 		.4byte	0x2f2
 1010 01ae 02       		.uleb128 0x2
 1011 01af 91       		.byte	0x91
 1012 01b0 54       		.sleb128 -44
 1013 01b1 0E       		.uleb128 0xe
 1014 01b2 E3020000 		.4byte	.LASF30
 1015 01b6 01       		.byte	0x1
 1016 01b7 3A       		.byte	0x3a
 1017 01b8 A2000000 		.4byte	0xa2
 1018 01bc 02       		.uleb128 0x2
 1019 01bd 91       		.byte	0x91
 1020 01be 53       		.sleb128 -45
 1021 01bf 0F       		.uleb128 0xf
 1022 01c0 727000   		.ascii	"rp\000"
 1023 01c3 01       		.byte	0x1
 1024 01c4 3B       		.byte	0x3b
 1025 01c5 A2000000 		.4byte	0xa2
 1026 01c9 03       		.uleb128 0x3
 1027 01ca 91       		.byte	0x91
 1028 01cb 937C     		.sleb128 -493
 1029 01cd 0F       		.uleb128 0xf
 1030 01ce 777000   		.ascii	"wp\000"
 1031 01d1 01       		.byte	0x1
 1032 01d2 3B       		.byte	0x3b
 1033 01d3 A2000000 		.4byte	0xa2
 1034 01d7 03       		.uleb128 0x3
 1035 01d8 91       		.byte	0x91
 1036 01d9 927C     		.sleb128 -494
 1037 01db 0E       		.uleb128 0xe
 1038 01dc EF020000 		.4byte	.LASF31
 1039 01e0 01       		.byte	0x1
 1040 01e1 3B       		.byte	0x3b
 1041 01e2 A2000000 		.4byte	0xa2
 1042 01e6 03       		.uleb128 0x3
 1043 01e7 91       		.byte	0x91
 1044 01e8 917C     		.sleb128 -495
 1045 01ea 0E       		.uleb128 0xe
 1046 01eb D6020000 		.4byte	.LASF32
 1047 01ef 01       		.byte	0x1
 1048 01f0 3C       		.byte	0x3c
 1049 01f1 AD000000 		.4byte	0xad
 1050 01f5 03       		.uleb128 0x3
 1051 01f6 91       		.byte	0x91
 1052 01f7 8C7C     		.sleb128 -500
ARM GAS  C:\Users\Perro\AppData\Local\Temp\ccUR568Z.s 			page 25


 1053 01f9 0E       		.uleb128 0xe
 1054 01fa 4D020000 		.4byte	.LASF33
 1055 01fe 01       		.byte	0x1
 1056 01ff 3D       		.byte	0x3d
 1057 0200 97000000 		.4byte	0x97
 1058 0204 03       		.uleb128 0x3
 1059 0205 91       		.byte	0x91
 1060 0206 8B7C     		.sleb128 -501
 1061 0208 0E       		.uleb128 0xe
 1062 0209 A5010000 		.4byte	.LASF34
 1063 020d 01       		.byte	0x1
 1064 020e 3E       		.byte	0x3e
 1065 020f AD000000 		.4byte	0xad
 1066 0213 03       		.uleb128 0x3
 1067 0214 91       		.byte	0x91
 1068 0215 847C     		.sleb128 -508
 1069 0217 0E       		.uleb128 0xe
 1070 0218 D8000000 		.4byte	.LASF35
 1071 021c 01       		.byte	0x1
 1072 021d 3F       		.byte	0x3f
 1073 021e 97000000 		.4byte	0x97
 1074 0222 03       		.uleb128 0x3
 1075 0223 91       		.byte	0x91
 1076 0224 837C     		.sleb128 -509
 1077 0226 0E       		.uleb128 0xe
 1078 0227 E7000000 		.4byte	.LASF36
 1079 022b 01       		.byte	0x1
 1080 022c 40       		.byte	0x40
 1081 022d F8020000 		.4byte	0x2f8
 1082 0231 03       		.uleb128 0x3
 1083 0232 91       		.byte	0x91
 1084 0233 E075     		.sleb128 -1312
 1085 0235 0E       		.uleb128 0xe
 1086 0236 A8020000 		.4byte	.LASF37
 1087 023a 01       		.byte	0x1
 1088 023b 41       		.byte	0x41
 1089 023c F8020000 		.4byte	0x2f8
 1090 0240 03       		.uleb128 0x3
 1091 0241 91       		.byte	0x91
 1092 0242 C06F     		.sleb128 -2112
 1093 0244 0E       		.uleb128 0xe
 1094 0245 1D010000 		.4byte	.LASF38
 1095 0249 01       		.byte	0x1
 1096 024a 42       		.byte	0x42
 1097 024b AD000000 		.4byte	0xad
 1098 024f 02       		.uleb128 0x2
 1099 0250 91       		.byte	0x91
 1100 0251 4C       		.sleb128 -52
 1101 0252 0E       		.uleb128 0xe
 1102 0253 C2010000 		.4byte	.LASF39
 1103 0257 01       		.byte	0x1
 1104 0258 43       		.byte	0x43
 1105 0259 AD000000 		.4byte	0xad
 1106 025d 02       		.uleb128 0x2
 1107 025e 91       		.byte	0x91
 1108 025f 6C       		.sleb128 -20
 1109 0260 0E       		.uleb128 0xe
ARM GAS  C:\Users\Perro\AppData\Local\Temp\ccUR568Z.s 			page 26


 1110 0261 13030000 		.4byte	.LASF40
 1111 0265 01       		.byte	0x1
 1112 0266 44       		.byte	0x44
 1113 0267 AD000000 		.4byte	0xad
 1114 026b 02       		.uleb128 0x2
 1115 026c 91       		.byte	0x91
 1116 026d 68       		.sleb128 -24
 1117 026e 0E       		.uleb128 0xe
 1118 026f 1A030000 		.4byte	.LASF41
 1119 0273 01       		.byte	0x1
 1120 0274 45       		.byte	0x45
 1121 0275 89000000 		.4byte	0x89
 1122 0279 02       		.uleb128 0x2
 1123 027a 91       		.byte	0x91
 1124 027b 64       		.sleb128 -28
 1125 027c 0F       		.uleb128 0xf
 1126 027d 6900     		.ascii	"i\000"
 1127 027f 01       		.byte	0x1
 1128 0280 49       		.byte	0x49
 1129 0281 89000000 		.4byte	0x89
 1130 0285 02       		.uleb128 0x2
 1131 0286 91       		.byte	0x91
 1132 0287 60       		.sleb128 -32
 1133 0288 0F       		.uleb128 0xf
 1134 0289 6600     		.ascii	"f\000"
 1135 028b 01       		.byte	0x1
 1136 028c 4A       		.byte	0x4a
 1137 028d 89000000 		.4byte	0x89
 1138 0291 02       		.uleb128 0x2
 1139 0292 91       		.byte	0x91
 1140 0293 5C       		.sleb128 -36
 1141 0294 10       		.uleb128 0x10
 1142 0295 66000000 		.4byte	.LBB2
 1143 0299 6A000000 		.4byte	.LBE2-.LBB2
 1144 029d C0020000 		.4byte	0x2c0
 1145 02a1 0E       		.uleb128 0xe
 1146 02a2 53010000 		.4byte	.LASF42
 1147 02a6 01       		.byte	0x1
 1148 02a7 5A       		.byte	0x5a
 1149 02a8 A2000000 		.4byte	0xa2
 1150 02ac 03       		.uleb128 0x3
 1151 02ad 91       		.byte	0x91
 1152 02ae BF6F     		.sleb128 -2113
 1153 02b0 0E       		.uleb128 0xe
 1154 02b1 0B020000 		.4byte	.LASF43
 1155 02b5 01       		.byte	0x1
 1156 02b6 5A       		.byte	0x5a
 1157 02b7 A2000000 		.4byte	0xa2
 1158 02bb 03       		.uleb128 0x3
 1159 02bc 91       		.byte	0x91
 1160 02bd BE6F     		.sleb128 -2114
 1161 02bf 00       		.byte	0
 1162 02c0 11       		.uleb128 0x11
 1163 02c1 A0020000 		.4byte	.LBB3
 1164 02c5 7E000000 		.4byte	.LBE3-.LBB3
 1165 02c9 0F       		.uleb128 0xf
 1166 02ca 6900     		.ascii	"i\000"
ARM GAS  C:\Users\Perro\AppData\Local\Temp\ccUR568Z.s 			page 27


 1167 02cc 01       		.byte	0x1
 1168 02cd D1       		.byte	0xd1
 1169 02ce 89000000 		.4byte	0x89
 1170 02d2 02       		.uleb128 0x2
 1171 02d3 91       		.byte	0x91
 1172 02d4 58       		.sleb128 -40
 1173 02d5 00       		.byte	0
 1174 02d6 00       		.byte	0
 1175 02d7 0B       		.uleb128 0xb
 1176 02d8 E9000000 		.4byte	0xe9
 1177 02dc E7020000 		.4byte	0x2e7
 1178 02e0 0C       		.uleb128 0xc
 1179 02e1 F7000000 		.4byte	0xf7
 1180 02e5 31       		.byte	0x31
 1181 02e6 00       		.byte	0
 1182 02e7 12       		.uleb128 0x12
 1183 02e8 F2020000 		.4byte	0x2f2
 1184 02ec 13       		.uleb128 0x13
 1185 02ed FE000000 		.4byte	0xfe
 1186 02f1 00       		.byte	0
 1187 02f2 06       		.uleb128 0x6
 1188 02f3 04       		.byte	0x4
 1189 02f4 E7020000 		.4byte	0x2e7
 1190 02f8 0B       		.uleb128 0xb
 1191 02f9 B8000000 		.4byte	0xb8
 1192 02fd 08030000 		.4byte	0x308
 1193 0301 0C       		.uleb128 0xc
 1194 0302 F7000000 		.4byte	0xf7
 1195 0306 C7       		.byte	0xc7
 1196 0307 00       		.byte	0
 1197 0308 14       		.uleb128 0x14
 1198 0309 3A010000 		.4byte	.LASF64
 1199 030d 01       		.byte	0x1
 1200 030e 3101     		.2byte	0x131
 1201 0310 00000000 		.4byte	.LFB65
 1202 0314 2C000000 		.4byte	.LFE65-.LFB65
 1203 0318 01       		.uleb128 0x1
 1204 0319 9C       		.byte	0x9c
 1205 031a 15       		.uleb128 0x15
 1206 031b FE020000 		.4byte	.LASF44
 1207 031f 06       		.byte	0x6
 1208 0320 1207     		.2byte	0x712
 1209 0322 26030000 		.4byte	0x326
 1210 0326 16       		.uleb128 0x16
 1211 0327 AD000000 		.4byte	0xad
 1212 032b 17       		.uleb128 0x17
 1213 032c 64020000 		.4byte	.LASF28
 1214 0330 05       		.byte	0x5
 1215 0331 24       		.byte	0x24
 1216 0332 61010000 		.4byte	0x161
 1217 0336 05       		.uleb128 0x5
 1218 0337 03       		.byte	0x3
 1219 0338 00000000 		.4byte	data
 1220 033c 0B       		.uleb128 0xb
 1221 033d AD000000 		.4byte	0xad
 1222 0341 4C030000 		.4byte	0x34c
 1223 0345 0C       		.uleb128 0xc
ARM GAS  C:\Users\Perro\AppData\Local\Temp\ccUR568Z.s 			page 28


 1224 0346 F7000000 		.4byte	0xf7
 1225 034a C7       		.byte	0xc7
 1226 034b 00       		.byte	0
 1227 034c 17       		.uleb128 0x17
 1228 034d F4020000 		.4byte	.LASF45
 1229 0351 07       		.byte	0x7
 1230 0352 1C       		.byte	0x1c
 1231 0353 3C030000 		.4byte	0x33c
 1232 0357 05       		.uleb128 0x5
 1233 0358 03       		.byte	0x3
 1234 0359 00000000 		.4byte	an_x
 1235 035d 17       		.uleb128 0x17
 1236 035e F9020000 		.4byte	.LASF46
 1237 0362 07       		.byte	0x7
 1238 0363 1D       		.byte	0x1d
 1239 0364 3C030000 		.4byte	0x33c
 1240 0368 05       		.uleb128 0x5
 1241 0369 03       		.byte	0x3
 1242 036a 00000000 		.4byte	an_y
 1243 036e 17       		.uleb128 0x17
 1244 036f BA020000 		.4byte	.LASF47
 1245 0373 08       		.byte	0x8
 1246 0374 0F       		.byte	0xf
 1247 0375 CF000000 		.4byte	0xcf
 1248 0379 05       		.uleb128 0x5
 1249 037a 03       		.byte	0x3
 1250 037b 00000000 		.4byte	ADC_range
 1251 037f 17       		.uleb128 0x17
 1252 0380 08000000 		.4byte	.LASF48
 1253 0384 08       		.byte	0x8
 1254 0385 10       		.byte	0x10
 1255 0386 CF000000 		.4byte	0xcf
 1256 038a 05       		.uleb128 0x5
 1257 038b 03       		.byte	0x3
 1258 038c 00000000 		.4byte	Samples
 1259 0390 17       		.uleb128 0x17
 1260 0391 26030000 		.4byte	.LASF49
 1261 0395 08       		.byte	0x8
 1262 0396 11       		.byte	0x11
 1263 0397 CF000000 		.4byte	0xcf
 1264 039b 05       		.uleb128 0x5
 1265 039c 03       		.byte	0x3
 1266 039d 00000000 		.4byte	Pulse_width
 1267 03a1 17       		.uleb128 0x17
 1268 03a2 13010000 		.4byte	.LASF50
 1269 03a6 08       		.byte	0x8
 1270 03a7 12       		.byte	0x12
 1271 03a8 CF000000 		.4byte	0xcf
 1272 03ac 05       		.uleb128 0x5
 1273 03ad 03       		.byte	0x3
 1274 03ae 00000000 		.4byte	Pulse_amp
 1275 03b2 17       		.uleb128 0x17
 1276 03b3 13020000 		.4byte	.LASF51
 1277 03b7 08       		.byte	0x8
 1278 03b8 13       		.byte	0x13
 1279 03b9 CF000000 		.4byte	0xcf
 1280 03bd 05       		.uleb128 0x5
ARM GAS  C:\Users\Perro\AppData\Local\Temp\ccUR568Z.s 			page 29


 1281 03be 03       		.byte	0x3
 1282 03bf 00000000 		.4byte	Average
 1283 03c3 17       		.uleb128 0x17
 1284 03c4 F6000000 		.4byte	.LASF52
 1285 03c8 08       		.byte	0x8
 1286 03c9 14       		.byte	0x14
 1287 03ca C3000000 		.4byte	0xc3
 1288 03ce 05       		.uleb128 0x5
 1289 03cf 03       		.byte	0x3
 1290 03d0 00000000 		.4byte	flag_ADC
 1291 03d4 17       		.uleb128 0x17
 1292 03d5 00000000 		.4byte	.LASF53
 1293 03d9 08       		.byte	0x8
 1294 03da 15       		.byte	0x15
 1295 03db C3000000 		.4byte	0xc3
 1296 03df 05       		.uleb128 0x5
 1297 03e0 03       		.byte	0x3
 1298 03e1 00000000 		.4byte	flag_PW
 1299 03e5 17       		.uleb128 0x17
 1300 03e6 0B030000 		.4byte	.LASF54
 1301 03ea 08       		.byte	0x8
 1302 03eb 16       		.byte	0x16
 1303 03ec C3000000 		.4byte	0xc3
 1304 03f0 05       		.uleb128 0x5
 1305 03f1 03       		.byte	0x3
 1306 03f2 00000000 		.4byte	flag_PA
 1307 03f6 17       		.uleb128 0x17
 1308 03f7 B2020000 		.4byte	.LASF55
 1309 03fb 08       		.byte	0x8
 1310 03fc 17       		.byte	0x17
 1311 03fd C3000000 		.4byte	0xc3
 1312 0401 05       		.uleb128 0x5
 1313 0402 03       		.byte	0x3
 1314 0403 00000000 		.4byte	flag_SR
 1315 0407 17       		.uleb128 0x17
 1316 0408 01020000 		.4byte	.LASF56
 1317 040c 01       		.byte	0x1
 1318 040d 2C       		.byte	0x2c
 1319 040e A2000000 		.4byte	0xa2
 1320 0412 05       		.uleb128 0x5
 1321 0413 03       		.byte	0x3
 1322 0414 00000000 		.4byte	flag_temp
 1323 0418 17       		.uleb128 0x17
 1324 0419 DB020000 		.4byte	.LASF57
 1325 041d 01       		.byte	0x1
 1326 041e 2D       		.byte	0x2d
 1327 041f A2000000 		.4byte	0xa2
 1328 0423 05       		.uleb128 0x5
 1329 0424 03       		.byte	0x3
 1330 0425 00000000 		.4byte	flag_1s
 1331 0429 17       		.uleb128 0x17
 1332 042a 57020000 		.4byte	.LASF58
 1333 042e 01       		.byte	0x1
 1334 042f 2E       		.byte	0x2e
 1335 0430 3A040000 		.4byte	0x43a
 1336 0434 05       		.uleb128 0x5
 1337 0435 03       		.byte	0x3
ARM GAS  C:\Users\Perro\AppData\Local\Temp\ccUR568Z.s 			page 30


 1338 0436 00000000 		.4byte	gotInterrupt
 1339 043a 16       		.uleb128 0x16
 1340 043b 89000000 		.4byte	0x89
 1341 043f 18       		.uleb128 0x18
 1342 0440 6A00     		.ascii	"j\000"
 1343 0442 01       		.byte	0x1
 1344 0443 2F       		.byte	0x2f
 1345 0444 A2000000 		.4byte	0xa2
 1346 0448 05       		.uleb128 0x5
 1347 0449 03       		.byte	0x3
 1348 044a 00000000 		.4byte	j
 1349 044e 17       		.uleb128 0x17
 1350 044f C8000000 		.4byte	.LASF59
 1351 0453 01       		.byte	0x1
 1352 0454 30       		.byte	0x30
 1353 0455 C3000000 		.4byte	0xc3
 1354 0459 05       		.uleb128 0x5
 1355 045a 03       		.byte	0x3
 1356 045b 00000000 		.4byte	flag_start
 1357 045f 00       		.byte	0
 1358              		.section	.debug_abbrev,"",%progbits
 1359              	.Ldebug_abbrev0:
 1360 0000 01       		.uleb128 0x1
 1361 0001 11       		.uleb128 0x11
 1362 0002 01       		.byte	0x1
 1363 0003 25       		.uleb128 0x25
 1364 0004 0E       		.uleb128 0xe
 1365 0005 13       		.uleb128 0x13
 1366 0006 0B       		.uleb128 0xb
 1367 0007 03       		.uleb128 0x3
 1368 0008 0E       		.uleb128 0xe
 1369 0009 1B       		.uleb128 0x1b
 1370 000a 0E       		.uleb128 0xe
 1371 000b 55       		.uleb128 0x55
 1372 000c 17       		.uleb128 0x17
 1373 000d 11       		.uleb128 0x11
 1374 000e 01       		.uleb128 0x1
 1375 000f 10       		.uleb128 0x10
 1376 0010 17       		.uleb128 0x17
 1377 0011 00       		.byte	0
 1378 0012 00       		.byte	0
 1379 0013 02       		.uleb128 0x2
 1380 0014 16       		.uleb128 0x16
 1381 0015 00       		.byte	0
 1382 0016 03       		.uleb128 0x3
 1383 0017 0E       		.uleb128 0xe
 1384 0018 3A       		.uleb128 0x3a
 1385 0019 0B       		.uleb128 0xb
 1386 001a 3B       		.uleb128 0x3b
 1387 001b 0B       		.uleb128 0xb
 1388 001c 49       		.uleb128 0x49
 1389 001d 13       		.uleb128 0x13
 1390 001e 00       		.byte	0
 1391 001f 00       		.byte	0
 1392 0020 03       		.uleb128 0x3
 1393 0021 24       		.uleb128 0x24
 1394 0022 00       		.byte	0
ARM GAS  C:\Users\Perro\AppData\Local\Temp\ccUR568Z.s 			page 31


 1395 0023 0B       		.uleb128 0xb
 1396 0024 0B       		.uleb128 0xb
 1397 0025 3E       		.uleb128 0x3e
 1398 0026 0B       		.uleb128 0xb
 1399 0027 03       		.uleb128 0x3
 1400 0028 0E       		.uleb128 0xe
 1401 0029 00       		.byte	0
 1402 002a 00       		.byte	0
 1403 002b 04       		.uleb128 0x4
 1404 002c 24       		.uleb128 0x24
 1405 002d 00       		.byte	0
 1406 002e 0B       		.uleb128 0xb
 1407 002f 0B       		.uleb128 0xb
 1408 0030 3E       		.uleb128 0x3e
 1409 0031 0B       		.uleb128 0xb
 1410 0032 03       		.uleb128 0x3
 1411 0033 08       		.uleb128 0x8
 1412 0034 00       		.byte	0
 1413 0035 00       		.byte	0
 1414 0036 05       		.uleb128 0x5
 1415 0037 16       		.uleb128 0x16
 1416 0038 00       		.byte	0
 1417 0039 03       		.uleb128 0x3
 1418 003a 0E       		.uleb128 0xe
 1419 003b 3A       		.uleb128 0x3a
 1420 003c 0B       		.uleb128 0xb
 1421 003d 3B       		.uleb128 0x3b
 1422 003e 05       		.uleb128 0x5
 1423 003f 49       		.uleb128 0x49
 1424 0040 13       		.uleb128 0x13
 1425 0041 00       		.byte	0
 1426 0042 00       		.byte	0
 1427 0043 06       		.uleb128 0x6
 1428 0044 0F       		.uleb128 0xf
 1429 0045 00       		.byte	0
 1430 0046 0B       		.uleb128 0xb
 1431 0047 0B       		.uleb128 0xb
 1432 0048 49       		.uleb128 0x49
 1433 0049 13       		.uleb128 0x13
 1434 004a 00       		.byte	0
 1435 004b 00       		.byte	0
 1436 004c 07       		.uleb128 0x7
 1437 004d 26       		.uleb128 0x26
 1438 004e 00       		.byte	0
 1439 004f 49       		.uleb128 0x49
 1440 0050 13       		.uleb128 0x13
 1441 0051 00       		.byte	0
 1442 0052 00       		.byte	0
 1443 0053 08       		.uleb128 0x8
 1444 0054 13       		.uleb128 0x13
 1445 0055 01       		.byte	0x1
 1446 0056 0B       		.uleb128 0xb
 1447 0057 05       		.uleb128 0x5
 1448 0058 3A       		.uleb128 0x3a
 1449 0059 0B       		.uleb128 0xb
 1450 005a 3B       		.uleb128 0x3b
 1451 005b 0B       		.uleb128 0xb
ARM GAS  C:\Users\Perro\AppData\Local\Temp\ccUR568Z.s 			page 32


 1452 005c 01       		.uleb128 0x1
 1453 005d 13       		.uleb128 0x13
 1454 005e 00       		.byte	0
 1455 005f 00       		.byte	0
 1456 0060 09       		.uleb128 0x9
 1457 0061 0D       		.uleb128 0xd
 1458 0062 00       		.byte	0
 1459 0063 03       		.uleb128 0x3
 1460 0064 08       		.uleb128 0x8
 1461 0065 3A       		.uleb128 0x3a
 1462 0066 0B       		.uleb128 0xb
 1463 0067 3B       		.uleb128 0x3b
 1464 0068 0B       		.uleb128 0xb
 1465 0069 49       		.uleb128 0x49
 1466 006a 13       		.uleb128 0x13
 1467 006b 38       		.uleb128 0x38
 1468 006c 0B       		.uleb128 0xb
 1469 006d 00       		.byte	0
 1470 006e 00       		.byte	0
 1471 006f 0A       		.uleb128 0xa
 1472 0070 0D       		.uleb128 0xd
 1473 0071 00       		.byte	0
 1474 0072 03       		.uleb128 0x3
 1475 0073 0E       		.uleb128 0xe
 1476 0074 3A       		.uleb128 0x3a
 1477 0075 0B       		.uleb128 0xb
 1478 0076 3B       		.uleb128 0x3b
 1479 0077 0B       		.uleb128 0xb
 1480 0078 49       		.uleb128 0x49
 1481 0079 13       		.uleb128 0x13
 1482 007a 38       		.uleb128 0x38
 1483 007b 05       		.uleb128 0x5
 1484 007c 00       		.byte	0
 1485 007d 00       		.byte	0
 1486 007e 0B       		.uleb128 0xb
 1487 007f 01       		.uleb128 0x1
 1488 0080 01       		.byte	0x1
 1489 0081 49       		.uleb128 0x49
 1490 0082 13       		.uleb128 0x13
 1491 0083 01       		.uleb128 0x1
 1492 0084 13       		.uleb128 0x13
 1493 0085 00       		.byte	0
 1494 0086 00       		.byte	0
 1495 0087 0C       		.uleb128 0xc
 1496 0088 21       		.uleb128 0x21
 1497 0089 00       		.byte	0
 1498 008a 49       		.uleb128 0x49
 1499 008b 13       		.uleb128 0x13
 1500 008c 2F       		.uleb128 0x2f
 1501 008d 0B       		.uleb128 0xb
 1502 008e 00       		.byte	0
 1503 008f 00       		.byte	0
 1504 0090 0D       		.uleb128 0xd
 1505 0091 2E       		.uleb128 0x2e
 1506 0092 01       		.byte	0x1
 1507 0093 3F       		.uleb128 0x3f
 1508 0094 19       		.uleb128 0x19
ARM GAS  C:\Users\Perro\AppData\Local\Temp\ccUR568Z.s 			page 33


 1509 0095 03       		.uleb128 0x3
 1510 0096 0E       		.uleb128 0xe
 1511 0097 3A       		.uleb128 0x3a
 1512 0098 0B       		.uleb128 0xb
 1513 0099 3B       		.uleb128 0x3b
 1514 009a 0B       		.uleb128 0xb
 1515 009b 27       		.uleb128 0x27
 1516 009c 19       		.uleb128 0x19
 1517 009d 49       		.uleb128 0x49
 1518 009e 13       		.uleb128 0x13
 1519 009f 11       		.uleb128 0x11
 1520 00a0 01       		.uleb128 0x1
 1521 00a1 12       		.uleb128 0x12
 1522 00a2 06       		.uleb128 0x6
 1523 00a3 40       		.uleb128 0x40
 1524 00a4 18       		.uleb128 0x18
 1525 00a5 9642     		.uleb128 0x2116
 1526 00a7 19       		.uleb128 0x19
 1527 00a8 01       		.uleb128 0x1
 1528 00a9 13       		.uleb128 0x13
 1529 00aa 00       		.byte	0
 1530 00ab 00       		.byte	0
 1531 00ac 0E       		.uleb128 0xe
 1532 00ad 34       		.uleb128 0x34
 1533 00ae 00       		.byte	0
 1534 00af 03       		.uleb128 0x3
 1535 00b0 0E       		.uleb128 0xe
 1536 00b1 3A       		.uleb128 0x3a
 1537 00b2 0B       		.uleb128 0xb
 1538 00b3 3B       		.uleb128 0x3b
 1539 00b4 0B       		.uleb128 0xb
 1540 00b5 49       		.uleb128 0x49
 1541 00b6 13       		.uleb128 0x13
 1542 00b7 02       		.uleb128 0x2
 1543 00b8 18       		.uleb128 0x18
 1544 00b9 00       		.byte	0
 1545 00ba 00       		.byte	0
 1546 00bb 0F       		.uleb128 0xf
 1547 00bc 34       		.uleb128 0x34
 1548 00bd 00       		.byte	0
 1549 00be 03       		.uleb128 0x3
 1550 00bf 08       		.uleb128 0x8
 1551 00c0 3A       		.uleb128 0x3a
 1552 00c1 0B       		.uleb128 0xb
 1553 00c2 3B       		.uleb128 0x3b
 1554 00c3 0B       		.uleb128 0xb
 1555 00c4 49       		.uleb128 0x49
 1556 00c5 13       		.uleb128 0x13
 1557 00c6 02       		.uleb128 0x2
 1558 00c7 18       		.uleb128 0x18
 1559 00c8 00       		.byte	0
 1560 00c9 00       		.byte	0
 1561 00ca 10       		.uleb128 0x10
 1562 00cb 0B       		.uleb128 0xb
 1563 00cc 01       		.byte	0x1
 1564 00cd 11       		.uleb128 0x11
 1565 00ce 01       		.uleb128 0x1
ARM GAS  C:\Users\Perro\AppData\Local\Temp\ccUR568Z.s 			page 34


 1566 00cf 12       		.uleb128 0x12
 1567 00d0 06       		.uleb128 0x6
 1568 00d1 01       		.uleb128 0x1
 1569 00d2 13       		.uleb128 0x13
 1570 00d3 00       		.byte	0
 1571 00d4 00       		.byte	0
 1572 00d5 11       		.uleb128 0x11
 1573 00d6 0B       		.uleb128 0xb
 1574 00d7 01       		.byte	0x1
 1575 00d8 11       		.uleb128 0x11
 1576 00d9 01       		.uleb128 0x1
 1577 00da 12       		.uleb128 0x12
 1578 00db 06       		.uleb128 0x6
 1579 00dc 00       		.byte	0
 1580 00dd 00       		.byte	0
 1581 00de 12       		.uleb128 0x12
 1582 00df 15       		.uleb128 0x15
 1583 00e0 01       		.byte	0x1
 1584 00e1 27       		.uleb128 0x27
 1585 00e2 19       		.uleb128 0x19
 1586 00e3 01       		.uleb128 0x1
 1587 00e4 13       		.uleb128 0x13
 1588 00e5 00       		.byte	0
 1589 00e6 00       		.byte	0
 1590 00e7 13       		.uleb128 0x13
 1591 00e8 05       		.uleb128 0x5
 1592 00e9 00       		.byte	0
 1593 00ea 49       		.uleb128 0x49
 1594 00eb 13       		.uleb128 0x13
 1595 00ec 00       		.byte	0
 1596 00ed 00       		.byte	0
 1597 00ee 14       		.uleb128 0x14
 1598 00ef 2E       		.uleb128 0x2e
 1599 00f0 00       		.byte	0
 1600 00f1 3F       		.uleb128 0x3f
 1601 00f2 19       		.uleb128 0x19
 1602 00f3 03       		.uleb128 0x3
 1603 00f4 0E       		.uleb128 0xe
 1604 00f5 3A       		.uleb128 0x3a
 1605 00f6 0B       		.uleb128 0xb
 1606 00f7 3B       		.uleb128 0x3b
 1607 00f8 05       		.uleb128 0x5
 1608 00f9 27       		.uleb128 0x27
 1609 00fa 19       		.uleb128 0x19
 1610 00fb 11       		.uleb128 0x11
 1611 00fc 01       		.uleb128 0x1
 1612 00fd 12       		.uleb128 0x12
 1613 00fe 06       		.uleb128 0x6
 1614 00ff 40       		.uleb128 0x40
 1615 0100 18       		.uleb128 0x18
 1616 0101 9642     		.uleb128 0x2116
 1617 0103 19       		.uleb128 0x19
 1618 0104 00       		.byte	0
 1619 0105 00       		.byte	0
 1620 0106 15       		.uleb128 0x15
 1621 0107 34       		.uleb128 0x34
 1622 0108 00       		.byte	0
ARM GAS  C:\Users\Perro\AppData\Local\Temp\ccUR568Z.s 			page 35


 1623 0109 03       		.uleb128 0x3
 1624 010a 0E       		.uleb128 0xe
 1625 010b 3A       		.uleb128 0x3a
 1626 010c 0B       		.uleb128 0xb
 1627 010d 3B       		.uleb128 0x3b
 1628 010e 05       		.uleb128 0x5
 1629 010f 49       		.uleb128 0x49
 1630 0110 13       		.uleb128 0x13
 1631 0111 3F       		.uleb128 0x3f
 1632 0112 19       		.uleb128 0x19
 1633 0113 3C       		.uleb128 0x3c
 1634 0114 19       		.uleb128 0x19
 1635 0115 00       		.byte	0
 1636 0116 00       		.byte	0
 1637 0117 16       		.uleb128 0x16
 1638 0118 35       		.uleb128 0x35
 1639 0119 00       		.byte	0
 1640 011a 49       		.uleb128 0x49
 1641 011b 13       		.uleb128 0x13
 1642 011c 00       		.byte	0
 1643 011d 00       		.byte	0
 1644 011e 17       		.uleb128 0x17
 1645 011f 34       		.uleb128 0x34
 1646 0120 00       		.byte	0
 1647 0121 03       		.uleb128 0x3
 1648 0122 0E       		.uleb128 0xe
 1649 0123 3A       		.uleb128 0x3a
 1650 0124 0B       		.uleb128 0xb
 1651 0125 3B       		.uleb128 0x3b
 1652 0126 0B       		.uleb128 0xb
 1653 0127 49       		.uleb128 0x49
 1654 0128 13       		.uleb128 0x13
 1655 0129 3F       		.uleb128 0x3f
 1656 012a 19       		.uleb128 0x19
 1657 012b 02       		.uleb128 0x2
 1658 012c 18       		.uleb128 0x18
 1659 012d 00       		.byte	0
 1660 012e 00       		.byte	0
 1661 012f 18       		.uleb128 0x18
 1662 0130 34       		.uleb128 0x34
 1663 0131 00       		.byte	0
 1664 0132 03       		.uleb128 0x3
 1665 0133 08       		.uleb128 0x8
 1666 0134 3A       		.uleb128 0x3a
 1667 0135 0B       		.uleb128 0xb
 1668 0136 3B       		.uleb128 0x3b
 1669 0137 0B       		.uleb128 0xb
 1670 0138 49       		.uleb128 0x49
 1671 0139 13       		.uleb128 0x13
 1672 013a 3F       		.uleb128 0x3f
 1673 013b 19       		.uleb128 0x19
 1674 013c 02       		.uleb128 0x2
 1675 013d 18       		.uleb128 0x18
 1676 013e 00       		.byte	0
 1677 013f 00       		.byte	0
 1678 0140 00       		.byte	0
 1679              		.section	.debug_aranges,"",%progbits
ARM GAS  C:\Users\Perro\AppData\Local\Temp\ccUR568Z.s 			page 36


 1680 0000 24000000 		.4byte	0x24
 1681 0004 0200     		.2byte	0x2
 1682 0006 00000000 		.4byte	.Ldebug_info0
 1683 000a 04       		.byte	0x4
 1684 000b 00       		.byte	0
 1685 000c 0000     		.2byte	0
 1686 000e 0000     		.2byte	0
 1687 0010 00000000 		.4byte	.LFB64
 1688 0014 44050000 		.4byte	.LFE64-.LFB64
 1689 0018 00000000 		.4byte	.LFB65
 1690 001c 2C000000 		.4byte	.LFE65-.LFB65
 1691 0020 00000000 		.4byte	0
 1692 0024 00000000 		.4byte	0
 1693              		.section	.debug_ranges,"",%progbits
 1694              	.Ldebug_ranges0:
 1695 0000 00000000 		.4byte	.LFB64
 1696 0004 44050000 		.4byte	.LFE64
 1697 0008 00000000 		.4byte	.LFB65
 1698 000c 2C000000 		.4byte	.LFE65
 1699 0010 00000000 		.4byte	0
 1700 0014 00000000 		.4byte	0
 1701              		.section	.debug_line,"",%progbits
 1702              	.Ldebug_line0:
 1703 0000 62020000 		.section	.debug_str,"MS",%progbits,1
 1703      02007C01 
 1703      00000201 
 1703      FB0E0D00 
 1703      01010101 
 1704              	.LASF53:
 1705 0000 666C6167 		.ascii	"flag_PW\000"
 1705      5F505700 
 1706              	.LASF48:
 1707 0008 53616D70 		.ascii	"Samples\000"
 1707      6C657300 
 1708              	.LASF13:
 1709 0010 696E7438 		.ascii	"int8_t\000"
 1709      5F7400
 1710              	.LASF4:
 1711 0017 73686F72 		.ascii	"short int\000"
 1711      7420696E 
 1711      7400
 1712              	.LASF23:
 1713 0021 73697A65 		.ascii	"sizetype\000"
 1713      74797065 
 1713      00
 1714              	.LASF60:
 1715 002a 474E5520 		.ascii	"GNU C11 5.4.1 20160609 (release) [ARM/embedded-5-br"
 1715      43313120 
 1715      352E342E 
 1715      31203230 
 1715      31363036 
 1716 005d 616E6368 		.ascii	"anch revision 237715] -mcpu=cortex-m3 -mthumb -g -O"
 1716      20726576 
 1716      6973696F 
 1716      6E203233 
 1716      37373135 
 1717 0090 30202D66 		.ascii	"0 -ffunction-sections -ffat-lto-objects\000"
ARM GAS  C:\Users\Perro\AppData\Local\Temp\ccUR568Z.s 			page 37


 1717      66756E63 
 1717      74696F6E 
 1717      2D736563 
 1717      74696F6E 
 1718              	.LASF63:
 1719 00b8 6D61696E 		.ascii	"main\000"
 1719      00
 1720              	.LASF8:
 1721 00bd 5F5F7569 		.ascii	"__uint32_t\000"
 1721      6E743332 
 1721      5F7400
 1722              	.LASF59:
 1723 00c8 666C6167 		.ascii	"flag_start\000"
 1723      5F737461 
 1723      727400
 1724              	.LASF25:
 1725 00d3 68656164 		.ascii	"head\000"
 1725      00
 1726              	.LASF35:
 1727 00d8 76616C69 		.ascii	"validHeartRate\000"
 1727      64486561 
 1727      72745261 
 1727      746500
 1728              	.LASF36:
 1729 00e7 69724275 		.ascii	"irBuffer\000"
 1729      66666572 
 1729      00
 1730              	.LASF17:
 1731 00f0 75696E74 		.ascii	"uint8\000"
 1731      3800
 1732              	.LASF52:
 1733 00f6 666C6167 		.ascii	"flag_ADC\000"
 1733      5F414443 
 1733      00
 1734              	.LASF19:
 1735 00ff 666C6F61 		.ascii	"float\000"
 1735      7400
 1736              	.LASF10:
 1737 0105 6C6F6E67 		.ascii	"long long int\000"
 1737      206C6F6E 
 1737      6720696E 
 1737      7400
 1738              	.LASF50:
 1739 0113 50756C73 		.ascii	"Pulse_amp\000"
 1739      655F616D 
 1739      7000
 1740              	.LASF38:
 1741 011d 62756666 		.ascii	"bufferLength\000"
 1741      65724C65 
 1741      6E677468 
 1741      00
 1742              	.LASF1:
 1743 012a 5F5F7569 		.ascii	"__uint8_t\000"
 1743      6E74385F 
 1743      7400
 1744              	.LASF24:
 1745 0134 67726565 		.ascii	"green\000"
ARM GAS  C:\Users\Perro\AppData\Local\Temp\ccUR568Z.s 			page 38


 1745      6E00
 1746              	.LASF64:
 1747 013a 4D415833 		.ascii	"MAX30101_ISR\000"
 1747      30313031 
 1747      5F495352 
 1747      00
 1748              	.LASF22:
 1749 0147 6C6F6E67 		.ascii	"long double\000"
 1749      20646F75 
 1749      626C6500 
 1750              	.LASF42:
 1751 0153 7265765F 		.ascii	"rev_id\000"
 1751      696400
 1752              	.LASF62:
 1753 015a 433A5C55 		.ascii	"C:\\Users\\Perro\\Desktop\\AY2122_II_Project-1\\Pro"
 1753      73657273 
 1753      5C506572 
 1753      726F5C44 
 1753      65736B74 
 1754 0188 6A656374 		.ascii	"ject_LTEBS\\Saturimetro.cydsn\000"
 1754      5F4C5445 
 1754      42535C53 
 1754      61747572 
 1754      696D6574 
 1755              	.LASF34:
 1756 01a5 68656172 		.ascii	"heartRate\000"
 1756      74526174 
 1756      6500
 1757              	.LASF3:
 1758 01af 756E7369 		.ascii	"unsigned char\000"
 1758      676E6564 
 1758      20636861 
 1758      7200
 1759              	.LASF26:
 1760 01bd 7461696C 		.ascii	"tail\000"
 1760      00
 1761              	.LASF39:
 1762 01c2 736F6D6D 		.ascii	"somma\000"
 1762      6100
 1763              	.LASF2:
 1764 01c8 7369676E 		.ascii	"signed char\000"
 1764      65642063 
 1764      68617200 
 1765              	.LASF11:
 1766 01d4 6C6F6E67 		.ascii	"long long unsigned int\000"
 1766      206C6F6E 
 1766      6720756E 
 1766      7369676E 
 1766      65642069 
 1767              	.LASF16:
 1768 01eb 75696E74 		.ascii	"uint32_t\000"
 1768      33325F74 
 1768      00
 1769              	.LASF12:
 1770 01f4 756E7369 		.ascii	"unsigned int\000"
 1770      676E6564 
 1770      20696E74 
ARM GAS  C:\Users\Perro\AppData\Local\Temp\ccUR568Z.s 			page 39


 1770      00
 1771              	.LASF56:
 1772 0201 666C6167 		.ascii	"flag_temp\000"
 1772      5F74656D 
 1772      7000
 1773              	.LASF43:
 1774 020b 70617274 		.ascii	"part_id\000"
 1774      5F696400 
 1775              	.LASF51:
 1776 0213 41766572 		.ascii	"Average\000"
 1776      61676500 
 1777              	.LASF5:
 1778 021b 73686F72 		.ascii	"short unsigned int\000"
 1778      7420756E 
 1778      7369676E 
 1778      65642069 
 1778      6E7400
 1779              	.LASF0:
 1780 022e 5F5F696E 		.ascii	"__int8_t\000"
 1780      74385F74 
 1780      00
 1781              	.LASF21:
 1782 0237 63686172 		.ascii	"char\000"
 1782      00
 1783              	.LASF7:
 1784 023c 6C6F6E67 		.ascii	"long int\000"
 1784      20696E74 
 1784      00
 1785              	.LASF15:
 1786 0245 696E7433 		.ascii	"int32_t\000"
 1786      325F7400 
 1787              	.LASF33:
 1788 024d 76616C69 		.ascii	"validSPO2\000"
 1788      6453504F 
 1788      3200
 1789              	.LASF58:
 1790 0257 676F7449 		.ascii	"gotInterrupt\000"
 1790      6E746572 
 1790      72757074 
 1790      00
 1791              	.LASF28:
 1792 0264 64617461 		.ascii	"data\000"
 1792      00
 1793              	.LASF18:
 1794 0269 75696E74 		.ascii	"uint16\000"
 1794      313600
 1795              	.LASF61:
 1796 0270 6D61696E 		.ascii	"main.c\000"
 1796      2E6300
 1797              	.LASF9:
 1798 0277 6C6F6E67 		.ascii	"long unsigned int\000"
 1798      20756E73 
 1798      69676E65 
 1798      6420696E 
 1798      7400
 1799              	.LASF27:
 1800 0289 4D415833 		.ascii	"MAX30101_Data\000"
ARM GAS  C:\Users\Perro\AppData\Local\Temp\ccUR568Z.s 			page 40


 1800      30313031 
 1800      5F446174 
 1800      6100
 1801              	.LASF20:
 1802 0297 646F7562 		.ascii	"double\000"
 1802      6C6500
 1803              	.LASF29:
 1804 029e 7072696E 		.ascii	"print_ptr\000"
 1804      745F7074 
 1804      7200
 1805              	.LASF37:
 1806 02a8 72656442 		.ascii	"redBuffer\000"
 1806      75666665 
 1806      7200
 1807              	.LASF55:
 1808 02b2 666C6167 		.ascii	"flag_SR\000"
 1808      5F535200 
 1809              	.LASF47:
 1810 02ba 4144435F 		.ascii	"ADC_range\000"
 1810      72616E67 
 1810      6500
 1811              	.LASF6:
 1812 02c4 5F5F696E 		.ascii	"__int32_t\000"
 1812      7433325F 
 1812      7400
 1813              	.LASF14:
 1814 02ce 75696E74 		.ascii	"uint8_t\000"
 1814      385F7400 
 1815              	.LASF32:
 1816 02d6 73706F32 		.ascii	"spo2\000"
 1816      00
 1817              	.LASF57:
 1818 02db 666C6167 		.ascii	"flag_1s\000"
 1818      5F317300 
 1819              	.LASF30:
 1820 02e3 61637469 		.ascii	"active_leds\000"
 1820      76655F6C 
 1820      65647300 
 1821              	.LASF31:
 1822 02ef 666C6167 		.ascii	"flag\000"
 1822      00
 1823              	.LASF45:
 1824 02f4 616E5F78 		.ascii	"an_x\000"
 1824      00
 1825              	.LASF46:
 1826 02f9 616E5F79 		.ascii	"an_y\000"
 1826      00
 1827              	.LASF44:
 1828 02fe 49544D5F 		.ascii	"ITM_RxBuffer\000"
 1828      52784275 
 1828      66666572 
 1828      00
 1829              	.LASF54:
 1830 030b 666C6167 		.ascii	"flag_PA\000"
 1830      5F504100 
 1831              	.LASF40:
 1832 0313 6176675F 		.ascii	"avg_hr\000"
ARM GAS  C:\Users\Perro\AppData\Local\Temp\ccUR568Z.s 			page 41


 1832      687200
 1833              	.LASF41:
 1834 031a 6E756D5F 		.ascii	"num_samples\000"
 1834      73616D70 
 1834      6C657300 
 1835              	.LASF49:
 1836 0326 50756C73 		.ascii	"Pulse_width\000"
 1836      655F7769 
 1836      64746800 
 1837              		.ident	"GCC: (GNU Tools for ARM Embedded Processors) 5.4.1 20160609 (release) [ARM/embedded-5-bran
