ARM GAS  C:\Users\Perro\AppData\Local\Temp\ccDnyon7.s 			page 1


   1              		.syntax unified
   2              		.cpu cortex-m3
   3              		.fpu softvfp
   4              		.eabi_attribute 20, 1
   5              		.eabi_attribute 21, 1
   6              		.eabi_attribute 23, 3
   7              		.eabi_attribute 24, 1
   8              		.eabi_attribute 25, 1
   9              		.eabi_attribute 26, 1
  10              		.eabi_attribute 30, 6
  11              		.eabi_attribute 34, 1
  12              		.eabi_attribute 18, 4
  13              		.thumb
  14              		.syntax unified
  15              		.file	"MAX30101.c"
  16              		.text
  17              	.Ltext0:
  18              		.cfi_sections	.debug_frame
  19              		.comm	data,388,4
  20              		.section	.text.MAX30101_Start,"ax",%progbits
  21              		.align	2
  22              		.global	MAX30101_Start
  23              		.thumb
  24              		.thumb_func
  25              		.type	MAX30101_Start, %function
  26              	MAX30101_Start:
  27              	.LFB64:
  28              		.file 1 "MAX30101.c"
   1:MAX30101.c    **** /**
   2:MAX30101.c    **** *   Source file for the MAX30101 library.
   3:MAX30101.c    **** */
   4:MAX30101.c    **** 
   5:MAX30101.c    **** #include "I2C_Interface.h"
   6:MAX30101.c    **** #include "I2C_Master.h"
   7:MAX30101.c    **** #include "MAX30101.h"
   8:MAX30101.c    **** #include "string.h"
   9:MAX30101.c    **** #include "stdio.h"
  10:MAX30101.c    **** #include "project.h"
  11:MAX30101.c    **** #include "isr.h"
  12:MAX30101.c    **** 
  13:MAX30101.c    **** //==============================================
  14:MAX30101.c    **** //          MACROS
  15:MAX30101.c    **** //==============================================
  16:MAX30101.c    **** 
  17:MAX30101.c    **** /**
  18:MAX30101.c    **** *   \brief Mask for Power Ready interrupt.
  19:MAX30101.c    **** */
  20:MAX30101.c    **** #define MAX30101_INT_PWR_RDY_MASK   0xFE
  21:MAX30101.c    **** 
  22:MAX30101.c    **** /**
  23:MAX30101.c    **** *   \brief Mask for FIFO A FULL interrupt.
  24:MAX30101.c    **** */
  25:MAX30101.c    **** #define MAX30101_INT_FIFO_A_FULL_MASK   0x7F
  26:MAX30101.c    **** 
  27:MAX30101.c    **** /**
  28:MAX30101.c    **** *   \brief Enable FIFO A FULL interrupt.
  29:MAX30101.c    **** */
ARM GAS  C:\Users\Perro\AppData\Local\Temp\ccDnyon7.s 			page 2


  30:MAX30101.c    **** #define MAX30101_INT_FIFO_A_FULL_ENABLE 0x80
  31:MAX30101.c    **** 
  32:MAX30101.c    **** /**
  33:MAX30101.c    **** *   \brief Disable FIFO A FULL interrupt.
  34:MAX30101.c    **** */
  35:MAX30101.c    **** #define MAX30101_INT_FIFO_A_FULL_DISABLE 0x00
  36:MAX30101.c    **** 
  37:MAX30101.c    **** /**
  38:MAX30101.c    **** *   \brief Mask for PPG ready interrupt.
  39:MAX30101.c    **** */
  40:MAX30101.c    **** #define MAX30101_INT_PPG_RDY_MASK     0xBF
  41:MAX30101.c    **** 
  42:MAX30101.c    **** /**
  43:MAX30101.c    **** *   \brief Enable PPG ready interrupt.
  44:MAX30101.c    **** */
  45:MAX30101.c    **** #define MAX30101_INT_PPG_RDY_ENABLE 0x40
  46:MAX30101.c    **** 
  47:MAX30101.c    **** /**
  48:MAX30101.c    **** *   \brief Disable PPG ready interrupt.
  49:MAX30101.c    **** */
  50:MAX30101.c    **** #define MAX30101_INT_PPG_RDY_DISABLE 0x00
  51:MAX30101.c    **** 
  52:MAX30101.c    **** /**
  53:MAX30101.c    **** *   \brief Mask for FIFO overflow interrupt.
  54:MAX30101.c    **** */
  55:MAX30101.c    **** #define MAX30101_INT_ALC_OVF_MASK     0xDF
  56:MAX30101.c    **** 
  57:MAX30101.c    **** /**
  58:MAX30101.c    **** *   \brief Enable OVERFLOW interrupt.
  59:MAX30101.c    **** */
  60:MAX30101.c    **** #define MAX30101_INT_ALC_OVF_ENABLE 0x20
  61:MAX30101.c    **** 
  62:MAX30101.c    **** /**
  63:MAX30101.c    **** *   \brief Disable OVERFLOW interrupt.
  64:MAX30101.c    **** */
  65:MAX30101.c    **** #define MAX30101_INT_ALC_OVF_DISABLE 0x00
  66:MAX30101.c    **** 
  67:MAX30101.c    **** /**
  68:MAX30101.c    **** *   \brief Mask for temperature data ready interrupt.
  69:MAX30101.c    **** */
  70:MAX30101.c    **** #define MAX30101_INT_TMP_RDY_MASK     0xFD
  71:MAX30101.c    **** 
  72:MAX30101.c    **** /**
  73:MAX30101.c    **** *   \brief Enable temperature ready interrupt.
  74:MAX30101.c    **** */
  75:MAX30101.c    **** #define MAX30101_INT_TMP_RDY_ENABLE 0x02
  76:MAX30101.c    **** 
  77:MAX30101.c    **** /**
  78:MAX30101.c    **** *   \brief Disable temperature ready interrupt.
  79:MAX30101.c    **** */
  80:MAX30101.c    **** #define MAX30101_INT_TMP_RDY_DISABLE 0x00
  81:MAX30101.c    **** 
  82:MAX30101.c    **** /**
  83:MAX30101.c    **** *   \brief Mask for sample average settings.
  84:MAX30101.c    **** */
  85:MAX30101.c    **** #define MAX30101_SMP_AVG_MASK    0x1F
  86:MAX30101.c    **** 
ARM GAS  C:\Users\Perro\AppData\Local\Temp\ccDnyon7.s 			page 3


  87:MAX30101.c    **** /**
  88:MAX30101.c    **** *   \brief Mask for fifo rollover.
  89:MAX30101.c    **** */
  90:MAX30101.c    **** #define MAX30101_FIFO_ROLLOVER_MASK    0xEF
  91:MAX30101.c    **** 
  92:MAX30101.c    **** /**
  93:MAX30101.c    **** *   \brief Mask for sample average settings.
  94:MAX30101.c    **** */
  95:MAX30101.c    **** #define MAX30101_FIFO_ROLLOVER_ENABLE    0x10
  96:MAX30101.c    **** 
  97:MAX30101.c    **** /**
  98:MAX30101.c    **** *   \brief Mask for sample average settings.
  99:MAX30101.c    **** */
 100:MAX30101.c    **** #define MAX30101_FIFO_ROLLOVER_DISABLE    0x00
 101:MAX30101.c    **** 
 102:MAX30101.c    **** /**
 103:MAX30101.c    **** *   \brief Mask for FIFO A Full samples.
 104:MAX30101.c    **** */
 105:MAX30101.c    **** #define MAX30101_FIFO_A_FULL_MASK   0xF0
 106:MAX30101.c    **** 
 107:MAX30101.c    **** /**
 108:MAX30101.c    **** *   \brief Mask for shutdown bit.
 109:MAX30101.c    **** */
 110:MAX30101.c    **** #define MAX30101_SHUTDOWN_MASK 0x7F
 111:MAX30101.c    **** 
 112:MAX30101.c    **** /**
 113:MAX30101.c    **** *   \brief Enable shutdown
 114:MAX30101.c    **** */
 115:MAX30101.c    **** #define MAX30101_SHUTDOWN_ENABLE 0x80
 116:MAX30101.c    **** 
 117:MAX30101.c    **** /**
 118:MAX30101.c    **** *   \brief Disable shutdown.
 119:MAX30101.c    **** */
 120:MAX30101.c    **** #define MAX30101_SHUTDOWN_DISABLE 0x00
 121:MAX30101.c    **** 
 122:MAX30101.c    **** /**
 123:MAX30101.c    **** *   \brief Reset bit mask.
 124:MAX30101.c    **** */
 125:MAX30101.c    **** #define MAX30101_RESET_MASK 0xBF
 126:MAX30101.c    **** 
 127:MAX30101.c    **** /**
 128:MAX30101.c    **** *   \brief Set reset bit.
 129:MAX30101.c    **** */
 130:MAX30101.c    **** #define MAX30101_RESET_ENABLE 0x40
 131:MAX30101.c    **** 
 132:MAX30101.c    **** /**
 133:MAX30101.c    **** *   \brief Mode mask.
 134:MAX30101.c    **** */
 135:MAX30101.c    **** #define MAX30101_MODE_MASK 0xF8
 136:MAX30101.c    **** 
 137:MAX30101.c    **** /**
 138:MAX30101.c    **** *   \brief SPO2 ADC Range mask.
 139:MAX30101.c    **** */
 140:MAX30101.c    **** #define MAX30101_SPO2_ADC_RANGE_MASK 0x9F 
 141:MAX30101.c    **** 
 142:MAX30101.c    **** /**
 143:MAX30101.c    **** *   \brief SPO2 Sample Rate mask.
ARM GAS  C:\Users\Perro\AppData\Local\Temp\ccDnyon7.s 			page 4


 144:MAX30101.c    **** */
 145:MAX30101.c    **** #define MAX30101_SPO2_SAMPLE_RATE_MASK 0xE3
 146:MAX30101.c    **** 
 147:MAX30101.c    **** /**
 148:MAX30101.c    **** *   \brief SPO2 Sample Rate mask.
 149:MAX30101.c    **** */
 150:MAX30101.c    **** #define MAX30101_SPO2_PULSEWIDTH_MASK 0xFC
 151:MAX30101.c    **** 
 152:MAX30101.c    **** /**
 153:MAX30101.c    **** *   \brief Multi-LED SLOT1 mask.
 154:MAX30101.c    **** */
 155:MAX30101.c    **** #define MAX30101_SLOT1_MASK  		0xF8
 156:MAX30101.c    **** 
 157:MAX30101.c    **** /**
 158:MAX30101.c    **** *   \brief Multi-LED SLOT2 mask.
 159:MAX30101.c    **** */
 160:MAX30101.c    **** #define MAX30101_SLOT2_MASK  		0x8F
 161:MAX30101.c    **** 
 162:MAX30101.c    **** /**
 163:MAX30101.c    **** *   \brief Multi-LED SLOT3 mask.
 164:MAX30101.c    **** */
 165:MAX30101.c    **** #define MAX30101_SLOT3_MASK  		0xF8
 166:MAX30101.c    **** 
 167:MAX30101.c    **** /**
 168:MAX30101.c    **** *   \brief Multi-LED SLOT4 mask.
 169:MAX30101.c    **** */
 170:MAX30101.c    **** #define MAX30101_SLOT4_MASK  		0x8F
 171:MAX30101.c    **** 
 172:MAX30101.c    **** #define MAX30101_SHIFT(resolution) 4-resolution
 173:MAX30101.c    **** 
 174:MAX30101.c    **** //==============================================
 175:MAX30101.c    **** //          FUNCTION PROTOTYPESS
 176:MAX30101.c    **** //==============================================
 177:MAX30101.c    **** 
 178:MAX30101.c    **** static uint8_t MAX30101_BitMask(uint8_t reg_addr, uint8_t mask, uint8_t thing);
 179:MAX30101.c    **** 
 180:MAX30101.c    **** static uint8_t MAX30101_WriteRegister(uint8_t reg_addr, uint8_t reg_data);
 181:MAX30101.c    **** 
 182:MAX30101.c    **** 
 183:MAX30101.c    **** // Start the device
 184:MAX30101.c    **** uint8_t MAX30101_Start(void)
 185:MAX30101.c    **** {
  29              		.loc 1 185 0
  30              		.cfi_startproc
  31              		@ args = 0, pretend = 0, frame = 0
  32              		@ frame_needed = 1, uses_anonymous_args = 0
  33 0000 80B5     		push	{r7, lr}
  34              		.cfi_def_cfa_offset 8
  35              		.cfi_offset 7, -8
  36              		.cfi_offset 14, -4
  37 0002 00AF     		add	r7, sp, #0
  38              		.cfi_def_cfa_register 7
 186:MAX30101.c    ****     I2C_Peripheral_Start();
  39              		.loc 1 186 0
  40 0004 FFF7FEFF 		bl	I2C_Peripheral_Start
 187:MAX30101.c    ****     return MAX30101_Reset();
  41              		.loc 1 187 0
ARM GAS  C:\Users\Perro\AppData\Local\Temp\ccDnyon7.s 			page 5


  42 0008 FFF7FEFF 		bl	MAX30101_Reset
  43 000c 0346     		mov	r3, r0
 188:MAX30101.c    **** }
  44              		.loc 1 188 0
  45 000e 1846     		mov	r0, r3
  46 0010 80BD     		pop	{r7, pc}
  47              		.cfi_endproc
  48              	.LFE64:
  49              		.size	MAX30101_Start, .-MAX30101_Start
  50 0012 00BF     		.section	.text.MAX30101_IsDevicePresent,"ax",%progbits
  51              		.align	2
  52              		.global	MAX30101_IsDevicePresent
  53              		.thumb
  54              		.thumb_func
  55              		.type	MAX30101_IsDevicePresent, %function
  56              	MAX30101_IsDevicePresent:
  57              	.LFB65:
 189:MAX30101.c    **** 
 190:MAX30101.c    **** // Check if device is present on I2C bus
 191:MAX30101.c    **** uint8_t MAX30101_IsDevicePresent(void)
 192:MAX30101.c    **** {
  58              		.loc 1 192 0
  59              		.cfi_startproc
  60              		@ args = 0, pretend = 0, frame = 0
  61              		@ frame_needed = 1, uses_anonymous_args = 0
  62 0000 80B5     		push	{r7, lr}
  63              		.cfi_def_cfa_offset 8
  64              		.cfi_offset 7, -8
  65              		.cfi_offset 14, -4
  66 0002 00AF     		add	r7, sp, #0
  67              		.cfi_def_cfa_register 7
 193:MAX30101.c    ****     if (I2C_Peripheral_IsDeviceConnected(MAX30101_I2C_ADDRESS) == I2C_NO_ERROR)
  68              		.loc 1 193 0
  69 0004 5720     		movs	r0, #87
  70 0006 FFF7FEFF 		bl	I2C_Peripheral_IsDeviceConnected
  71 000a 0346     		mov	r3, r0
  72 000c 002B     		cmp	r3, #0
  73 000e 01D1     		bne	.L4
 194:MAX30101.c    ****     {
 195:MAX30101.c    ****         return MAX30101_OK;
  74              		.loc 1 195 0
  75 0010 0023     		movs	r3, #0
  76 0012 00E0     		b	.L5
  77              	.L4:
 196:MAX30101.c    ****     }
 197:MAX30101.c    ****     
 198:MAX30101.c    ****     return MAX30101_DEV_NOT_FOUND;
  78              		.loc 1 198 0
  79 0014 0123     		movs	r3, #1
  80              	.L5:
 199:MAX30101.c    **** }
  81              		.loc 1 199 0
  82 0016 1846     		mov	r0, r3
  83 0018 80BD     		pop	{r7, pc}
  84              		.cfi_endproc
  85              	.LFE65:
  86              		.size	MAX30101_IsDevicePresent, .-MAX30101_IsDevicePresent
ARM GAS  C:\Users\Perro\AppData\Local\Temp\ccDnyon7.s 			page 6


  87 001a 00BF     		.section	.text.MAX30101_IsFIFOAFull,"ax",%progbits
  88              		.align	2
  89              		.global	MAX30101_IsFIFOAFull
  90              		.thumb
  91              		.thumb_func
  92              		.type	MAX30101_IsFIFOAFull, %function
  93              	MAX30101_IsFIFOAFull:
  94              	.LFB66:
 200:MAX30101.c    **** 
 201:MAX30101.c    **** //==============================================
 202:MAX30101.c    **** //          INTERRUPT RELATED FUNCTIONS
 203:MAX30101.c    **** //==============================================
 204:MAX30101.c    **** 
 205:MAX30101.c    **** // Check interrupt status
 206:MAX30101.c    **** uint8_t MAX30101_IsFIFOAFull(uint8_t* flag)
 207:MAX30101.c    **** {
  95              		.loc 1 207 0
  96              		.cfi_startproc
  97              		@ args = 0, pretend = 0, frame = 16
  98              		@ frame_needed = 1, uses_anonymous_args = 0
  99 0000 80B5     		push	{r7, lr}
 100              		.cfi_def_cfa_offset 8
 101              		.cfi_offset 7, -8
 102              		.cfi_offset 14, -4
 103 0002 84B0     		sub	sp, sp, #16
 104              		.cfi_def_cfa_offset 24
 105 0004 00AF     		add	r7, sp, #0
 106              		.cfi_def_cfa_register 7
 107 0006 7860     		str	r0, [r7, #4]
 208:MAX30101.c    ****     // Read register
 209:MAX30101.c    ****     uint8_t temp;
 210:MAX30101.c    ****     uint8_t error = MAX30101_ReadRegister(MAX30101_INT_ST_1, &temp);
 108              		.loc 1 210 0
 109 0008 07F10E03 		add	r3, r7, #14
 110 000c 1946     		mov	r1, r3
 111 000e 0020     		movs	r0, #0
 112 0010 FFF7FEFF 		bl	MAX30101_ReadRegister
 113 0014 0346     		mov	r3, r0
 114 0016 FB73     		strb	r3, [r7, #15]
 211:MAX30101.c    ****     *flag = temp & (~MAX30101_INT_FIFO_A_FULL_MASK);
 115              		.loc 1 211 0
 116 0018 BB7B     		ldrb	r3, [r7, #14]	@ zero_extendqisi2
 117 001a 23F07F03 		bic	r3, r3, #127
 118 001e DAB2     		uxtb	r2, r3
 119 0020 7B68     		ldr	r3, [r7, #4]
 120 0022 1A70     		strb	r2, [r3]
 212:MAX30101.c    ****     return error;
 121              		.loc 1 212 0
 122 0024 FB7B     		ldrb	r3, [r7, #15]	@ zero_extendqisi2
 213:MAX30101.c    **** }
 123              		.loc 1 213 0
 124 0026 1846     		mov	r0, r3
 125 0028 1037     		adds	r7, r7, #16
 126              		.cfi_def_cfa_offset 8
 127 002a BD46     		mov	sp, r7
 128              		.cfi_def_cfa_register 13
 129              		@ sp needed
ARM GAS  C:\Users\Perro\AppData\Local\Temp\ccDnyon7.s 			page 7


 130 002c 80BD     		pop	{r7, pc}
 131              		.cfi_endproc
 132              	.LFE66:
 133              		.size	MAX30101_IsFIFOAFull, .-MAX30101_IsFIFOAFull
 134              		.section	.text.MAX30101_IsPPGReady,"ax",%progbits
 135              		.align	2
 136              		.global	MAX30101_IsPPGReady
 137              		.thumb
 138              		.thumb_func
 139              		.type	MAX30101_IsPPGReady, %function
 140              	MAX30101_IsPPGReady:
 141              	.LFB67:
 214:MAX30101.c    **** 
 215:MAX30101.c    **** uint8_t MAX30101_IsPPGReady(uint8_t* flag)
 216:MAX30101.c    **** {
 142              		.loc 1 216 0
 143              		.cfi_startproc
 144              		@ args = 0, pretend = 0, frame = 16
 145              		@ frame_needed = 1, uses_anonymous_args = 0
 146 0000 80B5     		push	{r7, lr}
 147              		.cfi_def_cfa_offset 8
 148              		.cfi_offset 7, -8
 149              		.cfi_offset 14, -4
 150 0002 84B0     		sub	sp, sp, #16
 151              		.cfi_def_cfa_offset 24
 152 0004 00AF     		add	r7, sp, #0
 153              		.cfi_def_cfa_register 7
 154 0006 7860     		str	r0, [r7, #4]
 217:MAX30101.c    ****     // Read register
 218:MAX30101.c    ****     uint8_t temp;
 219:MAX30101.c    ****     uint8_t error = MAX30101_ReadRegister(MAX30101_INT_ST_1, &temp);
 155              		.loc 1 219 0
 156 0008 07F10E03 		add	r3, r7, #14
 157 000c 1946     		mov	r1, r3
 158 000e 0020     		movs	r0, #0
 159 0010 FFF7FEFF 		bl	MAX30101_ReadRegister
 160 0014 0346     		mov	r3, r0
 161 0016 FB73     		strb	r3, [r7, #15]
 220:MAX30101.c    ****     *flag = temp & (~MAX30101_INT_PPG_RDY_MASK);
 162              		.loc 1 220 0
 163 0018 BB7B     		ldrb	r3, [r7, #14]	@ zero_extendqisi2
 164 001a 03F04003 		and	r3, r3, #64
 165 001e DAB2     		uxtb	r2, r3
 166 0020 7B68     		ldr	r3, [r7, #4]
 167 0022 1A70     		strb	r2, [r3]
 221:MAX30101.c    ****     return error;
 168              		.loc 1 221 0
 169 0024 FB7B     		ldrb	r3, [r7, #15]	@ zero_extendqisi2
 222:MAX30101.c    **** }
 170              		.loc 1 222 0
 171 0026 1846     		mov	r0, r3
 172 0028 1037     		adds	r7, r7, #16
 173              		.cfi_def_cfa_offset 8
 174 002a BD46     		mov	sp, r7
 175              		.cfi_def_cfa_register 13
 176              		@ sp needed
 177 002c 80BD     		pop	{r7, pc}
ARM GAS  C:\Users\Perro\AppData\Local\Temp\ccDnyon7.s 			page 8


 178              		.cfi_endproc
 179              	.LFE67:
 180              		.size	MAX30101_IsPPGReady, .-MAX30101_IsPPGReady
 181              		.section	.text.MAX30101_IsALCOverflow,"ax",%progbits
 182              		.align	2
 183              		.global	MAX30101_IsALCOverflow
 184              		.thumb
 185              		.thumb_func
 186              		.type	MAX30101_IsALCOverflow, %function
 187              	MAX30101_IsALCOverflow:
 188              	.LFB68:
 223:MAX30101.c    **** uint8_t MAX30101_IsALCOverflow(uint8_t* flag)
 224:MAX30101.c    **** {
 189              		.loc 1 224 0
 190              		.cfi_startproc
 191              		@ args = 0, pretend = 0, frame = 16
 192              		@ frame_needed = 1, uses_anonymous_args = 0
 193 0000 80B5     		push	{r7, lr}
 194              		.cfi_def_cfa_offset 8
 195              		.cfi_offset 7, -8
 196              		.cfi_offset 14, -4
 197 0002 84B0     		sub	sp, sp, #16
 198              		.cfi_def_cfa_offset 24
 199 0004 00AF     		add	r7, sp, #0
 200              		.cfi_def_cfa_register 7
 201 0006 7860     		str	r0, [r7, #4]
 225:MAX30101.c    ****     // Read register
 226:MAX30101.c    ****     uint8_t temp;
 227:MAX30101.c    ****     uint8_t error = MAX30101_ReadRegister(MAX30101_INT_ST_1, &temp);
 202              		.loc 1 227 0
 203 0008 07F10E03 		add	r3, r7, #14
 204 000c 1946     		mov	r1, r3
 205 000e 0020     		movs	r0, #0
 206 0010 FFF7FEFF 		bl	MAX30101_ReadRegister
 207 0014 0346     		mov	r3, r0
 208 0016 FB73     		strb	r3, [r7, #15]
 228:MAX30101.c    ****     *flag = temp & (~MAX30101_INT_ALC_OVF_MASK);
 209              		.loc 1 228 0
 210 0018 BB7B     		ldrb	r3, [r7, #14]	@ zero_extendqisi2
 211 001a 03F02003 		and	r3, r3, #32
 212 001e DAB2     		uxtb	r2, r3
 213 0020 7B68     		ldr	r3, [r7, #4]
 214 0022 1A70     		strb	r2, [r3]
 229:MAX30101.c    ****     return error;
 215              		.loc 1 229 0
 216 0024 FB7B     		ldrb	r3, [r7, #15]	@ zero_extendqisi2
 230:MAX30101.c    **** }
 217              		.loc 1 230 0
 218 0026 1846     		mov	r0, r3
 219 0028 1037     		adds	r7, r7, #16
 220              		.cfi_def_cfa_offset 8
 221 002a BD46     		mov	sp, r7
 222              		.cfi_def_cfa_register 13
 223              		@ sp needed
 224 002c 80BD     		pop	{r7, pc}
 225              		.cfi_endproc
 226              	.LFE68:
ARM GAS  C:\Users\Perro\AppData\Local\Temp\ccDnyon7.s 			page 9


 227              		.size	MAX30101_IsALCOverflow, .-MAX30101_IsALCOverflow
 228              		.section	.text.MAX30101_IsPowerReady,"ax",%progbits
 229              		.align	2
 230              		.global	MAX30101_IsPowerReady
 231              		.thumb
 232              		.thumb_func
 233              		.type	MAX30101_IsPowerReady, %function
 234              	MAX30101_IsPowerReady:
 235              	.LFB69:
 231:MAX30101.c    **** uint8_t MAX30101_IsPowerReady(uint8_t* flag)
 232:MAX30101.c    **** {
 236              		.loc 1 232 0
 237              		.cfi_startproc
 238              		@ args = 0, pretend = 0, frame = 16
 239              		@ frame_needed = 1, uses_anonymous_args = 0
 240 0000 80B5     		push	{r7, lr}
 241              		.cfi_def_cfa_offset 8
 242              		.cfi_offset 7, -8
 243              		.cfi_offset 14, -4
 244 0002 84B0     		sub	sp, sp, #16
 245              		.cfi_def_cfa_offset 24
 246 0004 00AF     		add	r7, sp, #0
 247              		.cfi_def_cfa_register 7
 248 0006 7860     		str	r0, [r7, #4]
 233:MAX30101.c    ****     // Read register
 234:MAX30101.c    ****     uint8_t temp;
 235:MAX30101.c    ****     uint8_t error = MAX30101_ReadRegister(MAX30101_INT_ST_1, &temp);
 249              		.loc 1 235 0
 250 0008 07F10E03 		add	r3, r7, #14
 251 000c 1946     		mov	r1, r3
 252 000e 0020     		movs	r0, #0
 253 0010 FFF7FEFF 		bl	MAX30101_ReadRegister
 254 0014 0346     		mov	r3, r0
 255 0016 FB73     		strb	r3, [r7, #15]
 236:MAX30101.c    ****     *flag = temp & (~MAX30101_INT_PWR_RDY_MASK);
 256              		.loc 1 236 0
 257 0018 BB7B     		ldrb	r3, [r7, #14]	@ zero_extendqisi2
 258 001a 03F00103 		and	r3, r3, #1
 259 001e DAB2     		uxtb	r2, r3
 260 0020 7B68     		ldr	r3, [r7, #4]
 261 0022 1A70     		strb	r2, [r3]
 237:MAX30101.c    ****     return error;
 262              		.loc 1 237 0
 263 0024 FB7B     		ldrb	r3, [r7, #15]	@ zero_extendqisi2
 238:MAX30101.c    **** }
 264              		.loc 1 238 0
 265 0026 1846     		mov	r0, r3
 266 0028 1037     		adds	r7, r7, #16
 267              		.cfi_def_cfa_offset 8
 268 002a BD46     		mov	sp, r7
 269              		.cfi_def_cfa_register 13
 270              		@ sp needed
 271 002c 80BD     		pop	{r7, pc}
 272              		.cfi_endproc
 273              	.LFE69:
 274              		.size	MAX30101_IsPowerReady, .-MAX30101_IsPowerReady
 275              		.section	.text.MAX30101_IsTempReady,"ax",%progbits
ARM GAS  C:\Users\Perro\AppData\Local\Temp\ccDnyon7.s 			page 10


 276              		.align	2
 277              		.global	MAX30101_IsTempReady
 278              		.thumb
 279              		.thumb_func
 280              		.type	MAX30101_IsTempReady, %function
 281              	MAX30101_IsTempReady:
 282              	.LFB70:
 239:MAX30101.c    **** uint8_t MAX30101_IsTempReady(uint8_t* flag)
 240:MAX30101.c    **** {
 283              		.loc 1 240 0
 284              		.cfi_startproc
 285              		@ args = 0, pretend = 0, frame = 16
 286              		@ frame_needed = 1, uses_anonymous_args = 0
 287 0000 80B5     		push	{r7, lr}
 288              		.cfi_def_cfa_offset 8
 289              		.cfi_offset 7, -8
 290              		.cfi_offset 14, -4
 291 0002 84B0     		sub	sp, sp, #16
 292              		.cfi_def_cfa_offset 24
 293 0004 00AF     		add	r7, sp, #0
 294              		.cfi_def_cfa_register 7
 295 0006 7860     		str	r0, [r7, #4]
 241:MAX30101.c    ****     // Read register
 242:MAX30101.c    ****     uint8_t temp;
 243:MAX30101.c    ****     uint8_t error = MAX30101_ReadRegister(MAX30101_INT_ST_2, &temp);
 296              		.loc 1 243 0
 297 0008 07F10E03 		add	r3, r7, #14
 298 000c 1946     		mov	r1, r3
 299 000e 0120     		movs	r0, #1
 300 0010 FFF7FEFF 		bl	MAX30101_ReadRegister
 301 0014 0346     		mov	r3, r0
 302 0016 FB73     		strb	r3, [r7, #15]
 244:MAX30101.c    ****     *flag = temp & (~MAX30101_INT_TMP_RDY_MASK);
 303              		.loc 1 244 0
 304 0018 BB7B     		ldrb	r3, [r7, #14]	@ zero_extendqisi2
 305 001a 03F00203 		and	r3, r3, #2
 306 001e DAB2     		uxtb	r2, r3
 307 0020 7B68     		ldr	r3, [r7, #4]
 308 0022 1A70     		strb	r2, [r3]
 245:MAX30101.c    ****     return error;
 309              		.loc 1 245 0
 310 0024 FB7B     		ldrb	r3, [r7, #15]	@ zero_extendqisi2
 246:MAX30101.c    **** }
 311              		.loc 1 246 0
 312 0026 1846     		mov	r0, r3
 313 0028 1037     		adds	r7, r7, #16
 314              		.cfi_def_cfa_offset 8
 315 002a BD46     		mov	sp, r7
 316              		.cfi_def_cfa_register 13
 317              		@ sp needed
 318 002c 80BD     		pop	{r7, pc}
 319              		.cfi_endproc
 320              	.LFE70:
 321              		.size	MAX30101_IsTempReady, .-MAX30101_IsTempReady
 322              		.section	.text.MAX30101_EnableFIFOAFullInt,"ax",%progbits
 323              		.align	2
 324              		.global	MAX30101_EnableFIFOAFullInt
ARM GAS  C:\Users\Perro\AppData\Local\Temp\ccDnyon7.s 			page 11


 325              		.thumb
 326              		.thumb_func
 327              		.type	MAX30101_EnableFIFOAFullInt, %function
 328              	MAX30101_EnableFIFOAFullInt:
 329              	.LFB71:
 247:MAX30101.c    ****     
 248:MAX30101.c    **** // Enable interrupts
 249:MAX30101.c    **** uint8_t MAX30101_EnableFIFOAFullInt(void)
 250:MAX30101.c    **** {
 330              		.loc 1 250 0
 331              		.cfi_startproc
 332              		@ args = 0, pretend = 0, frame = 0
 333              		@ frame_needed = 1, uses_anonymous_args = 0
 334 0000 80B5     		push	{r7, lr}
 335              		.cfi_def_cfa_offset 8
 336              		.cfi_offset 7, -8
 337              		.cfi_offset 14, -4
 338 0002 00AF     		add	r7, sp, #0
 339              		.cfi_def_cfa_register 7
 251:MAX30101.c    ****     return MAX30101_BitMask(MAX30101_INT_EN_1, MAX30101_FIFO_A_FULL_MASK, MAX30101_INT_FIFO_A_FULL_
 340              		.loc 1 251 0
 341 0004 8022     		movs	r2, #128
 342 0006 F021     		movs	r1, #240
 343 0008 0220     		movs	r0, #2
 344 000a FFF7FEFF 		bl	MAX30101_BitMask
 345 000e 0346     		mov	r3, r0
 252:MAX30101.c    **** }
 346              		.loc 1 252 0
 347 0010 1846     		mov	r0, r3
 348 0012 80BD     		pop	{r7, pc}
 349              		.cfi_endproc
 350              	.LFE71:
 351              		.size	MAX30101_EnableFIFOAFullInt, .-MAX30101_EnableFIFOAFullInt
 352              		.section	.text.MAX30101_EnablePPGReadyInt,"ax",%progbits
 353              		.align	2
 354              		.global	MAX30101_EnablePPGReadyInt
 355              		.thumb
 356              		.thumb_func
 357              		.type	MAX30101_EnablePPGReadyInt, %function
 358              	MAX30101_EnablePPGReadyInt:
 359              	.LFB72:
 253:MAX30101.c    **** uint8_t MAX30101_EnablePPGReadyInt(void)
 254:MAX30101.c    **** {
 360              		.loc 1 254 0
 361              		.cfi_startproc
 362              		@ args = 0, pretend = 0, frame = 0
 363              		@ frame_needed = 1, uses_anonymous_args = 0
 364 0000 80B5     		push	{r7, lr}
 365              		.cfi_def_cfa_offset 8
 366              		.cfi_offset 7, -8
 367              		.cfi_offset 14, -4
 368 0002 00AF     		add	r7, sp, #0
 369              		.cfi_def_cfa_register 7
 255:MAX30101.c    ****     return MAX30101_BitMask(MAX30101_INT_EN_1, MAX30101_INT_PPG_RDY_MASK, MAX30101_INT_PPG_RDY_ENAB
 370              		.loc 1 255 0
 371 0004 4022     		movs	r2, #64
 372 0006 BF21     		movs	r1, #191
ARM GAS  C:\Users\Perro\AppData\Local\Temp\ccDnyon7.s 			page 12


 373 0008 0220     		movs	r0, #2
 374 000a FFF7FEFF 		bl	MAX30101_BitMask
 375 000e 0346     		mov	r3, r0
 256:MAX30101.c    **** }
 376              		.loc 1 256 0
 377 0010 1846     		mov	r0, r3
 378 0012 80BD     		pop	{r7, pc}
 379              		.cfi_endproc
 380              	.LFE72:
 381              		.size	MAX30101_EnablePPGReadyInt, .-MAX30101_EnablePPGReadyInt
 382              		.section	.text.MAX30101_EnableALCOverflowInt,"ax",%progbits
 383              		.align	2
 384              		.global	MAX30101_EnableALCOverflowInt
 385              		.thumb
 386              		.thumb_func
 387              		.type	MAX30101_EnableALCOverflowInt, %function
 388              	MAX30101_EnableALCOverflowInt:
 389              	.LFB73:
 257:MAX30101.c    **** uint8_t MAX30101_EnableALCOverflowInt(void)
 258:MAX30101.c    **** {
 390              		.loc 1 258 0
 391              		.cfi_startproc
 392              		@ args = 0, pretend = 0, frame = 0
 393              		@ frame_needed = 1, uses_anonymous_args = 0
 394 0000 80B5     		push	{r7, lr}
 395              		.cfi_def_cfa_offset 8
 396              		.cfi_offset 7, -8
 397              		.cfi_offset 14, -4
 398 0002 00AF     		add	r7, sp, #0
 399              		.cfi_def_cfa_register 7
 259:MAX30101.c    ****     return MAX30101_BitMask(MAX30101_INT_EN_1, MAX30101_INT_ALC_OVF_MASK, MAX30101_INT_ALC_OVF_ENAB
 400              		.loc 1 259 0
 401 0004 2022     		movs	r2, #32
 402 0006 DF21     		movs	r1, #223
 403 0008 0220     		movs	r0, #2
 404 000a FFF7FEFF 		bl	MAX30101_BitMask
 405 000e 0346     		mov	r3, r0
 260:MAX30101.c    **** }
 406              		.loc 1 260 0
 407 0010 1846     		mov	r0, r3
 408 0012 80BD     		pop	{r7, pc}
 409              		.cfi_endproc
 410              	.LFE73:
 411              		.size	MAX30101_EnableALCOverflowInt, .-MAX30101_EnableALCOverflowInt
 412              		.section	.text.MAX30101_EnableTempReadyInt,"ax",%progbits
 413              		.align	2
 414              		.global	MAX30101_EnableTempReadyInt
 415              		.thumb
 416              		.thumb_func
 417              		.type	MAX30101_EnableTempReadyInt, %function
 418              	MAX30101_EnableTempReadyInt:
 419              	.LFB74:
 261:MAX30101.c    **** 
 262:MAX30101.c    **** uint8_t MAX30101_EnableTempReadyInt(void)
 263:MAX30101.c    **** {
 420              		.loc 1 263 0
 421              		.cfi_startproc
ARM GAS  C:\Users\Perro\AppData\Local\Temp\ccDnyon7.s 			page 13


 422              		@ args = 0, pretend = 0, frame = 0
 423              		@ frame_needed = 1, uses_anonymous_args = 0
 424 0000 80B5     		push	{r7, lr}
 425              		.cfi_def_cfa_offset 8
 426              		.cfi_offset 7, -8
 427              		.cfi_offset 14, -4
 428 0002 00AF     		add	r7, sp, #0
 429              		.cfi_def_cfa_register 7
 264:MAX30101.c    ****     return MAX30101_BitMask(MAX30101_INT_EN_2, MAX30101_INT_TMP_RDY_MASK, MAX30101_INT_TMP_RDY_ENAB
 430              		.loc 1 264 0
 431 0004 0222     		movs	r2, #2
 432 0006 FD21     		movs	r1, #253
 433 0008 0320     		movs	r0, #3
 434 000a FFF7FEFF 		bl	MAX30101_BitMask
 435 000e 0346     		mov	r3, r0
 265:MAX30101.c    **** }
 436              		.loc 1 265 0
 437 0010 1846     		mov	r0, r3
 438 0012 80BD     		pop	{r7, pc}
 439              		.cfi_endproc
 440              	.LFE74:
 441              		.size	MAX30101_EnableTempReadyInt, .-MAX30101_EnableTempReadyInt
 442              		.section	.text.MAX30101_DisableFIFOAFullInt,"ax",%progbits
 443              		.align	2
 444              		.global	MAX30101_DisableFIFOAFullInt
 445              		.thumb
 446              		.thumb_func
 447              		.type	MAX30101_DisableFIFOAFullInt, %function
 448              	MAX30101_DisableFIFOAFullInt:
 449              	.LFB75:
 266:MAX30101.c    **** 
 267:MAX30101.c    **** // Disable interrupts
 268:MAX30101.c    **** uint8_t MAX30101_DisableFIFOAFullInt(void)
 269:MAX30101.c    **** {
 450              		.loc 1 269 0
 451              		.cfi_startproc
 452              		@ args = 0, pretend = 0, frame = 0
 453              		@ frame_needed = 1, uses_anonymous_args = 0
 454 0000 80B5     		push	{r7, lr}
 455              		.cfi_def_cfa_offset 8
 456              		.cfi_offset 7, -8
 457              		.cfi_offset 14, -4
 458 0002 00AF     		add	r7, sp, #0
 459              		.cfi_def_cfa_register 7
 270:MAX30101.c    ****     return MAX30101_BitMask(MAX30101_INT_EN_1, MAX30101_FIFO_A_FULL_MASK, MAX30101_INT_FIFO_A_FULL_
 460              		.loc 1 270 0
 461 0004 0022     		movs	r2, #0
 462 0006 F021     		movs	r1, #240
 463 0008 0220     		movs	r0, #2
 464 000a FFF7FEFF 		bl	MAX30101_BitMask
 465 000e 0346     		mov	r3, r0
 271:MAX30101.c    **** }
 466              		.loc 1 271 0
 467 0010 1846     		mov	r0, r3
 468 0012 80BD     		pop	{r7, pc}
 469              		.cfi_endproc
 470              	.LFE75:
ARM GAS  C:\Users\Perro\AppData\Local\Temp\ccDnyon7.s 			page 14


 471              		.size	MAX30101_DisableFIFOAFullInt, .-MAX30101_DisableFIFOAFullInt
 472              		.section	.text.MAX30101_DisablePPGReadyInt,"ax",%progbits
 473              		.align	2
 474              		.global	MAX30101_DisablePPGReadyInt
 475              		.thumb
 476              		.thumb_func
 477              		.type	MAX30101_DisablePPGReadyInt, %function
 478              	MAX30101_DisablePPGReadyInt:
 479              	.LFB76:
 272:MAX30101.c    **** 
 273:MAX30101.c    **** uint8_t MAX30101_DisablePPGReadyInt(void)
 274:MAX30101.c    **** {
 480              		.loc 1 274 0
 481              		.cfi_startproc
 482              		@ args = 0, pretend = 0, frame = 0
 483              		@ frame_needed = 1, uses_anonymous_args = 0
 484 0000 80B5     		push	{r7, lr}
 485              		.cfi_def_cfa_offset 8
 486              		.cfi_offset 7, -8
 487              		.cfi_offset 14, -4
 488 0002 00AF     		add	r7, sp, #0
 489              		.cfi_def_cfa_register 7
 275:MAX30101.c    ****     return MAX30101_BitMask(MAX30101_INT_EN_1, MAX30101_INT_PPG_RDY_MASK, MAX30101_INT_PPG_RDY_DISA
 490              		.loc 1 275 0
 491 0004 0022     		movs	r2, #0
 492 0006 BF21     		movs	r1, #191
 493 0008 0220     		movs	r0, #2
 494 000a FFF7FEFF 		bl	MAX30101_BitMask
 495 000e 0346     		mov	r3, r0
 276:MAX30101.c    **** }
 496              		.loc 1 276 0
 497 0010 1846     		mov	r0, r3
 498 0012 80BD     		pop	{r7, pc}
 499              		.cfi_endproc
 500              	.LFE76:
 501              		.size	MAX30101_DisablePPGReadyInt, .-MAX30101_DisablePPGReadyInt
 502              		.section	.text.MAX30101_DisableALCOverflowInt,"ax",%progbits
 503              		.align	2
 504              		.global	MAX30101_DisableALCOverflowInt
 505              		.thumb
 506              		.thumb_func
 507              		.type	MAX30101_DisableALCOverflowInt, %function
 508              	MAX30101_DisableALCOverflowInt:
 509              	.LFB77:
 277:MAX30101.c    **** 
 278:MAX30101.c    **** uint8_t MAX30101_DisableALCOverflowInt(void)
 279:MAX30101.c    **** {
 510              		.loc 1 279 0
 511              		.cfi_startproc
 512              		@ args = 0, pretend = 0, frame = 0
 513              		@ frame_needed = 1, uses_anonymous_args = 0
 514 0000 80B5     		push	{r7, lr}
 515              		.cfi_def_cfa_offset 8
 516              		.cfi_offset 7, -8
 517              		.cfi_offset 14, -4
 518 0002 00AF     		add	r7, sp, #0
 519              		.cfi_def_cfa_register 7
ARM GAS  C:\Users\Perro\AppData\Local\Temp\ccDnyon7.s 			page 15


 280:MAX30101.c    ****     return MAX30101_BitMask(MAX30101_INT_EN_1, MAX30101_INT_ALC_OVF_MASK, MAX30101_INT_ALC_OVF_DISA
 520              		.loc 1 280 0
 521 0004 0022     		movs	r2, #0
 522 0006 DF21     		movs	r1, #223
 523 0008 0220     		movs	r0, #2
 524 000a FFF7FEFF 		bl	MAX30101_BitMask
 525 000e 0346     		mov	r3, r0
 281:MAX30101.c    **** }
 526              		.loc 1 281 0
 527 0010 1846     		mov	r0, r3
 528 0012 80BD     		pop	{r7, pc}
 529              		.cfi_endproc
 530              	.LFE77:
 531              		.size	MAX30101_DisableALCOverflowInt, .-MAX30101_DisableALCOverflowInt
 532              		.section	.text.MAX30101_DisableTempReadyInt,"ax",%progbits
 533              		.align	2
 534              		.global	MAX30101_DisableTempReadyInt
 535              		.thumb
 536              		.thumb_func
 537              		.type	MAX30101_DisableTempReadyInt, %function
 538              	MAX30101_DisableTempReadyInt:
 539              	.LFB78:
 282:MAX30101.c    **** 
 283:MAX30101.c    **** uint8_t MAX30101_DisableTempReadyInt(void)
 284:MAX30101.c    **** {
 540              		.loc 1 284 0
 541              		.cfi_startproc
 542              		@ args = 0, pretend = 0, frame = 0
 543              		@ frame_needed = 1, uses_anonymous_args = 0
 544 0000 80B5     		push	{r7, lr}
 545              		.cfi_def_cfa_offset 8
 546              		.cfi_offset 7, -8
 547              		.cfi_offset 14, -4
 548 0002 00AF     		add	r7, sp, #0
 549              		.cfi_def_cfa_register 7
 285:MAX30101.c    ****     return MAX30101_BitMask(MAX30101_INT_EN_1, MAX30101_INT_TMP_RDY_MASK, MAX30101_INT_TMP_RDY_DISA
 550              		.loc 1 285 0
 551 0004 0022     		movs	r2, #0
 552 0006 FD21     		movs	r1, #253
 553 0008 0220     		movs	r0, #2
 554 000a FFF7FEFF 		bl	MAX30101_BitMask
 555 000e 0346     		mov	r3, r0
 286:MAX30101.c    **** }
 556              		.loc 1 286 0
 557 0010 1846     		mov	r0, r3
 558 0012 80BD     		pop	{r7, pc}
 559              		.cfi_endproc
 560              	.LFE78:
 561              		.size	MAX30101_DisableTempReadyInt, .-MAX30101_DisableTempReadyInt
 562              		.section	.text.MAX30101_ReadWritePointer,"ax",%progbits
 563              		.align	2
 564              		.global	MAX30101_ReadWritePointer
 565              		.thumb
 566              		.thumb_func
 567              		.type	MAX30101_ReadWritePointer, %function
 568              	MAX30101_ReadWritePointer:
 569              	.LFB79:
ARM GAS  C:\Users\Perro\AppData\Local\Temp\ccDnyon7.s 			page 16


 287:MAX30101.c    **** 
 288:MAX30101.c    **** //==============================================
 289:MAX30101.c    **** //          FIFO FUNCTIONS
 290:MAX30101.c    **** //==============================================
 291:MAX30101.c    **** // Read Write pointer
 292:MAX30101.c    **** uint8_t MAX30101_ReadWritePointer(uint8_t* wr)
 293:MAX30101.c    **** {
 570              		.loc 1 293 0
 571              		.cfi_startproc
 572              		@ args = 0, pretend = 0, frame = 8
 573              		@ frame_needed = 1, uses_anonymous_args = 0
 574 0000 80B5     		push	{r7, lr}
 575              		.cfi_def_cfa_offset 8
 576              		.cfi_offset 7, -8
 577              		.cfi_offset 14, -4
 578 0002 82B0     		sub	sp, sp, #8
 579              		.cfi_def_cfa_offset 16
 580 0004 00AF     		add	r7, sp, #0
 581              		.cfi_def_cfa_register 7
 582 0006 7860     		str	r0, [r7, #4]
 294:MAX30101.c    ****     return MAX30101_ReadRegister(MAX30101_FIFO_WP, wr);
 583              		.loc 1 294 0
 584 0008 7968     		ldr	r1, [r7, #4]
 585 000a 0420     		movs	r0, #4
 586 000c FFF7FEFF 		bl	MAX30101_ReadRegister
 587 0010 0346     		mov	r3, r0
 295:MAX30101.c    **** }
 588              		.loc 1 295 0
 589 0012 1846     		mov	r0, r3
 590 0014 0837     		adds	r7, r7, #8
 591              		.cfi_def_cfa_offset 8
 592 0016 BD46     		mov	sp, r7
 593              		.cfi_def_cfa_register 13
 594              		@ sp needed
 595 0018 80BD     		pop	{r7, pc}
 596              		.cfi_endproc
 597              	.LFE79:
 598              		.size	MAX30101_ReadWritePointer, .-MAX30101_ReadWritePointer
 599 001a 00BF     		.section	.text.MAX30101_ReadOverflowCounter,"ax",%progbits
 600              		.align	2
 601              		.global	MAX30101_ReadOverflowCounter
 602              		.thumb
 603              		.thumb_func
 604              		.type	MAX30101_ReadOverflowCounter, %function
 605              	MAX30101_ReadOverflowCounter:
 606              	.LFB80:
 296:MAX30101.c    **** 
 297:MAX30101.c    **** // Read Overflow counter
 298:MAX30101.c    **** uint8_t MAX30101_ReadOverflowCounter(uint8_t* oc)
 299:MAX30101.c    **** {
 607              		.loc 1 299 0
 608              		.cfi_startproc
 609              		@ args = 0, pretend = 0, frame = 8
 610              		@ frame_needed = 1, uses_anonymous_args = 0
 611 0000 80B5     		push	{r7, lr}
 612              		.cfi_def_cfa_offset 8
 613              		.cfi_offset 7, -8
ARM GAS  C:\Users\Perro\AppData\Local\Temp\ccDnyon7.s 			page 17


 614              		.cfi_offset 14, -4
 615 0002 82B0     		sub	sp, sp, #8
 616              		.cfi_def_cfa_offset 16
 617 0004 00AF     		add	r7, sp, #0
 618              		.cfi_def_cfa_register 7
 619 0006 7860     		str	r0, [r7, #4]
 300:MAX30101.c    ****     return MAX30101_ReadRegister(MAX30101_FIFO_OVF_CNT, oc);
 620              		.loc 1 300 0
 621 0008 7968     		ldr	r1, [r7, #4]
 622 000a 0520     		movs	r0, #5
 623 000c FFF7FEFF 		bl	MAX30101_ReadRegister
 624 0010 0346     		mov	r3, r0
 301:MAX30101.c    **** }
 625              		.loc 1 301 0
 626 0012 1846     		mov	r0, r3
 627 0014 0837     		adds	r7, r7, #8
 628              		.cfi_def_cfa_offset 8
 629 0016 BD46     		mov	sp, r7
 630              		.cfi_def_cfa_register 13
 631              		@ sp needed
 632 0018 80BD     		pop	{r7, pc}
 633              		.cfi_endproc
 634              	.LFE80:
 635              		.size	MAX30101_ReadOverflowCounter, .-MAX30101_ReadOverflowCounter
 636 001a 00BF     		.section	.text.MAX30101_ReadReadPointer,"ax",%progbits
 637              		.align	2
 638              		.global	MAX30101_ReadReadPointer
 639              		.thumb
 640              		.thumb_func
 641              		.type	MAX30101_ReadReadPointer, %function
 642              	MAX30101_ReadReadPointer:
 643              	.LFB81:
 302:MAX30101.c    **** 
 303:MAX30101.c    **** // Read Read Pointer
 304:MAX30101.c    **** uint8_t MAX30101_ReadReadPointer(uint8_t* rr)
 305:MAX30101.c    **** {
 644              		.loc 1 305 0
 645              		.cfi_startproc
 646              		@ args = 0, pretend = 0, frame = 8
 647              		@ frame_needed = 1, uses_anonymous_args = 0
 648 0000 80B5     		push	{r7, lr}
 649              		.cfi_def_cfa_offset 8
 650              		.cfi_offset 7, -8
 651              		.cfi_offset 14, -4
 652 0002 82B0     		sub	sp, sp, #8
 653              		.cfi_def_cfa_offset 16
 654 0004 00AF     		add	r7, sp, #0
 655              		.cfi_def_cfa_register 7
 656 0006 7860     		str	r0, [r7, #4]
 306:MAX30101.c    ****     return MAX30101_ReadRegister(MAX30101_FIFO_RP, rr);
 657              		.loc 1 306 0
 658 0008 7968     		ldr	r1, [r7, #4]
 659 000a 0620     		movs	r0, #6
 660 000c FFF7FEFF 		bl	MAX30101_ReadRegister
 661 0010 0346     		mov	r3, r0
 307:MAX30101.c    **** }
 662              		.loc 1 307 0
ARM GAS  C:\Users\Perro\AppData\Local\Temp\ccDnyon7.s 			page 18


 663 0012 1846     		mov	r0, r3
 664 0014 0837     		adds	r7, r7, #8
 665              		.cfi_def_cfa_offset 8
 666 0016 BD46     		mov	sp, r7
 667              		.cfi_def_cfa_register 13
 668              		@ sp needed
 669 0018 80BD     		pop	{r7, pc}
 670              		.cfi_endproc
 671              	.LFE81:
 672              		.size	MAX30101_ReadReadPointer, .-MAX30101_ReadReadPointer
 673 001a 00BF     		.section	.text.MAX30101_ClearFIFO,"ax",%progbits
 674              		.align	2
 675              		.global	MAX30101_ClearFIFO
 676              		.thumb
 677              		.thumb_func
 678              		.type	MAX30101_ClearFIFO, %function
 679              	MAX30101_ClearFIFO:
 680              	.LFB82:
 308:MAX30101.c    **** 
 309:MAX30101.c    **** // Clear FIFO
 310:MAX30101.c    **** uint8_t MAX30101_ClearFIFO(void)
 311:MAX30101.c    **** {
 681              		.loc 1 311 0
 682              		.cfi_startproc
 683              		@ args = 0, pretend = 0, frame = 16
 684              		@ frame_needed = 1, uses_anonymous_args = 0
 685 0000 2DE9F043 		push	{r4, r5, r6, r7, r8, r9, lr}
 686              		.cfi_def_cfa_offset 28
 687              		.cfi_offset 4, -28
 688              		.cfi_offset 5, -24
 689              		.cfi_offset 6, -20
 690              		.cfi_offset 7, -16
 691              		.cfi_offset 8, -12
 692              		.cfi_offset 9, -8
 693              		.cfi_offset 14, -4
 694 0004 85B0     		sub	sp, sp, #20
 695              		.cfi_def_cfa_offset 48
 696 0006 00AF     		add	r7, sp, #0
 697              		.cfi_def_cfa_register 7
 312:MAX30101.c    ****     uint8_t error = MAX30101_WriteRegister(MAX30101_FIFO_WP, 0x00);
 698              		.loc 1 312 0
 699 0008 0021     		movs	r1, #0
 700 000a 0420     		movs	r0, #4
 701 000c FFF7FEFF 		bl	MAX30101_WriteRegister
 702 0010 0346     		mov	r3, r0
 703 0012 FB73     		strb	r3, [r7, #15]
 313:MAX30101.c    ****     if ( error == MAX30101_OK)
 704              		.loc 1 313 0
 705 0014 FB7B     		ldrb	r3, [r7, #15]	@ zero_extendqisi2
 706 0016 002B     		cmp	r3, #0
 707 0018 4FD1     		bne	.L39
 314:MAX30101.c    ****     {
 315:MAX30101.c    ****         error = MAX30101_WriteRegister(MAX30101_FIFO_RP, 0x00);
 708              		.loc 1 315 0
 709 001a 0021     		movs	r1, #0
 710 001c 0620     		movs	r0, #6
 711 001e FFF7FEFF 		bl	MAX30101_WriteRegister
ARM GAS  C:\Users\Perro\AppData\Local\Temp\ccDnyon7.s 			page 19


 712 0022 0346     		mov	r3, r0
 713 0024 FB73     		strb	r3, [r7, #15]
 316:MAX30101.c    ****         if ( error == MAX30101_OK)
 714              		.loc 1 316 0
 715 0026 FB7B     		ldrb	r3, [r7, #15]	@ zero_extendqisi2
 716 0028 002B     		cmp	r3, #0
 717 002a 46D1     		bne	.L39
 718              	.LBB2:
 317:MAX30101.c    ****         {
 318:MAX30101.c    ****             // Read current mode to determine number of active leds
 319:MAX30101.c    ****             uint8_t temp_value;
 320:MAX30101.c    ****             error = MAX30101_ReadRegister(MAX30101_MODE_CONF, &temp_value);
 719              		.loc 1 320 0
 720 002c FB1C     		adds	r3, r7, #3
 721 002e 1946     		mov	r1, r3
 722 0030 0920     		movs	r0, #9
 723 0032 FFF7FEFF 		bl	MAX30101_ReadRegister
 724 0036 0346     		mov	r3, r0
 725 0038 FB73     		strb	r3, [r7, #15]
 321:MAX30101.c    ****             uint8_t current_mode = temp_value & 0x07;
 726              		.loc 1 321 0
 727 003a FB78     		ldrb	r3, [r7, #3]	@ zero_extendqisi2
 728 003c 03F00703 		and	r3, r3, #7
 729 0040 7B73     		strb	r3, [r7, #13]
 322:MAX30101.c    ****             uint8_t active_leds;
 323:MAX30101.c    ****             switch(current_mode)
 730              		.loc 1 323 0
 731 0042 7B7B     		ldrb	r3, [r7, #13]	@ zero_extendqisi2
 732 0044 032B     		cmp	r3, #3
 733 0046 06D0     		beq	.L41
 734 0048 072B     		cmp	r3, #7
 735 004a 07D0     		beq	.L42
 736 004c 022B     		cmp	r3, #2
 737 004e 08D1     		bne	.L40
 324:MAX30101.c    ****             {
 325:MAX30101.c    ****                 case MAX30101_HR_MODE:
 326:MAX30101.c    ****                     active_leds = 1;
 738              		.loc 1 326 0
 739 0050 0123     		movs	r3, #1
 740 0052 BB73     		strb	r3, [r7, #14]
 327:MAX30101.c    ****                     break;
 741              		.loc 1 327 0
 742 0054 05E0     		b	.L40
 743              	.L41:
 328:MAX30101.c    ****                 case MAX30101_SPO2_MODE:
 329:MAX30101.c    ****                     active_leds = 2;
 744              		.loc 1 329 0
 745 0056 0223     		movs	r3, #2
 746 0058 BB73     		strb	r3, [r7, #14]
 330:MAX30101.c    ****                     break;
 747              		.loc 1 330 0
 748 005a 02E0     		b	.L40
 749              	.L42:
 331:MAX30101.c    ****                 case MAX30101_MULTI_MODE:
 332:MAX30101.c    ****                     active_leds = 3;
 750              		.loc 1 332 0
 751 005c 0323     		movs	r3, #3
ARM GAS  C:\Users\Perro\AppData\Local\Temp\ccDnyon7.s 			page 20


 752 005e BB73     		strb	r3, [r7, #14]
 333:MAX30101.c    ****                     break;
 753              		.loc 1 333 0
 754 0060 00BF     		nop
 755              	.L40:
 334:MAX30101.c    ****             }
 335:MAX30101.c    ****             uint8_t fifo_values[active_leds*3];
 756              		.loc 1 335 0
 757 0062 BA7B     		ldrb	r2, [r7, #14]	@ zero_extendqisi2
 758 0064 1346     		mov	r3, r2
 759 0066 5B00     		lsls	r3, r3, #1
 760 0068 9918     		adds	r1, r3, r2
 761 006a 6B46     		mov	r3, sp
 762 006c 1E46     		mov	r6, r3
 763 006e 4B1E     		subs	r3, r1, #1
 764 0070 BB60     		str	r3, [r7, #8]
 765 0072 0B46     		mov	r3, r1
 766 0074 1A46     		mov	r2, r3
 767 0076 4FF00003 		mov	r3, #0
 768 007a 4FEAC309 		lsl	r9, r3, #3
 769 007e 49EA5279 		orr	r9, r9, r2, lsr #29
 770 0082 4FEAC208 		lsl	r8, r2, #3
 771 0086 0B46     		mov	r3, r1
 772 0088 1A46     		mov	r2, r3
 773 008a 4FF00003 		mov	r3, #0
 774 008e DD00     		lsls	r5, r3, #3
 775 0090 45EA5275 		orr	r5, r5, r2, lsr #29
 776 0094 D400     		lsls	r4, r2, #3
 777 0096 0B46     		mov	r3, r1
 778 0098 0733     		adds	r3, r3, #7
 779 009a DB08     		lsrs	r3, r3, #3
 780 009c DB00     		lsls	r3, r3, #3
 781 009e ADEB030D 		sub	sp, sp, r3
 782 00a2 6B46     		mov	r3, sp
 783 00a4 0033     		adds	r3, r3, #0
 784 00a6 7B60     		str	r3, [r7, #4]
 336:MAX30101.c    ****             // Read 1 from FIFO to clear the overflow counter
 337:MAX30101.c    ****             error = MAX30101_ReadRawFIFOBytes(1, active_leds, fifo_values);
 785              		.loc 1 337 0
 786 00a8 7A68     		ldr	r2, [r7, #4]
 787 00aa BB7B     		ldrb	r3, [r7, #14]	@ zero_extendqisi2
 788 00ac 1946     		mov	r1, r3
 789 00ae 0120     		movs	r0, #1
 790 00b0 FFF7FEFF 		bl	MAX30101_ReadRawFIFOBytes
 791 00b4 0346     		mov	r3, r0
 792 00b6 FB73     		strb	r3, [r7, #15]
 793 00b8 B546     		mov	sp, r6
 794              	.L39:
 795              	.LBE2:
 338:MAX30101.c    ****         }
 339:MAX30101.c    ****     }
 340:MAX30101.c    ****     return error;
 796              		.loc 1 340 0
 797 00ba FB7B     		ldrb	r3, [r7, #15]	@ zero_extendqisi2
 341:MAX30101.c    **** }
 798              		.loc 1 341 0
 799 00bc 1846     		mov	r0, r3
ARM GAS  C:\Users\Perro\AppData\Local\Temp\ccDnyon7.s 			page 21


 800 00be 1437     		adds	r7, r7, #20
 801              		.cfi_def_cfa_offset 28
 802 00c0 BD46     		mov	sp, r7
 803              		.cfi_def_cfa_register 13
 804              		@ sp needed
 805 00c2 BDE8F083 		pop	{r4, r5, r6, r7, r8, r9, pc}
 806              		.cfi_endproc
 807              	.LFE82:
 808              		.size	MAX30101_ClearFIFO, .-MAX30101_ClearFIFO
 809 00c6 00BF     		.section	.text.MAX30101_ReadRawFIFOBytes,"ax",%progbits
 810              		.align	2
 811              		.global	MAX30101_ReadRawFIFOBytes
 812              		.thumb
 813              		.thumb_func
 814              		.type	MAX30101_ReadRawFIFOBytes, %function
 815              	MAX30101_ReadRawFIFOBytes:
 816              	.LFB83:
 342:MAX30101.c    **** 
 343:MAX30101.c    **** uint8_t MAX30101_ReadRawFIFOBytes(uint8_t num_samples, uint8_t active_leds, uint8_t* data)
 344:MAX30101.c    **** {
 817              		.loc 1 344 0
 818              		.cfi_startproc
 819              		@ args = 0, pretend = 0, frame = 16
 820              		@ frame_needed = 1, uses_anonymous_args = 0
 821 0000 80B5     		push	{r7, lr}
 822              		.cfi_def_cfa_offset 8
 823              		.cfi_offset 7, -8
 824              		.cfi_offset 14, -4
 825 0002 84B0     		sub	sp, sp, #16
 826              		.cfi_def_cfa_offset 24
 827 0004 00AF     		add	r7, sp, #0
 828              		.cfi_def_cfa_register 7
 829 0006 0346     		mov	r3, r0
 830 0008 3A60     		str	r2, [r7]
 831 000a FB71     		strb	r3, [r7, #7]
 832 000c 0B46     		mov	r3, r1
 833 000e BB71     		strb	r3, [r7, #6]
 345:MAX30101.c    ****     // We need to read a number of bytes equal to num_samples + 3 * active_leds
 346:MAX30101.c    ****     uint16_t bytes_left_ro_read = num_samples * 3 * active_leds;
 834              		.loc 1 346 0
 835 0010 FB79     		ldrb	r3, [r7, #7]	@ zero_extendqisi2
 836 0012 9BB2     		uxth	r3, r3
 837 0014 BA79     		ldrb	r2, [r7, #6]	@ zero_extendqisi2
 838 0016 92B2     		uxth	r2, r2
 839 0018 02FB03F3 		mul	r3, r2, r3
 840 001c 9BB2     		uxth	r3, r3
 841 001e 1A46     		mov	r2, r3	@ movhi
 842 0020 5200     		lsls	r2, r2, #1
 843 0022 1344     		add	r3, r3, r2
 844 0024 FB81     		strh	r3, [r7, #14]	@ movhi
 347:MAX30101.c    ****     if (I2C_Peripheral_ReadRegisterMulti(MAX30101_I2C_ADDRESS, MAX30101_FIFO_DATA, bytes_left_ro_re
 845              		.loc 1 347 0
 846 0026 FA89     		ldrh	r2, [r7, #14]
 847 0028 3B68     		ldr	r3, [r7]
 848 002a 0721     		movs	r1, #7
 849 002c 5720     		movs	r0, #87
 850 002e FFF7FEFF 		bl	I2C_Peripheral_ReadRegisterMulti
ARM GAS  C:\Users\Perro\AppData\Local\Temp\ccDnyon7.s 			page 22


 851 0032 0346     		mov	r3, r0
 852 0034 002B     		cmp	r3, #0
 853 0036 01D1     		bne	.L46
 348:MAX30101.c    ****     {
 349:MAX30101.c    ****         return MAX30101_OK;
 854              		.loc 1 349 0
 855 0038 0023     		movs	r3, #0
 856 003a 00E0     		b	.L47
 857              	.L46:
 350:MAX30101.c    ****     }
 351:MAX30101.c    ****     else
 352:MAX30101.c    ****     {
 353:MAX30101.c    ****         return MAX30101_DEV_NOT_FOUND;
 858              		.loc 1 353 0
 859 003c 0123     		movs	r3, #1
 860              	.L47:
 354:MAX30101.c    ****     }
 355:MAX30101.c    **** }
 861              		.loc 1 355 0
 862 003e 1846     		mov	r0, r3
 863 0040 1037     		adds	r7, r7, #16
 864              		.cfi_def_cfa_offset 8
 865 0042 BD46     		mov	sp, r7
 866              		.cfi_def_cfa_register 13
 867              		@ sp needed
 868 0044 80BD     		pop	{r7, pc}
 869              		.cfi_endproc
 870              	.LFE83:
 871              		.size	MAX30101_ReadRawFIFOBytes, .-MAX30101_ReadRawFIFOBytes
 872 0046 00BF     		.section	.text.MAX30101_ReadRawFIFO,"ax",%progbits
 873              		.align	2
 874              		.global	MAX30101_ReadRawFIFO
 875              		.thumb
 876              		.thumb_func
 877              		.type	MAX30101_ReadRawFIFO, %function
 878              	MAX30101_ReadRawFIFO:
 879              	.LFB84:
 356:MAX30101.c    **** 
 357:MAX30101.c    **** // Read FIFO Data
 358:MAX30101.c    **** uint8_t MAX30101_ReadRawFIFO(uint8_t num_samples, uint8_t active_leds, uint32_t* data)
 359:MAX30101.c    **** {
 880              		.loc 1 359 0
 881              		.cfi_startproc
 882              		@ args = 0, pretend = 0, frame = 32
 883              		@ frame_needed = 1, uses_anonymous_args = 0
 884 0000 80B5     		push	{r7, lr}
 885              		.cfi_def_cfa_offset 8
 886              		.cfi_offset 7, -8
 887              		.cfi_offset 14, -4
 888 0002 88B0     		sub	sp, sp, #32
 889              		.cfi_def_cfa_offset 40
 890 0004 00AF     		add	r7, sp, #0
 891              		.cfi_def_cfa_register 7
 892 0006 0346     		mov	r3, r0
 893 0008 3A60     		str	r2, [r7]
 894 000a FB71     		strb	r3, [r7, #7]
 895 000c 0B46     		mov	r3, r1
ARM GAS  C:\Users\Perro\AppData\Local\Temp\ccDnyon7.s 			page 23


 896 000e BB71     		strb	r3, [r7, #6]
 360:MAX30101.c    ****     // We need to read a number of bytes equal to num_samples + 3 * active_leds
 361:MAX30101.c    ****     uint16_t bytes_left_ro_read = num_samples * 3 * active_leds;
 897              		.loc 1 361 0
 898 0010 FB79     		ldrb	r3, [r7, #7]	@ zero_extendqisi2
 899 0012 9BB2     		uxth	r3, r3
 900 0014 BA79     		ldrb	r2, [r7, #6]	@ zero_extendqisi2
 901 0016 92B2     		uxth	r2, r2
 902 0018 02FB03F3 		mul	r3, r2, r3
 903 001c 9BB2     		uxth	r3, r3
 904 001e 1A46     		mov	r2, r3	@ movhi
 905 0020 5200     		lsls	r2, r2, #1
 906 0022 1344     		add	r3, r3, r2
 907 0024 FB83     		strh	r3, [r7, #30]	@ movhi
 362:MAX30101.c    ****     uint8_t error;
 363:MAX30101.c    ****     //uint8_t error = I2C_Peripheral_WriteRegisterNoData(MAX30101_I2C_ADDRESS, MAX30101_FIFO_DATA);
 364:MAX30101.c    ****     //if ( error == I2C_NO_ERROR)
 365:MAX30101.c    ****     //{
 366:MAX30101.c    ****         uint8_t sample_counter = 0;
 908              		.loc 1 366 0
 909 0026 0023     		movs	r3, #0
 910 0028 3B77     		strb	r3, [r7, #28]
 367:MAX30101.c    ****         while(bytes_left_ro_read > 0)
 911              		.loc 1 367 0
 912 002a 56E0     		b	.L49
 913              	.L51:
 914              	.LBB3:
 368:MAX30101.c    ****         {
 369:MAX30101.c    ****             uint16_t bytes_to_get =  active_leds * 3;
 915              		.loc 1 369 0
 916 002c BB79     		ldrb	r3, [r7, #6]	@ zero_extendqisi2
 917 002e 9BB2     		uxth	r3, r3
 918 0030 1A46     		mov	r2, r3	@ movhi
 919 0032 5200     		lsls	r2, r2, #1
 920 0034 1344     		add	r3, r3, r2
 921 0036 7B83     		strh	r3, [r7, #26]	@ movhi
 370:MAX30101.c    ****             
 371:MAX30101.c    ****             bytes_left_ro_read -= bytes_to_get;
 922              		.loc 1 371 0
 923 0038 FA8B     		ldrh	r2, [r7, #30]	@ movhi
 924 003a 7B8B     		ldrh	r3, [r7, #26]	@ movhi
 925 003c D31A     		subs	r3, r2, r3
 926 003e FB83     		strh	r3, [r7, #30]	@ movhi
 372:MAX30101.c    ****             
 373:MAX30101.c    ****             uint8_t temp[sizeof(uint32_t)];
 374:MAX30101.c    ****             uint8_t temp_bytes[3];
 375:MAX30101.c    ****             uint32_t tempLong;
 376:MAX30101.c    ****             
 377:MAX30101.c    ****             error = I2C_Peripheral_ReadRegisterMulti(MAX30101_I2C_ADDRESS, MAX30101_FIFO_DATA, 3, t
 927              		.loc 1 377 0
 928 0040 07F11003 		add	r3, r7, #16
 929 0044 0322     		movs	r2, #3
 930 0046 0721     		movs	r1, #7
 931 0048 5720     		movs	r0, #87
 932 004a FFF7FEFF 		bl	I2C_Peripheral_ReadRegisterMulti
 933 004e 0346     		mov	r3, r0
 934 0050 7B77     		strb	r3, [r7, #29]
ARM GAS  C:\Users\Perro\AppData\Local\Temp\ccDnyon7.s 			page 24


 378:MAX30101.c    ****             
 379:MAX30101.c    ****             //Burst read three bytes - RED
 380:MAX30101.c    ****             temp[3] = 0;
 935              		.loc 1 380 0
 936 0052 0023     		movs	r3, #0
 937 0054 FB75     		strb	r3, [r7, #23]
 381:MAX30101.c    ****             temp[2] = temp_bytes[0];
 938              		.loc 1 381 0
 939 0056 3B7C     		ldrb	r3, [r7, #16]	@ zero_extendqisi2
 940 0058 BB75     		strb	r3, [r7, #22]
 382:MAX30101.c    ****             temp[1] = temp_bytes[1];
 941              		.loc 1 382 0
 942 005a 7B7C     		ldrb	r3, [r7, #17]	@ zero_extendqisi2
 943 005c 7B75     		strb	r3, [r7, #21]
 383:MAX30101.c    ****             temp[0] = temp_bytes[2];
 944              		.loc 1 383 0
 945 005e BB7C     		ldrb	r3, [r7, #18]	@ zero_extendqisi2
 946 0060 3B75     		strb	r3, [r7, #20]
 384:MAX30101.c    **** 
 385:MAX30101.c    ****             //Convert array to long
 386:MAX30101.c    ****             memcpy(&tempLong, temp, sizeof(tempLong));
 947              		.loc 1 386 0
 948 0062 07F11401 		add	r1, r7, #20
 949 0066 07F10C03 		add	r3, r7, #12
 950 006a 0422     		movs	r2, #4
 951 006c 1846     		mov	r0, r3
 952 006e FFF7FEFF 		bl	memcpy
 387:MAX30101.c    ****     		
 388:MAX30101.c    ****             //Zero out all but 18 bits
 389:MAX30101.c    ****     		tempLong &= 0x3FFFF; 
 953              		.loc 1 389 0
 954 0072 FB68     		ldr	r3, [r7, #12]
 955 0074 C3F31103 		ubfx	r3, r3, #0, #18
 956 0078 FB60     		str	r3, [r7, #12]
 390:MAX30101.c    ****             data[sample_counter] = tempLong;
 957              		.loc 1 390 0
 958 007a 3B7F     		ldrb	r3, [r7, #28]	@ zero_extendqisi2
 959 007c 9B00     		lsls	r3, r3, #2
 960 007e 3A68     		ldr	r2, [r7]
 961 0080 1344     		add	r3, r3, r2
 962 0082 FA68     		ldr	r2, [r7, #12]
 963 0084 1A60     		str	r2, [r3]
 391:MAX30101.c    ****             
 392:MAX30101.c    ****             if (active_leds > 1)
 964              		.loc 1 392 0
 965 0086 BB79     		ldrb	r3, [r7, #6]	@ zero_extendqisi2
 966 0088 012B     		cmp	r3, #1
 967 008a 23D9     		bls	.L50
 393:MAX30101.c    ****             {
 394:MAX30101.c    ****                 I2C_Peripheral_ReadRegisterMulti(MAX30101_I2C_ADDRESS, MAX30101_FIFO_DATA, 3, temp_
 968              		.loc 1 394 0
 969 008c 07F11003 		add	r3, r7, #16
 970 0090 0322     		movs	r2, #3
 971 0092 0721     		movs	r1, #7
 972 0094 5720     		movs	r0, #87
 973 0096 FFF7FEFF 		bl	I2C_Peripheral_ReadRegisterMulti
 395:MAX30101.c    ****                
ARM GAS  C:\Users\Perro\AppData\Local\Temp\ccDnyon7.s 			page 25


 396:MAX30101.c    ****                 //Burst read three bytes - IR
 397:MAX30101.c    ****                 temp[3] = 0;
 974              		.loc 1 397 0
 975 009a 0023     		movs	r3, #0
 976 009c FB75     		strb	r3, [r7, #23]
 398:MAX30101.c    ****                 temp[2] = temp_bytes[0];
 977              		.loc 1 398 0
 978 009e 3B7C     		ldrb	r3, [r7, #16]	@ zero_extendqisi2
 979 00a0 BB75     		strb	r3, [r7, #22]
 399:MAX30101.c    ****                 temp[1] = temp_bytes[1];
 980              		.loc 1 399 0
 981 00a2 7B7C     		ldrb	r3, [r7, #17]	@ zero_extendqisi2
 982 00a4 7B75     		strb	r3, [r7, #21]
 400:MAX30101.c    ****                 temp[0] = temp_bytes[2];
 983              		.loc 1 400 0
 984 00a6 BB7C     		ldrb	r3, [r7, #18]	@ zero_extendqisi2
 985 00a8 3B75     		strb	r3, [r7, #20]
 401:MAX30101.c    ****             
 402:MAX30101.c    ****                 //Convert array to long
 403:MAX30101.c    ****                 memcpy(&tempLong, temp, sizeof(tempLong));
 986              		.loc 1 403 0
 987 00aa 07F11401 		add	r1, r7, #20
 988 00ae 07F10C03 		add	r3, r7, #12
 989 00b2 0422     		movs	r2, #4
 990 00b4 1846     		mov	r0, r3
 991 00b6 FFF7FEFF 		bl	memcpy
 404:MAX30101.c    ****         		
 405:MAX30101.c    ****                 //Zero out all but 18 bits
 406:MAX30101.c    ****         		tempLong &= 0x3FFFF; 
 992              		.loc 1 406 0
 993 00ba FB68     		ldr	r3, [r7, #12]
 994 00bc C3F31103 		ubfx	r3, r3, #0, #18
 995 00c0 FB60     		str	r3, [r7, #12]
 407:MAX30101.c    ****                 sample_counter += 1;
 996              		.loc 1 407 0
 997 00c2 3B7F     		ldrb	r3, [r7, #28]
 998 00c4 0133     		adds	r3, r3, #1
 999 00c6 3B77     		strb	r3, [r7, #28]
 408:MAX30101.c    ****                 data[sample_counter] = tempLong;
 1000              		.loc 1 408 0
 1001 00c8 3B7F     		ldrb	r3, [r7, #28]	@ zero_extendqisi2
 1002 00ca 9B00     		lsls	r3, r3, #2
 1003 00cc 3A68     		ldr	r2, [r7]
 1004 00ce 1344     		add	r3, r3, r2
 1005 00d0 FA68     		ldr	r2, [r7, #12]
 1006 00d2 1A60     		str	r2, [r3]
 1007              	.L50:
 409:MAX30101.c    ****             }
 410:MAX30101.c    ****             sample_counter += 1;
 1008              		.loc 1 410 0
 1009 00d4 3B7F     		ldrb	r3, [r7, #28]
 1010 00d6 0133     		adds	r3, r3, #1
 1011 00d8 3B77     		strb	r3, [r7, #28]
 1012              	.L49:
 1013              	.LBE3:
 367:MAX30101.c    ****         {
 1014              		.loc 1 367 0
ARM GAS  C:\Users\Perro\AppData\Local\Temp\ccDnyon7.s 			page 26


 1015 00da FB8B     		ldrh	r3, [r7, #30]
 1016 00dc 002B     		cmp	r3, #0
 1017 00de A5D1     		bne	.L51
 411:MAX30101.c    ****         }
 412:MAX30101.c    ****     //}
 413:MAX30101.c    ****     return error;
 1018              		.loc 1 413 0
 1019 00e0 7B7F     		ldrb	r3, [r7, #29]	@ zero_extendqisi2
 414:MAX30101.c    **** }
 1020              		.loc 1 414 0
 1021 00e2 1846     		mov	r0, r3
 1022 00e4 2037     		adds	r7, r7, #32
 1023              		.cfi_def_cfa_offset 8
 1024 00e6 BD46     		mov	sp, r7
 1025              		.cfi_def_cfa_register 13
 1026              		@ sp needed
 1027 00e8 80BD     		pop	{r7, pc}
 1028              		.cfi_endproc
 1029              	.LFE84:
 1030              		.size	MAX30101_ReadRawFIFO, .-MAX30101_ReadRawFIFO
 1031 00ea 00BF     		.section	.text.MAX30101_ReadFIFO,"ax",%progbits
 1032              		.align	2
 1033              		.global	MAX30101_ReadFIFO
 1034              		.thumb
 1035              		.thumb_func
 1036              		.type	MAX30101_ReadFIFO, %function
 1037              	MAX30101_ReadFIFO:
 1038              	.LFB85:
 415:MAX30101.c    **** 
 416:MAX30101.c    **** 
 417:MAX30101.c    **** // Read FIFO Data
 418:MAX30101.c    **** uint8_t MAX30101_ReadFIFO(uint8_t num_samples, uint8_t active_leds, MAX30101_Data* data, int j)
 419:MAX30101.c    **** {
 1039              		.loc 1 419 0
 1040              		.cfi_startproc
 1041              		@ args = 0, pretend = 0, frame = 32
 1042              		@ frame_needed = 1, uses_anonymous_args = 0
 1043 0000 80B5     		push	{r7, lr}
 1044              		.cfi_def_cfa_offset 8
 1045              		.cfi_offset 7, -8
 1046              		.cfi_offset 14, -4
 1047 0002 88B0     		sub	sp, sp, #32
 1048              		.cfi_def_cfa_offset 40
 1049 0004 00AF     		add	r7, sp, #0
 1050              		.cfi_def_cfa_register 7
 1051 0006 BA60     		str	r2, [r7, #8]
 1052 0008 7B60     		str	r3, [r7, #4]
 1053 000a 0346     		mov	r3, r0
 1054 000c FB73     		strb	r3, [r7, #15]
 1055 000e 0B46     		mov	r3, r1
 1056 0010 BB73     		strb	r3, [r7, #14]
 420:MAX30101.c    ****     /*if((num_samples + j) > 200) {
 421:MAX30101.c    ****         num_samples = 200 % j;   
 422:MAX30101.c    ****     }*/
 423:MAX30101.c    ****     // We need to read a number of bytes equal to num_samples + 3 * active_leds
 424:MAX30101.c    ****     uint16_t bytes_left_ro_read = num_samples * 3 * active_leds;
 1057              		.loc 1 424 0
ARM GAS  C:\Users\Perro\AppData\Local\Temp\ccDnyon7.s 			page 27


 1058 0012 FB7B     		ldrb	r3, [r7, #15]	@ zero_extendqisi2
 1059 0014 9BB2     		uxth	r3, r3
 1060 0016 BA7B     		ldrb	r2, [r7, #14]	@ zero_extendqisi2
 1061 0018 92B2     		uxth	r2, r2
 1062 001a 02FB03F3 		mul	r3, r2, r3
 1063 001e 9BB2     		uxth	r3, r3
 1064 0020 1A46     		mov	r2, r3	@ movhi
 1065 0022 5200     		lsls	r2, r2, #1
 1066 0024 1344     		add	r3, r3, r2
 1067 0026 FB83     		strh	r3, [r7, #30]	@ movhi
 425:MAX30101.c    ****     uint8_t error = MAX30101_OK;
 1068              		.loc 1 425 0
 1069 0028 0023     		movs	r3, #0
 1070 002a 7B77     		strb	r3, [r7, #29]
 426:MAX30101.c    ****     
 427:MAX30101.c    ****     
 428:MAX30101.c    ****     // Read current resolution so that we know how much shift to apply
 429:MAX30101.c    ****     uint8_t resolution = 0;
 1071              		.loc 1 429 0
 1072 002c 0023     		movs	r3, #0
 1073 002e 7B76     		strb	r3, [r7, #25]
 430:MAX30101.c    ****     I2C_Peripheral_ReadRegister(MAX30101_I2C_ADDRESS, MAX30101_SPO2_CONF, &resolution);
 1074              		.loc 1 430 0
 1075 0030 07F11903 		add	r3, r7, #25
 1076 0034 1A46     		mov	r2, r3
 1077 0036 0A21     		movs	r1, #10
 1078 0038 5720     		movs	r0, #87
 1079 003a FFF7FEFF 		bl	I2C_Peripheral_ReadRegister
 431:MAX30101.c    ****     resolution &= (~MAX30101_SPO2_PULSEWIDTH_MASK);
 1080              		.loc 1 431 0
 1081 003e 7B7E     		ldrb	r3, [r7, #25]	@ zero_extendqisi2
 1082 0040 03F00303 		and	r3, r3, #3
 1083 0044 DBB2     		uxtb	r3, r3
 1084 0046 7B76     		strb	r3, [r7, #25]
 432:MAX30101.c    ****     
 433:MAX30101.c    ****     I2C_Master_MasterSendStart(MAX30101_I2C_ADDRESS, I2C_Master_WRITE_XFER_MODE);
 1085              		.loc 1 433 0
 1086 0048 0021     		movs	r1, #0
 1087 004a 5720     		movs	r0, #87
 1088 004c FFF7FEFF 		bl	I2C_Master_MasterSendStart
 434:MAX30101.c    ****     I2C_Master_MasterWriteByte(MAX30101_FIFO_DATA);
 1089              		.loc 1 434 0
 1090 0050 0720     		movs	r0, #7
 1091 0052 FFF7FEFF 		bl	I2C_Master_MasterWriteByte
 435:MAX30101.c    ****     I2C_Master_MasterSendRestart(MAX30101_I2C_ADDRESS, I2C_Master_READ_XFER_MODE);
 1092              		.loc 1 435 0
 1093 0056 0121     		movs	r1, #1
 1094 0058 5720     		movs	r0, #87
 1095 005a FFF7FEFF 		bl	I2C_Master_MasterSendRestart
 436:MAX30101.c    ****     
 437:MAX30101.c    ****     //I2C_Peripheral_WriteRegisterNoData(MAX30101_I2C_ADDRESS, MAX30101_FIFO_DATA);
 438:MAX30101.c    ****     //I2C_Peripheral_StartReadNoAddress(MAX30101_I2C_ADDRESS);
 439:MAX30101.c    ****     
 440:MAX30101.c    ****     while(bytes_left_ro_read > 0)
 1096              		.loc 1 440 0
 1097 005e 76E0     		b	.L54
 1098              	.L56:
ARM GAS  C:\Users\Perro\AppData\Local\Temp\ccDnyon7.s 			page 28


 1099              	.LBB4:
 441:MAX30101.c    ****     {
 442:MAX30101.c    ****         uint16_t bytes_to_get =  active_leds * 3;
 1100              		.loc 1 442 0
 1101 0060 BB7B     		ldrb	r3, [r7, #14]	@ zero_extendqisi2
 1102 0062 9BB2     		uxth	r3, r3
 1103 0064 1A46     		mov	r2, r3	@ movhi
 1104 0066 5200     		lsls	r2, r2, #1
 1105 0068 1344     		add	r3, r3, r2
 1106 006a 7B83     		strh	r3, [r7, #26]	@ movhi
 443:MAX30101.c    ****         
 444:MAX30101.c    ****         bytes_left_ro_read -= bytes_to_get;
 1107              		.loc 1 444 0
 1108 006c FA8B     		ldrh	r2, [r7, #30]	@ movhi
 1109 006e 7B8B     		ldrh	r3, [r7, #26]	@ movhi
 1110 0070 D31A     		subs	r3, r2, r3
 1111 0072 FB83     		strh	r3, [r7, #30]	@ movhi
 445:MAX30101.c    ****         
 446:MAX30101.c    ****         data->head++; //Advance the head of the storage struct
 1112              		.loc 1 446 0
 1113 0074 BB68     		ldr	r3, [r7, #8]
 1114 0076 93F88031 		ldrb	r3, [r3, #384]	@ zero_extendqisi2
 1115 007a 0133     		adds	r3, r3, #1
 1116 007c DAB2     		uxtb	r2, r3
 1117 007e BB68     		ldr	r3, [r7, #8]
 1118 0080 83F88021 		strb	r2, [r3, #384]
 447:MAX30101.c    ****         data->head %= BUFFER_STORAGE_SIZE; //Wrap condition
 1119              		.loc 1 447 0
 1120 0084 BB68     		ldr	r3, [r7, #8]
 1121 0086 93F88031 		ldrb	r3, [r3, #384]	@ zero_extendqisi2
 1122 008a 03F01F03 		and	r3, r3, #31
 1123 008e DAB2     		uxtb	r2, r3
 1124 0090 BB68     		ldr	r3, [r7, #8]
 1125 0092 83F88021 		strb	r2, [r3, #384]
 448:MAX30101.c    ****         
 449:MAX30101.c    ****         uint8_t temp[sizeof(uint32_t)];
 450:MAX30101.c    ****         uint32_t tempLong;
 451:MAX30101.c    ****         
 452:MAX30101.c    ****         //error = I2C_Peripheral_ReadBytes(temp_bytes, 3);
 453:MAX30101.c    ****         
 454:MAX30101.c    ****         //Burst read three bytes - RED
 455:MAX30101.c    ****         temp[3] = 0;
 1126              		.loc 1 455 0
 1127 0096 0023     		movs	r3, #0
 1128 0098 FB75     		strb	r3, [r7, #23]
 456:MAX30101.c    ****         temp[2] = I2C_Master_MasterReadByte(I2C_Master_ACK_DATA);
 1129              		.loc 1 456 0
 1130 009a 0120     		movs	r0, #1
 1131 009c FFF7FEFF 		bl	I2C_Master_MasterReadByte
 1132 00a0 0346     		mov	r3, r0
 1133 00a2 BB75     		strb	r3, [r7, #22]
 457:MAX30101.c    ****         temp[1] = I2C_Master_MasterReadByte(I2C_Master_ACK_DATA);
 1134              		.loc 1 457 0
 1135 00a4 0120     		movs	r0, #1
 1136 00a6 FFF7FEFF 		bl	I2C_Master_MasterReadByte
 1137 00aa 0346     		mov	r3, r0
 1138 00ac 7B75     		strb	r3, [r7, #21]
ARM GAS  C:\Users\Perro\AppData\Local\Temp\ccDnyon7.s 			page 29


 458:MAX30101.c    ****         temp[0] = I2C_Master_MasterReadByte(I2C_Master_ACK_DATA);
 1139              		.loc 1 458 0
 1140 00ae 0120     		movs	r0, #1
 1141 00b0 FFF7FEFF 		bl	I2C_Master_MasterReadByte
 1142 00b4 0346     		mov	r3, r0
 1143 00b6 3B75     		strb	r3, [r7, #20]
 459:MAX30101.c    **** 
 460:MAX30101.c    ****         //Convert array to long
 461:MAX30101.c    ****         memcpy(&tempLong, temp, sizeof(tempLong));
 1144              		.loc 1 461 0
 1145 00b8 07F11401 		add	r1, r7, #20
 1146 00bc 07F11003 		add	r3, r7, #16
 1147 00c0 0422     		movs	r2, #4
 1148 00c2 1846     		mov	r0, r3
 1149 00c4 FFF7FEFF 		bl	memcpy
 462:MAX30101.c    **** 		
 463:MAX30101.c    ****         //Zero out all but 18 bits
 464:MAX30101.c    **** 		tempLong &= 0x3FFFF; 
 1150              		.loc 1 464 0
 1151 00c8 3B69     		ldr	r3, [r7, #16]
 1152 00ca C3F31103 		ubfx	r3, r3, #0, #18
 1153 00ce 3B61     		str	r3, [r7, #16]
 465:MAX30101.c    ****         
 466:MAX30101.c    ****         // Shift according to resolution
 467:MAX30101.c    ****         tempLong = tempLong >> (MAX30101_SHIFT(resolution));
 1154              		.loc 1 467 0
 1155 00d0 3A69     		ldr	r2, [r7, #16]
 1156 00d2 7B7E     		ldrb	r3, [r7, #25]	@ zero_extendqisi2
 1157 00d4 C3F10403 		rsb	r3, r3, #4
 1158 00d8 22FA03F3 		lsr	r3, r2, r3
 1159 00dc 3B61     		str	r3, [r7, #16]
 468:MAX30101.c    ****         
 469:MAX30101.c    ****         data->red[data->head] = tempLong; //Store this reading into the data array
 1160              		.loc 1 469 0
 1161 00de BB68     		ldr	r3, [r7, #8]
 1162 00e0 93F88031 		ldrb	r3, [r3, #384]	@ zero_extendqisi2
 1163 00e4 1946     		mov	r1, r3
 1164 00e6 3A69     		ldr	r2, [r7, #16]
 1165 00e8 BB68     		ldr	r3, [r7, #8]
 1166 00ea 43F82120 		str	r2, [r3, r1, lsl #2]
 470:MAX30101.c    ****         
 471:MAX30101.c    ****         if (active_leds > 1)
 1167              		.loc 1 471 0
 1168 00ee BB7B     		ldrb	r3, [r7, #14]	@ zero_extendqisi2
 1169 00f0 012B     		cmp	r3, #1
 1170 00f2 2CD9     		bls	.L54
 472:MAX30101.c    ****         {
 473:MAX30101.c    ****             //error = I2C_Peripheral_ReadBytes(temp_bytes, 3);
 474:MAX30101.c    ****            
 475:MAX30101.c    ****             //Burst read three bytes - IR
 476:MAX30101.c    ****             temp[3] = 0;
 1171              		.loc 1 476 0
 1172 00f4 0023     		movs	r3, #0
 1173 00f6 FB75     		strb	r3, [r7, #23]
 477:MAX30101.c    ****             temp[2] = I2C_Master_MasterReadByte(I2C_Master_ACK_DATA);
 1174              		.loc 1 477 0
 1175 00f8 0120     		movs	r0, #1
ARM GAS  C:\Users\Perro\AppData\Local\Temp\ccDnyon7.s 			page 30


 1176 00fa FFF7FEFF 		bl	I2C_Master_MasterReadByte
 1177 00fe 0346     		mov	r3, r0
 1178 0100 BB75     		strb	r3, [r7, #22]
 478:MAX30101.c    ****             temp[1] = I2C_Master_MasterReadByte(I2C_Master_ACK_DATA);
 1179              		.loc 1 478 0
 1180 0102 0120     		movs	r0, #1
 1181 0104 FFF7FEFF 		bl	I2C_Master_MasterReadByte
 1182 0108 0346     		mov	r3, r0
 1183 010a 7B75     		strb	r3, [r7, #21]
 479:MAX30101.c    ****             temp[0] = I2C_Master_MasterReadByte(I2C_Master_ACK_DATA);
 1184              		.loc 1 479 0
 1185 010c 0120     		movs	r0, #1
 1186 010e FFF7FEFF 		bl	I2C_Master_MasterReadByte
 1187 0112 0346     		mov	r3, r0
 1188 0114 3B75     		strb	r3, [r7, #20]
 480:MAX30101.c    ****         
 481:MAX30101.c    ****             //Convert array to long
 482:MAX30101.c    ****             memcpy(&tempLong, temp, sizeof(tempLong));
 1189              		.loc 1 482 0
 1190 0116 07F11401 		add	r1, r7, #20
 1191 011a 07F11003 		add	r3, r7, #16
 1192 011e 0422     		movs	r2, #4
 1193 0120 1846     		mov	r0, r3
 1194 0122 FFF7FEFF 		bl	memcpy
 483:MAX30101.c    ****     		
 484:MAX30101.c    ****             //Zero out all but 18 bits
 485:MAX30101.c    ****     		tempLong &= 0x3FFFF;
 1195              		.loc 1 485 0
 1196 0126 3B69     		ldr	r3, [r7, #16]
 1197 0128 C3F31103 		ubfx	r3, r3, #0, #18
 1198 012c 3B61     		str	r3, [r7, #16]
 486:MAX30101.c    ****             tempLong = tempLong >> (MAX30101_SHIFT(resolution));
 1199              		.loc 1 486 0
 1200 012e 3A69     		ldr	r2, [r7, #16]
 1201 0130 7B7E     		ldrb	r3, [r7, #25]	@ zero_extendqisi2
 1202 0132 C3F10403 		rsb	r3, r3, #4
 1203 0136 22FA03F3 		lsr	r3, r2, r3
 1204 013a 3B61     		str	r3, [r7, #16]
 487:MAX30101.c    ****             
 488:MAX30101.c    ****             data->IR[data->head] = tempLong; //Store this reading into the sense array
 1205              		.loc 1 488 0
 1206 013c BB68     		ldr	r3, [r7, #8]
 1207 013e 93F88031 		ldrb	r3, [r3, #384]	@ zero_extendqisi2
 1208 0142 1A46     		mov	r2, r3
 1209 0144 3969     		ldr	r1, [r7, #16]
 1210 0146 BB68     		ldr	r3, [r7, #8]
 1211 0148 2032     		adds	r2, r2, #32
 1212 014a 43F82210 		str	r1, [r3, r2, lsl #2]
 1213              	.L54:
 1214              	.LBE4:
 440:MAX30101.c    ****     {
 1215              		.loc 1 440 0
 1216 014e FB8B     		ldrh	r3, [r7, #30]
 1217 0150 002B     		cmp	r3, #0
 1218 0152 85D1     		bne	.L56
 489:MAX30101.c    ****         }
 490:MAX30101.c    ****     }
ARM GAS  C:\Users\Perro\AppData\Local\Temp\ccDnyon7.s 			page 31


 491:MAX30101.c    ****     
 492:MAX30101.c    ****     I2C_Master_MasterSendStop();
 1219              		.loc 1 492 0
 1220 0154 FFF7FEFF 		bl	I2C_Master_MasterSendStop
 493:MAX30101.c    ****     return num_samples;
 1221              		.loc 1 493 0
 1222 0158 FB7B     		ldrb	r3, [r7, #15]	@ zero_extendqisi2
 494:MAX30101.c    **** }
 1223              		.loc 1 494 0
 1224 015a 1846     		mov	r0, r3
 1225 015c 2037     		adds	r7, r7, #32
 1226              		.cfi_def_cfa_offset 8
 1227 015e BD46     		mov	sp, r7
 1228              		.cfi_def_cfa_register 13
 1229              		@ sp needed
 1230 0160 80BD     		pop	{r7, pc}
 1231              		.cfi_endproc
 1232              	.LFE85:
 1233              		.size	MAX30101_ReadFIFO, .-MAX30101_ReadFIFO
 1234 0162 00BF     		.section	.text.MAX30101_SetSampleAverage,"ax",%progbits
 1235              		.align	2
 1236              		.global	MAX30101_SetSampleAverage
 1237              		.thumb
 1238              		.thumb_func
 1239              		.type	MAX30101_SetSampleAverage, %function
 1240              	MAX30101_SetSampleAverage:
 1241              	.LFB86:
 495:MAX30101.c    **** 
 496:MAX30101.c    **** //==============================================
 497:MAX30101.c    **** //    MAX30101 FIFO CONFIGURATION FUNCTIONS
 498:MAX30101.c    **** //==============================================
 499:MAX30101.c    **** 
 500:MAX30101.c    **** /// Set number of averaged samples
 501:MAX30101.c    **** uint8_t MAX30101_SetSampleAverage(uint8_t samples)
 502:MAX30101.c    **** {
 1242              		.loc 1 502 0
 1243              		.cfi_startproc
 1244              		@ args = 0, pretend = 0, frame = 8
 1245              		@ frame_needed = 1, uses_anonymous_args = 0
 1246 0000 80B5     		push	{r7, lr}
 1247              		.cfi_def_cfa_offset 8
 1248              		.cfi_offset 7, -8
 1249              		.cfi_offset 14, -4
 1250 0002 82B0     		sub	sp, sp, #8
 1251              		.cfi_def_cfa_offset 16
 1252 0004 00AF     		add	r7, sp, #0
 1253              		.cfi_def_cfa_register 7
 1254 0006 0346     		mov	r3, r0
 1255 0008 FB71     		strb	r3, [r7, #7]
 503:MAX30101.c    ****     return MAX30101_BitMask(MAX30101_FIFO_CONF, MAX30101_SMP_AVG_MASK, samples);
 1256              		.loc 1 503 0
 1257 000a FB79     		ldrb	r3, [r7, #7]	@ zero_extendqisi2
 1258 000c 1A46     		mov	r2, r3
 1259 000e 1F21     		movs	r1, #31
 1260 0010 0820     		movs	r0, #8
 1261 0012 FFF7FEFF 		bl	MAX30101_BitMask
 1262 0016 0346     		mov	r3, r0
ARM GAS  C:\Users\Perro\AppData\Local\Temp\ccDnyon7.s 			page 32


 504:MAX30101.c    **** }
 1263              		.loc 1 504 0
 1264 0018 1846     		mov	r0, r3
 1265 001a 0837     		adds	r7, r7, #8
 1266              		.cfi_def_cfa_offset 8
 1267 001c BD46     		mov	sp, r7
 1268              		.cfi_def_cfa_register 13
 1269              		@ sp needed
 1270 001e 80BD     		pop	{r7, pc}
 1271              		.cfi_endproc
 1272              	.LFE86:
 1273              		.size	MAX30101_SetSampleAverage, .-MAX30101_SetSampleAverage
 1274              		.section	.text.MAX30101_EnableFIFORollover,"ax",%progbits
 1275              		.align	2
 1276              		.global	MAX30101_EnableFIFORollover
 1277              		.thumb
 1278              		.thumb_func
 1279              		.type	MAX30101_EnableFIFORollover, %function
 1280              	MAX30101_EnableFIFORollover:
 1281              	.LFB87:
 505:MAX30101.c    **** 
 506:MAX30101.c    **** // Enable FIFO rollover
 507:MAX30101.c    **** uint8_t MAX30101_EnableFIFORollover(void)
 508:MAX30101.c    **** {
 1282              		.loc 1 508 0
 1283              		.cfi_startproc
 1284              		@ args = 0, pretend = 0, frame = 0
 1285              		@ frame_needed = 1, uses_anonymous_args = 0
 1286 0000 80B5     		push	{r7, lr}
 1287              		.cfi_def_cfa_offset 8
 1288              		.cfi_offset 7, -8
 1289              		.cfi_offset 14, -4
 1290 0002 00AF     		add	r7, sp, #0
 1291              		.cfi_def_cfa_register 7
 509:MAX30101.c    ****     return MAX30101_BitMask(MAX30101_FIFO_CONF, MAX30101_FIFO_ROLLOVER_MASK, MAX30101_FIFO_ROLLOVER
 1292              		.loc 1 509 0
 1293 0004 1022     		movs	r2, #16
 1294 0006 EF21     		movs	r1, #239
 1295 0008 0820     		movs	r0, #8
 1296 000a FFF7FEFF 		bl	MAX30101_BitMask
 1297 000e 0346     		mov	r3, r0
 510:MAX30101.c    **** }
 1298              		.loc 1 510 0
 1299 0010 1846     		mov	r0, r3
 1300 0012 80BD     		pop	{r7, pc}
 1301              		.cfi_endproc
 1302              	.LFE87:
 1303              		.size	MAX30101_EnableFIFORollover, .-MAX30101_EnableFIFORollover
 1304              		.section	.text.MAX30101_DisableFIFORollover,"ax",%progbits
 1305              		.align	2
 1306              		.global	MAX30101_DisableFIFORollover
 1307              		.thumb
 1308              		.thumb_func
 1309              		.type	MAX30101_DisableFIFORollover, %function
 1310              	MAX30101_DisableFIFORollover:
 1311              	.LFB88:
 511:MAX30101.c    **** 
ARM GAS  C:\Users\Perro\AppData\Local\Temp\ccDnyon7.s 			page 33


 512:MAX30101.c    **** // Disable FIFO rollover
 513:MAX30101.c    **** uint8_t MAX30101_DisableFIFORollover(void)
 514:MAX30101.c    **** {
 1312              		.loc 1 514 0
 1313              		.cfi_startproc
 1314              		@ args = 0, pretend = 0, frame = 0
 1315              		@ frame_needed = 1, uses_anonymous_args = 0
 1316 0000 80B5     		push	{r7, lr}
 1317              		.cfi_def_cfa_offset 8
 1318              		.cfi_offset 7, -8
 1319              		.cfi_offset 14, -4
 1320 0002 00AF     		add	r7, sp, #0
 1321              		.cfi_def_cfa_register 7
 515:MAX30101.c    ****     return MAX30101_BitMask(MAX30101_FIFO_CONF, MAX30101_FIFO_ROLLOVER_MASK, MAX30101_FIFO_ROLLOVER
 1322              		.loc 1 515 0
 1323 0004 0022     		movs	r2, #0
 1324 0006 EF21     		movs	r1, #239
 1325 0008 0820     		movs	r0, #8
 1326 000a FFF7FEFF 		bl	MAX30101_BitMask
 1327 000e 0346     		mov	r3, r0
 516:MAX30101.c    **** }
 1328              		.loc 1 516 0
 1329 0010 1846     		mov	r0, r3
 1330 0012 80BD     		pop	{r7, pc}
 1331              		.cfi_endproc
 1332              	.LFE88:
 1333              		.size	MAX30101_DisableFIFORollover, .-MAX30101_DisableFIFORollover
 1334              		.section	.text.MAX30101_SetFIFOAlmostFull,"ax",%progbits
 1335              		.align	2
 1336              		.global	MAX30101_SetFIFOAlmostFull
 1337              		.thumb
 1338              		.thumb_func
 1339              		.type	MAX30101_SetFIFOAlmostFull, %function
 1340              	MAX30101_SetFIFOAlmostFull:
 1341              	.LFB89:
 517:MAX30101.c    **** 
 518:MAX30101.c    **** // Set number of samples for FIFO Almost Full
 519:MAX30101.c    **** uint8_t MAX30101_SetFIFOAlmostFull(uint8_t samples)
 520:MAX30101.c    **** {
 1342              		.loc 1 520 0
 1343              		.cfi_startproc
 1344              		@ args = 0, pretend = 0, frame = 8
 1345              		@ frame_needed = 1, uses_anonymous_args = 0
 1346 0000 80B5     		push	{r7, lr}
 1347              		.cfi_def_cfa_offset 8
 1348              		.cfi_offset 7, -8
 1349              		.cfi_offset 14, -4
 1350 0002 82B0     		sub	sp, sp, #8
 1351              		.cfi_def_cfa_offset 16
 1352 0004 00AF     		add	r7, sp, #0
 1353              		.cfi_def_cfa_register 7
 1354 0006 0346     		mov	r3, r0
 1355 0008 FB71     		strb	r3, [r7, #7]
 521:MAX30101.c    ****     return MAX30101_BitMask(MAX30101_FIFO_CONF, MAX30101_FIFO_A_FULL_MASK, 32-samples);
 1356              		.loc 1 521 0
 1357 000a FB79     		ldrb	r3, [r7, #7]
 1358 000c C3F12003 		rsb	r3, r3, #32
ARM GAS  C:\Users\Perro\AppData\Local\Temp\ccDnyon7.s 			page 34


 1359 0010 DBB2     		uxtb	r3, r3
 1360 0012 1A46     		mov	r2, r3
 1361 0014 F021     		movs	r1, #240
 1362 0016 0820     		movs	r0, #8
 1363 0018 FFF7FEFF 		bl	MAX30101_BitMask
 1364 001c 0346     		mov	r3, r0
 522:MAX30101.c    **** }
 1365              		.loc 1 522 0
 1366 001e 1846     		mov	r0, r3
 1367 0020 0837     		adds	r7, r7, #8
 1368              		.cfi_def_cfa_offset 8
 1369 0022 BD46     		mov	sp, r7
 1370              		.cfi_def_cfa_register 13
 1371              		@ sp needed
 1372 0024 80BD     		pop	{r7, pc}
 1373              		.cfi_endproc
 1374              	.LFE89:
 1375              		.size	MAX30101_SetFIFOAlmostFull, .-MAX30101_SetFIFOAlmostFull
 1376 0026 00BF     		.section	.text.MAX30101_Shutdown,"ax",%progbits
 1377              		.align	2
 1378              		.global	MAX30101_Shutdown
 1379              		.thumb
 1380              		.thumb_func
 1381              		.type	MAX30101_Shutdown, %function
 1382              	MAX30101_Shutdown:
 1383              	.LFB90:
 523:MAX30101.c    **** 
 524:MAX30101.c    **** //==============================================
 525:MAX30101.c    **** //     MAX30101 MODE CONFIGURATION FUNCTIONS
 526:MAX30101.c    **** //==============================================
 527:MAX30101.c    **** 
 528:MAX30101.c    **** // Shutdown the MAX30101
 529:MAX30101.c    **** uint8_t MAX30101_Shutdown(void)
 530:MAX30101.c    **** {
 1384              		.loc 1 530 0
 1385              		.cfi_startproc
 1386              		@ args = 0, pretend = 0, frame = 0
 1387              		@ frame_needed = 1, uses_anonymous_args = 0
 1388 0000 80B5     		push	{r7, lr}
 1389              		.cfi_def_cfa_offset 8
 1390              		.cfi_offset 7, -8
 1391              		.cfi_offset 14, -4
 1392 0002 00AF     		add	r7, sp, #0
 1393              		.cfi_def_cfa_register 7
 531:MAX30101.c    ****     return MAX30101_BitMask(MAX30101_MODE_CONF, MAX30101_SHUTDOWN_MASK, MAX30101_SHUTDOWN_ENABLE);
 1394              		.loc 1 531 0
 1395 0004 8022     		movs	r2, #128
 1396 0006 7F21     		movs	r1, #127
 1397 0008 0920     		movs	r0, #9
 1398 000a FFF7FEFF 		bl	MAX30101_BitMask
 1399 000e 0346     		mov	r3, r0
 532:MAX30101.c    **** }
 1400              		.loc 1 532 0
 1401 0010 1846     		mov	r0, r3
 1402 0012 80BD     		pop	{r7, pc}
 1403              		.cfi_endproc
 1404              	.LFE90:
ARM GAS  C:\Users\Perro\AppData\Local\Temp\ccDnyon7.s 			page 35


 1405              		.size	MAX30101_Shutdown, .-MAX30101_Shutdown
 1406              		.section	.text.MAX30101_WakeUp,"ax",%progbits
 1407              		.align	2
 1408              		.global	MAX30101_WakeUp
 1409              		.thumb
 1410              		.thumb_func
 1411              		.type	MAX30101_WakeUp, %function
 1412              	MAX30101_WakeUp:
 1413              	.LFB91:
 533:MAX30101.c    **** 
 534:MAX30101.c    **** // Wake Up the MAX30101
 535:MAX30101.c    **** uint8_t MAX30101_WakeUp(void)
 536:MAX30101.c    **** {
 1414              		.loc 1 536 0
 1415              		.cfi_startproc
 1416              		@ args = 0, pretend = 0, frame = 0
 1417              		@ frame_needed = 1, uses_anonymous_args = 0
 1418 0000 80B5     		push	{r7, lr}
 1419              		.cfi_def_cfa_offset 8
 1420              		.cfi_offset 7, -8
 1421              		.cfi_offset 14, -4
 1422 0002 00AF     		add	r7, sp, #0
 1423              		.cfi_def_cfa_register 7
 537:MAX30101.c    ****     return MAX30101_BitMask(MAX30101_MODE_CONF, MAX30101_SHUTDOWN_MASK, MAX30101_SHUTDOWN_DISABLE);
 1424              		.loc 1 537 0
 1425 0004 0022     		movs	r2, #0
 1426 0006 7F21     		movs	r1, #127
 1427 0008 0920     		movs	r0, #9
 1428 000a FFF7FEFF 		bl	MAX30101_BitMask
 1429 000e 0346     		mov	r3, r0
 538:MAX30101.c    **** }
 1430              		.loc 1 538 0
 1431 0010 1846     		mov	r0, r3
 1432 0012 80BD     		pop	{r7, pc}
 1433              		.cfi_endproc
 1434              	.LFE91:
 1435              		.size	MAX30101_WakeUp, .-MAX30101_WakeUp
 1436              		.section	.text.MAX30101_Reset,"ax",%progbits
 1437              		.align	2
 1438              		.global	MAX30101_Reset
 1439              		.thumb
 1440              		.thumb_func
 1441              		.type	MAX30101_Reset, %function
 1442              	MAX30101_Reset:
 1443              	.LFB92:
 539:MAX30101.c    **** 
 540:MAX30101.c    **** // Reset the MAX30101
 541:MAX30101.c    **** uint8_t MAX30101_Reset(void)
 542:MAX30101.c    **** {
 1444              		.loc 1 542 0
 1445              		.cfi_startproc
 1446              		@ args = 0, pretend = 0, frame = 0
 1447              		@ frame_needed = 1, uses_anonymous_args = 0
 1448 0000 80B5     		push	{r7, lr}
 1449              		.cfi_def_cfa_offset 8
 1450              		.cfi_offset 7, -8
 1451              		.cfi_offset 14, -4
ARM GAS  C:\Users\Perro\AppData\Local\Temp\ccDnyon7.s 			page 36


 1452 0002 00AF     		add	r7, sp, #0
 1453              		.cfi_def_cfa_register 7
 543:MAX30101.c    ****     return MAX30101_BitMask(MAX30101_MODE_CONF, MAX30101_RESET_MASK, MAX30101_RESET_ENABLE);    
 1454              		.loc 1 543 0
 1455 0004 4022     		movs	r2, #64
 1456 0006 BF21     		movs	r1, #191
 1457 0008 0920     		movs	r0, #9
 1458 000a FFF7FEFF 		bl	MAX30101_BitMask
 1459 000e 0346     		mov	r3, r0
 544:MAX30101.c    **** }
 1460              		.loc 1 544 0
 1461 0010 1846     		mov	r0, r3
 1462 0012 80BD     		pop	{r7, pc}
 1463              		.cfi_endproc
 1464              	.LFE92:
 1465              		.size	MAX30101_Reset, .-MAX30101_Reset
 1466              		.section	.text.MAX30101_SetMode,"ax",%progbits
 1467              		.align	2
 1468              		.global	MAX30101_SetMode
 1469              		.thumb
 1470              		.thumb_func
 1471              		.type	MAX30101_SetMode, %function
 1472              	MAX30101_SetMode:
 1473              	.LFB93:
 545:MAX30101.c    **** 
 546:MAX30101.c    **** // Set current mode of operation
 547:MAX30101.c    **** uint8_t MAX30101_SetMode(uint8_t mode)
 548:MAX30101.c    **** {
 1474              		.loc 1 548 0
 1475              		.cfi_startproc
 1476              		@ args = 0, pretend = 0, frame = 8
 1477              		@ frame_needed = 1, uses_anonymous_args = 0
 1478 0000 80B5     		push	{r7, lr}
 1479              		.cfi_def_cfa_offset 8
 1480              		.cfi_offset 7, -8
 1481              		.cfi_offset 14, -4
 1482 0002 82B0     		sub	sp, sp, #8
 1483              		.cfi_def_cfa_offset 16
 1484 0004 00AF     		add	r7, sp, #0
 1485              		.cfi_def_cfa_register 7
 1486 0006 0346     		mov	r3, r0
 1487 0008 FB71     		strb	r3, [r7, #7]
 549:MAX30101.c    ****     return MAX30101_BitMask(MAX30101_MODE_CONF, MAX30101_MODE_MASK, mode);
 1488              		.loc 1 549 0
 1489 000a FB79     		ldrb	r3, [r7, #7]	@ zero_extendqisi2
 1490 000c 1A46     		mov	r2, r3
 1491 000e F821     		movs	r1, #248
 1492 0010 0920     		movs	r0, #9
 1493 0012 FFF7FEFF 		bl	MAX30101_BitMask
 1494 0016 0346     		mov	r3, r0
 550:MAX30101.c    **** }
 1495              		.loc 1 550 0
 1496 0018 1846     		mov	r0, r3
 1497 001a 0837     		adds	r7, r7, #8
 1498              		.cfi_def_cfa_offset 8
 1499 001c BD46     		mov	sp, r7
 1500              		.cfi_def_cfa_register 13
ARM GAS  C:\Users\Perro\AppData\Local\Temp\ccDnyon7.s 			page 37


 1501              		@ sp needed
 1502 001e 80BD     		pop	{r7, pc}
 1503              		.cfi_endproc
 1504              	.LFE93:
 1505              		.size	MAX30101_SetMode, .-MAX30101_SetMode
 1506              		.section	.text.MAX30101_SetSpO2ADCRange,"ax",%progbits
 1507              		.align	2
 1508              		.global	MAX30101_SetSpO2ADCRange
 1509              		.thumb
 1510              		.thumb_func
 1511              		.type	MAX30101_SetSpO2ADCRange, %function
 1512              	MAX30101_SetSpO2ADCRange:
 1513              	.LFB94:
 551:MAX30101.c    **** 
 552:MAX30101.c    **** //==============================================
 553:MAX30101.c    **** //     MAX30101 SPO2 CONFIGURATION FUNCTIONS
 554:MAX30101.c    **** //==============================================
 555:MAX30101.c    **** // Set SpO2 ADC Range
 556:MAX30101.c    **** uint8_t MAX30101_SetSpO2ADCRange(uint8_t range)
 557:MAX30101.c    **** {
 1514              		.loc 1 557 0
 1515              		.cfi_startproc
 1516              		@ args = 0, pretend = 0, frame = 8
 1517              		@ frame_needed = 1, uses_anonymous_args = 0
 1518 0000 80B5     		push	{r7, lr}
 1519              		.cfi_def_cfa_offset 8
 1520              		.cfi_offset 7, -8
 1521              		.cfi_offset 14, -4
 1522 0002 82B0     		sub	sp, sp, #8
 1523              		.cfi_def_cfa_offset 16
 1524 0004 00AF     		add	r7, sp, #0
 1525              		.cfi_def_cfa_register 7
 1526 0006 0346     		mov	r3, r0
 1527 0008 FB71     		strb	r3, [r7, #7]
 558:MAX30101.c    ****     return MAX30101_BitMask(MAX30101_SPO2_CONF, MAX30101_SPO2_ADC_RANGE_MASK, range);
 1528              		.loc 1 558 0
 1529 000a FB79     		ldrb	r3, [r7, #7]	@ zero_extendqisi2
 1530 000c 1A46     		mov	r2, r3
 1531 000e 9F21     		movs	r1, #159
 1532 0010 0A20     		movs	r0, #10
 1533 0012 FFF7FEFF 		bl	MAX30101_BitMask
 1534 0016 0346     		mov	r3, r0
 559:MAX30101.c    **** }
 1535              		.loc 1 559 0
 1536 0018 1846     		mov	r0, r3
 1537 001a 0837     		adds	r7, r7, #8
 1538              		.cfi_def_cfa_offset 8
 1539 001c BD46     		mov	sp, r7
 1540              		.cfi_def_cfa_register 13
 1541              		@ sp needed
 1542 001e 80BD     		pop	{r7, pc}
 1543              		.cfi_endproc
 1544              	.LFE94:
 1545              		.size	MAX30101_SetSpO2ADCRange, .-MAX30101_SetSpO2ADCRange
 1546              		.section	.text.MAX30101_SetSpO2SampleRate,"ax",%progbits
 1547              		.align	2
 1548              		.global	MAX30101_SetSpO2SampleRate
ARM GAS  C:\Users\Perro\AppData\Local\Temp\ccDnyon7.s 			page 38


 1549              		.thumb
 1550              		.thumb_func
 1551              		.type	MAX30101_SetSpO2SampleRate, %function
 1552              	MAX30101_SetSpO2SampleRate:
 1553              	.LFB95:
 560:MAX30101.c    **** 
 561:MAX30101.c    **** // Set SpO2 Sample Rate
 562:MAX30101.c    **** uint8_t MAX30101_SetSpO2SampleRate(uint8_t sr)
 563:MAX30101.c    **** {
 1554              		.loc 1 563 0
 1555              		.cfi_startproc
 1556              		@ args = 0, pretend = 0, frame = 8
 1557              		@ frame_needed = 1, uses_anonymous_args = 0
 1558 0000 80B5     		push	{r7, lr}
 1559              		.cfi_def_cfa_offset 8
 1560              		.cfi_offset 7, -8
 1561              		.cfi_offset 14, -4
 1562 0002 82B0     		sub	sp, sp, #8
 1563              		.cfi_def_cfa_offset 16
 1564 0004 00AF     		add	r7, sp, #0
 1565              		.cfi_def_cfa_register 7
 1566 0006 0346     		mov	r3, r0
 1567 0008 FB71     		strb	r3, [r7, #7]
 564:MAX30101.c    ****     return MAX30101_BitMask(MAX30101_SPO2_CONF, MAX30101_SPO2_SAMPLE_RATE_MASK, sr);
 1568              		.loc 1 564 0
 1569 000a FB79     		ldrb	r3, [r7, #7]	@ zero_extendqisi2
 1570 000c 1A46     		mov	r2, r3
 1571 000e E321     		movs	r1, #227
 1572 0010 0A20     		movs	r0, #10
 1573 0012 FFF7FEFF 		bl	MAX30101_BitMask
 1574 0016 0346     		mov	r3, r0
 565:MAX30101.c    **** }
 1575              		.loc 1 565 0
 1576 0018 1846     		mov	r0, r3
 1577 001a 0837     		adds	r7, r7, #8
 1578              		.cfi_def_cfa_offset 8
 1579 001c BD46     		mov	sp, r7
 1580              		.cfi_def_cfa_register 13
 1581              		@ sp needed
 1582 001e 80BD     		pop	{r7, pc}
 1583              		.cfi_endproc
 1584              	.LFE95:
 1585              		.size	MAX30101_SetSpO2SampleRate, .-MAX30101_SetSpO2SampleRate
 1586              		.section	.text.MAX30101_SetSpO2PulseWidth,"ax",%progbits
 1587              		.align	2
 1588              		.global	MAX30101_SetSpO2PulseWidth
 1589              		.thumb
 1590              		.thumb_func
 1591              		.type	MAX30101_SetSpO2PulseWidth, %function
 1592              	MAX30101_SetSpO2PulseWidth:
 1593              	.LFB96:
 566:MAX30101.c    **** 
 567:MAX30101.c    **** // Set SpO2 Pulse Widht
 568:MAX30101.c    **** uint8_t MAX30101_SetSpO2PulseWidth(uint8_t pw)
 569:MAX30101.c    **** {
 1594              		.loc 1 569 0
 1595              		.cfi_startproc
ARM GAS  C:\Users\Perro\AppData\Local\Temp\ccDnyon7.s 			page 39


 1596              		@ args = 0, pretend = 0, frame = 8
 1597              		@ frame_needed = 1, uses_anonymous_args = 0
 1598 0000 80B5     		push	{r7, lr}
 1599              		.cfi_def_cfa_offset 8
 1600              		.cfi_offset 7, -8
 1601              		.cfi_offset 14, -4
 1602 0002 82B0     		sub	sp, sp, #8
 1603              		.cfi_def_cfa_offset 16
 1604 0004 00AF     		add	r7, sp, #0
 1605              		.cfi_def_cfa_register 7
 1606 0006 0346     		mov	r3, r0
 1607 0008 FB71     		strb	r3, [r7, #7]
 570:MAX30101.c    ****     return MAX30101_BitMask(MAX30101_SPO2_CONF, MAX30101_SPO2_PULSEWIDTH_MASK, pw);
 1608              		.loc 1 570 0
 1609 000a FB79     		ldrb	r3, [r7, #7]	@ zero_extendqisi2
 1610 000c 1A46     		mov	r2, r3
 1611 000e FC21     		movs	r1, #252
 1612 0010 0A20     		movs	r0, #10
 1613 0012 FFF7FEFF 		bl	MAX30101_BitMask
 1614 0016 0346     		mov	r3, r0
 571:MAX30101.c    **** }
 1615              		.loc 1 571 0
 1616 0018 1846     		mov	r0, r3
 1617 001a 0837     		adds	r7, r7, #8
 1618              		.cfi_def_cfa_offset 8
 1619 001c BD46     		mov	sp, r7
 1620              		.cfi_def_cfa_register 13
 1621              		@ sp needed
 1622 001e 80BD     		pop	{r7, pc}
 1623              		.cfi_endproc
 1624              	.LFE96:
 1625              		.size	MAX30101_SetSpO2PulseWidth, .-MAX30101_SetSpO2PulseWidth
 1626              		.section	.text.MAX30101_SetLEDPulseAmplitude,"ax",%progbits
 1627              		.align	2
 1628              		.global	MAX30101_SetLEDPulseAmplitude
 1629              		.thumb
 1630              		.thumb_func
 1631              		.type	MAX30101_SetLEDPulseAmplitude, %function
 1632              	MAX30101_SetLEDPulseAmplitude:
 1633              	.LFB97:
 572:MAX30101.c    **** 
 573:MAX30101.c    **** // Set pulse amplitude for a channel
 574:MAX30101.c    **** uint8_t MAX30101_SetLEDPulseAmplitude(uint8_t led_channel, uint8_t pa)
 575:MAX30101.c    **** {
 1634              		.loc 1 575 0
 1635              		.cfi_startproc
 1636              		@ args = 0, pretend = 0, frame = 16
 1637              		@ frame_needed = 1, uses_anonymous_args = 0
 1638 0000 80B5     		push	{r7, lr}
 1639              		.cfi_def_cfa_offset 8
 1640              		.cfi_offset 7, -8
 1641              		.cfi_offset 14, -4
 1642 0002 84B0     		sub	sp, sp, #16
 1643              		.cfi_def_cfa_offset 24
 1644 0004 00AF     		add	r7, sp, #0
 1645              		.cfi_def_cfa_register 7
 1646 0006 0346     		mov	r3, r0
ARM GAS  C:\Users\Perro\AppData\Local\Temp\ccDnyon7.s 			page 40


 1647 0008 0A46     		mov	r2, r1
 1648 000a FB71     		strb	r3, [r7, #7]
 1649 000c 1346     		mov	r3, r2
 1650 000e BB71     		strb	r3, [r7, #6]
 576:MAX30101.c    ****     // Read register
 577:MAX30101.c    ****     uint8_t error = MAX30101_OK;
 1651              		.loc 1 577 0
 1652 0010 0023     		movs	r3, #0
 1653 0012 FB73     		strb	r3, [r7, #15]
 578:MAX30101.c    ****     uint8_t reg_data;
 579:MAX30101.c    ****     error = I2C_Peripheral_ReadRegister(MAX30101_I2C_ADDRESS, MAX30101_LED1_PA + led_channel, &reg_
 1654              		.loc 1 579 0
 1655 0014 FB79     		ldrb	r3, [r7, #7]
 1656 0016 0C33     		adds	r3, r3, #12
 1657 0018 DBB2     		uxtb	r3, r3
 1658 001a 07F10E02 		add	r2, r7, #14
 1659 001e 1946     		mov	r1, r3
 1660 0020 5720     		movs	r0, #87
 1661 0022 FFF7FEFF 		bl	I2C_Peripheral_ReadRegister
 1662 0026 0346     		mov	r3, r0
 1663 0028 FB73     		strb	r3, [r7, #15]
 580:MAX30101.c    ****     if (error == I2C_NO_ERROR)
 1664              		.loc 1 580 0
 1665 002a FB7B     		ldrb	r3, [r7, #15]	@ zero_extendqisi2
 1666 002c 002B     		cmp	r3, #0
 1667 002e 12D1     		bne	.L81
 581:MAX30101.c    ****     {
 582:MAX30101.c    ****         reg_data |= pa;
 1668              		.loc 1 582 0
 1669 0030 BA7B     		ldrb	r2, [r7, #14]	@ zero_extendqisi2
 1670 0032 BB79     		ldrb	r3, [r7, #6]
 1671 0034 1343     		orrs	r3, r3, r2
 1672 0036 DBB2     		uxtb	r3, r3
 1673 0038 BB73     		strb	r3, [r7, #14]
 583:MAX30101.c    ****         if(I2C_Peripheral_WriteRegister(MAX30101_I2C_ADDRESS, MAX30101_LED1_PA + led_channel, reg_d
 1674              		.loc 1 583 0
 1675 003a FB79     		ldrb	r3, [r7, #7]
 1676 003c 0C33     		adds	r3, r3, #12
 1677 003e DBB2     		uxtb	r3, r3
 1678 0040 BA7B     		ldrb	r2, [r7, #14]	@ zero_extendqisi2
 1679 0042 1946     		mov	r1, r3
 1680 0044 5720     		movs	r0, #87
 1681 0046 FFF7FEFF 		bl	I2C_Peripheral_WriteRegister
 1682 004a 0346     		mov	r3, r0
 1683 004c 002B     		cmp	r3, #0
 1684 004e 04D0     		beq	.L83
 584:MAX30101.c    ****         {
 585:MAX30101.c    ****           error = MAX30101_ERROR;
 1685              		.loc 1 585 0
 1686 0050 0223     		movs	r3, #2
 1687 0052 FB73     		strb	r3, [r7, #15]
 1688 0054 01E0     		b	.L83
 1689              	.L81:
 586:MAX30101.c    ****         }
 587:MAX30101.c    ****     }
 588:MAX30101.c    ****     else
 589:MAX30101.c    ****     {
ARM GAS  C:\Users\Perro\AppData\Local\Temp\ccDnyon7.s 			page 41


 590:MAX30101.c    ****         error = MAX30101_DEV_NOT_FOUND;
 1690              		.loc 1 590 0
 1691 0056 0123     		movs	r3, #1
 1692 0058 FB73     		strb	r3, [r7, #15]
 1693              	.L83:
 591:MAX30101.c    ****     }
 592:MAX30101.c    ****     return error;
 1694              		.loc 1 592 0
 1695 005a FB7B     		ldrb	r3, [r7, #15]	@ zero_extendqisi2
 593:MAX30101.c    **** }
 1696              		.loc 1 593 0
 1697 005c 1846     		mov	r0, r3
 1698 005e 1037     		adds	r7, r7, #16
 1699              		.cfi_def_cfa_offset 8
 1700 0060 BD46     		mov	sp, r7
 1701              		.cfi_def_cfa_register 13
 1702              		@ sp needed
 1703 0062 80BD     		pop	{r7, pc}
 1704              		.cfi_endproc
 1705              	.LFE97:
 1706              		.size	MAX30101_SetLEDPulseAmplitude, .-MAX30101_SetLEDPulseAmplitude
 1707              		.section	.text.MAX30101_EnableSlot,"ax",%progbits
 1708              		.align	2
 1709              		.global	MAX30101_EnableSlot
 1710              		.thumb
 1711              		.thumb_func
 1712              		.type	MAX30101_EnableSlot, %function
 1713              	MAX30101_EnableSlot:
 1714              	.LFB98:
 594:MAX30101.c    **** 
 595:MAX30101.c    **** //======================================================
 596:MAX30101.c    **** //    MAX30101 MULTI LED MODE CONFIGURATION FUNCTIONS
 597:MAX30101.c    **** //======================================================
 598:MAX30101.c    **** // Enable given slot
 599:MAX30101.c    **** uint8_t MAX30101_EnableSlot(uint8_t slot, uint8_t led)
 600:MAX30101.c    **** {
 1715              		.loc 1 600 0
 1716              		.cfi_startproc
 1717              		@ args = 0, pretend = 0, frame = 8
 1718              		@ frame_needed = 1, uses_anonymous_args = 0
 1719 0000 80B5     		push	{r7, lr}
 1720              		.cfi_def_cfa_offset 8
 1721              		.cfi_offset 7, -8
 1722              		.cfi_offset 14, -4
 1723 0002 82B0     		sub	sp, sp, #8
 1724              		.cfi_def_cfa_offset 16
 1725 0004 00AF     		add	r7, sp, #0
 1726              		.cfi_def_cfa_register 7
 1727 0006 0346     		mov	r3, r0
 1728 0008 0A46     		mov	r2, r1
 1729 000a FB71     		strb	r3, [r7, #7]
 1730 000c 1346     		mov	r3, r2
 1731 000e BB71     		strb	r3, [r7, #6]
 601:MAX30101.c    ****     switch(slot)
 1732              		.loc 1 601 0
 1733 0010 FB79     		ldrb	r3, [r7, #7]	@ zero_extendqisi2
 1734 0012 013B     		subs	r3, r3, #1
ARM GAS  C:\Users\Perro\AppData\Local\Temp\ccDnyon7.s 			page 42


 1735 0014 032B     		cmp	r3, #3
 1736 0016 2FD8     		bhi	.L86
 1737 0018 01A2     		adr	r2, .L88
 1738 001a 52F823F0 		ldr	pc, [r2, r3, lsl #2]
 1739 001e 00BF     		.p2align 2
 1740              	.L88:
 1741 0020 31000000 		.word	.L87+1
 1742 0024 41000000 		.word	.L89+1
 1743 0028 55000000 		.word	.L90+1
 1744 002c 65000000 		.word	.L91+1
 1745              		.p2align 1
 1746              	.L87:
 602:MAX30101.c    ****     {
 603:MAX30101.c    ****         case 1:
 604:MAX30101.c    ****             return MAX30101_BitMask(MAX30101_MULTI_LED_1, MAX30101_SLOT1_MASK, led);
 1747              		.loc 1 604 0
 1748 0030 BB79     		ldrb	r3, [r7, #6]	@ zero_extendqisi2
 1749 0032 1A46     		mov	r2, r3
 1750 0034 F821     		movs	r1, #248
 1751 0036 1120     		movs	r0, #17
 1752 0038 FFF7FEFF 		bl	MAX30101_BitMask
 1753 003c 0346     		mov	r3, r0
 1754 003e 1CE0     		b	.L92
 1755              	.L89:
 605:MAX30101.c    ****             break;
 606:MAX30101.c    ****         case 2:
 607:MAX30101.c    ****             return MAX30101_BitMask(MAX30101_MULTI_LED_1, MAX30101_SLOT2_MASK, led << 4);
 1756              		.loc 1 607 0
 1757 0040 BB79     		ldrb	r3, [r7, #6]
 1758 0042 1B01     		lsls	r3, r3, #4
 1759 0044 DBB2     		uxtb	r3, r3
 1760 0046 1A46     		mov	r2, r3
 1761 0048 8F21     		movs	r1, #143
 1762 004a 1120     		movs	r0, #17
 1763 004c FFF7FEFF 		bl	MAX30101_BitMask
 1764 0050 0346     		mov	r3, r0
 1765 0052 12E0     		b	.L92
 1766              	.L90:
 608:MAX30101.c    ****             break;
 609:MAX30101.c    ****         case 3:
 610:MAX30101.c    ****             return MAX30101_BitMask(MAX30101_MULTI_LED_2, MAX30101_SLOT3_MASK, led);
 1767              		.loc 1 610 0
 1768 0054 BB79     		ldrb	r3, [r7, #6]	@ zero_extendqisi2
 1769 0056 1A46     		mov	r2, r3
 1770 0058 F821     		movs	r1, #248
 1771 005a 1220     		movs	r0, #18
 1772 005c FFF7FEFF 		bl	MAX30101_BitMask
 1773 0060 0346     		mov	r3, r0
 1774 0062 0AE0     		b	.L92
 1775              	.L91:
 611:MAX30101.c    ****             break;
 612:MAX30101.c    ****         case 4:
 613:MAX30101.c    ****             return MAX30101_BitMask(MAX30101_MULTI_LED_2, MAX30101_SLOT4_MASK, led << 4);
 1776              		.loc 1 613 0
 1777 0064 BB79     		ldrb	r3, [r7, #6]
 1778 0066 1B01     		lsls	r3, r3, #4
 1779 0068 DBB2     		uxtb	r3, r3
ARM GAS  C:\Users\Perro\AppData\Local\Temp\ccDnyon7.s 			page 43


 1780 006a 1A46     		mov	r2, r3
 1781 006c 8F21     		movs	r1, #143
 1782 006e 1220     		movs	r0, #18
 1783 0070 FFF7FEFF 		bl	MAX30101_BitMask
 1784 0074 0346     		mov	r3, r0
 1785 0076 00E0     		b	.L92
 1786              	.L86:
 614:MAX30101.c    ****             break;
 615:MAX30101.c    ****         default:
 616:MAX30101.c    ****             return MAX30101_ERROR;
 1787              		.loc 1 616 0
 1788 0078 0223     		movs	r3, #2
 1789              	.L92:
 617:MAX30101.c    ****             break;
 618:MAX30101.c    ****     } 
 619:MAX30101.c    **** }
 1790              		.loc 1 619 0
 1791 007a 1846     		mov	r0, r3
 1792 007c 0837     		adds	r7, r7, #8
 1793              		.cfi_def_cfa_offset 8
 1794 007e BD46     		mov	sp, r7
 1795              		.cfi_def_cfa_register 13
 1796              		@ sp needed
 1797 0080 80BD     		pop	{r7, pc}
 1798              		.cfi_endproc
 1799              	.LFE98:
 1800              		.size	MAX30101_EnableSlot, .-MAX30101_EnableSlot
 1801 0082 00BF     		.section	.text.MAX30101_DisableSlots,"ax",%progbits
 1802              		.align	2
 1803              		.global	MAX30101_DisableSlots
 1804              		.thumb
 1805              		.thumb_func
 1806              		.type	MAX30101_DisableSlots, %function
 1807              	MAX30101_DisableSlots:
 1808              	.LFB99:
 620:MAX30101.c    **** 
 621:MAX30101.c    **** // Disable all slots configurations
 622:MAX30101.c    **** uint8_t MAX30101_DisableSlots(void)
 623:MAX30101.c    **** {
 1809              		.loc 1 623 0
 1810              		.cfi_startproc
 1811              		@ args = 0, pretend = 0, frame = 8
 1812              		@ frame_needed = 1, uses_anonymous_args = 0
 1813 0000 80B5     		push	{r7, lr}
 1814              		.cfi_def_cfa_offset 8
 1815              		.cfi_offset 7, -8
 1816              		.cfi_offset 14, -4
 1817 0002 82B0     		sub	sp, sp, #8
 1818              		.cfi_def_cfa_offset 16
 1819 0004 00AF     		add	r7, sp, #0
 1820              		.cfi_def_cfa_register 7
 624:MAX30101.c    ****     uint8_t error = MAX30101_WriteRegister(MAX30101_MULTI_LED_1, 0x00);
 1821              		.loc 1 624 0
 1822 0006 0021     		movs	r1, #0
 1823 0008 1120     		movs	r0, #17
 1824 000a FFF7FEFF 		bl	MAX30101_WriteRegister
 1825 000e 0346     		mov	r3, r0
ARM GAS  C:\Users\Perro\AppData\Local\Temp\ccDnyon7.s 			page 44


 1826 0010 FB71     		strb	r3, [r7, #7]
 625:MAX30101.c    ****     if ( error == MAX30101_OK)
 1827              		.loc 1 625 0
 1828 0012 FB79     		ldrb	r3, [r7, #7]	@ zero_extendqisi2
 1829 0014 002B     		cmp	r3, #0
 1830 0016 05D1     		bne	.L94
 626:MAX30101.c    ****     {    
 627:MAX30101.c    ****         error = MAX30101_WriteRegister(MAX30101_MULTI_LED_2, 0x00);
 1831              		.loc 1 627 0
 1832 0018 0021     		movs	r1, #0
 1833 001a 1220     		movs	r0, #18
 1834 001c FFF7FEFF 		bl	MAX30101_WriteRegister
 1835 0020 0346     		mov	r3, r0
 1836 0022 FB71     		strb	r3, [r7, #7]
 1837              	.L94:
 628:MAX30101.c    ****     }
 629:MAX30101.c    ****     
 630:MAX30101.c    ****     return error;
 1838              		.loc 1 630 0
 1839 0024 FB79     		ldrb	r3, [r7, #7]	@ zero_extendqisi2
 631:MAX30101.c    **** }
 1840              		.loc 1 631 0
 1841 0026 1846     		mov	r0, r3
 1842 0028 0837     		adds	r7, r7, #8
 1843              		.cfi_def_cfa_offset 8
 1844 002a BD46     		mov	sp, r7
 1845              		.cfi_def_cfa_register 13
 1846              		@ sp needed
 1847 002c 80BD     		pop	{r7, pc}
 1848              		.cfi_endproc
 1849              	.LFE99:
 1850              		.size	MAX30101_DisableSlots, .-MAX30101_DisableSlots
 1851              		.global	__aeabi_ui2f
 1852              		.global	__aeabi_f2d
 1853              		.global	__aeabi_i2d
 1854              		.global	__aeabi_dmul
 1855              		.global	__aeabi_dadd
 1856              		.global	__aeabi_d2f
 1857 002e 00BF     		.section	.text.MAX30101_ReadTemperature,"ax",%progbits
 1858              		.align	2
 1859              		.global	MAX30101_ReadTemperature
 1860              		.thumb
 1861              		.thumb_func
 1862              		.type	MAX30101_ReadTemperature, %function
 1863              	MAX30101_ReadTemperature:
 1864              	.LFB100:
 632:MAX30101.c    **** 
 633:MAX30101.c    **** //======================================================
 634:MAX30101.c    **** //            MAX30101 DIE TEMPERATURE FUNCTIONS
 635:MAX30101.c    **** //======================================================
 636:MAX30101.c    **** uint8_t MAX30101_ReadTemperature(float* temperature)
 637:MAX30101.c    **** {
 1865              		.loc 1 637 0
 1866              		.cfi_startproc
 1867              		@ args = 0, pretend = 0, frame = 16
 1868              		@ frame_needed = 1, uses_anonymous_args = 0
 1869 0000 B0B5     		push	{r4, r5, r7, lr}
ARM GAS  C:\Users\Perro\AppData\Local\Temp\ccDnyon7.s 			page 45


 1870              		.cfi_def_cfa_offset 16
 1871              		.cfi_offset 4, -16
 1872              		.cfi_offset 5, -12
 1873              		.cfi_offset 7, -8
 1874              		.cfi_offset 14, -4
 1875 0002 84B0     		sub	sp, sp, #16
 1876              		.cfi_def_cfa_offset 32
 1877 0004 00AF     		add	r7, sp, #0
 1878              		.cfi_def_cfa_register 7
 1879 0006 7860     		str	r0, [r7, #4]
 638:MAX30101.c    ****     uint8_t integer, frac = 0;
 1880              		.loc 1 638 0
 1881 0008 0023     		movs	r3, #0
 1882 000a 7B73     		strb	r3, [r7, #13]
 639:MAX30101.c    ****     uint8_t error = MAX30101_ReadRegister(MAX30101_TEMP_INT, &integer);
 1883              		.loc 1 639 0
 1884 000c 07F10E03 		add	r3, r7, #14
 1885 0010 1946     		mov	r1, r3
 1886 0012 1F20     		movs	r0, #31
 1887 0014 FFF7FEFF 		bl	MAX30101_ReadRegister
 1888 0018 0346     		mov	r3, r0
 1889 001a FB73     		strb	r3, [r7, #15]
 640:MAX30101.c    ****     if ( error == MAX30101_OK)
 1890              		.loc 1 640 0
 1891 001c FB7B     		ldrb	r3, [r7, #15]	@ zero_extendqisi2
 1892 001e 002B     		cmp	r3, #0
 1893 0020 2CD1     		bne	.L97
 641:MAX30101.c    ****     {
 642:MAX30101.c    ****         error = MAX30101_ReadRegister(MAX30101_TEMP_FRACT, &frac);
 1894              		.loc 1 642 0
 1895 0022 07F10D03 		add	r3, r7, #13
 1896 0026 1946     		mov	r1, r3
 1897 0028 2020     		movs	r0, #32
 1898 002a FFF7FEFF 		bl	MAX30101_ReadRegister
 1899 002e 0346     		mov	r3, r0
 1900 0030 FB73     		strb	r3, [r7, #15]
 643:MAX30101.c    ****         if ( error == MAX30101_OK)
 1901              		.loc 1 643 0
 1902 0032 FB7B     		ldrb	r3, [r7, #15]	@ zero_extendqisi2
 1903 0034 002B     		cmp	r3, #0
 1904 0036 21D1     		bne	.L97
 644:MAX30101.c    ****         {
 645:MAX30101.c    ****             *temperature = ((float)(integer)) + frac * 0.0625;
 1905              		.loc 1 645 0
 1906 0038 BB7B     		ldrb	r3, [r7, #14]	@ zero_extendqisi2
 1907 003a 1846     		mov	r0, r3
 1908 003c FFF7FEFF 		bl	__aeabi_ui2f
 1909 0040 0346     		mov	r3, r0
 1910 0042 1846     		mov	r0, r3
 1911 0044 FFF7FEFF 		bl	__aeabi_f2d
 1912 0048 0446     		mov	r4, r0
 1913 004a 0D46     		mov	r5, r1
 1914 004c 7B7B     		ldrb	r3, [r7, #13]	@ zero_extendqisi2
 1915 004e 1846     		mov	r0, r3
 1916 0050 FFF7FEFF 		bl	__aeabi_i2d
 1917 0054 4FF00002 		mov	r2, #0
 1918 0058 0B4B     		ldr	r3, .L99
ARM GAS  C:\Users\Perro\AppData\Local\Temp\ccDnyon7.s 			page 46


 1919 005a FFF7FEFF 		bl	__aeabi_dmul
 1920 005e 0246     		mov	r2, r0
 1921 0060 0B46     		mov	r3, r1
 1922 0062 2046     		mov	r0, r4
 1923 0064 2946     		mov	r1, r5
 1924 0066 FFF7FEFF 		bl	__aeabi_dadd
 1925 006a 0346     		mov	r3, r0
 1926 006c 0C46     		mov	r4, r1
 1927 006e 1846     		mov	r0, r3
 1928 0070 2146     		mov	r1, r4
 1929 0072 FFF7FEFF 		bl	__aeabi_d2f
 1930 0076 0246     		mov	r2, r0
 1931 0078 7B68     		ldr	r3, [r7, #4]
 1932 007a 1A60     		str	r2, [r3]	@ float
 1933              	.L97:
 646:MAX30101.c    ****         }
 647:MAX30101.c    ****     }
 648:MAX30101.c    ****     
 649:MAX30101.c    ****     return error;
 1934              		.loc 1 649 0
 1935 007c FB7B     		ldrb	r3, [r7, #15]	@ zero_extendqisi2
 650:MAX30101.c    **** }
 1936              		.loc 1 650 0
 1937 007e 1846     		mov	r0, r3
 1938 0080 1037     		adds	r7, r7, #16
 1939              		.cfi_def_cfa_offset 16
 1940 0082 BD46     		mov	sp, r7
 1941              		.cfi_def_cfa_register 13
 1942              		@ sp needed
 1943 0084 B0BD     		pop	{r4, r5, r7, pc}
 1944              	.L100:
 1945 0086 00BF     		.align	2
 1946              	.L99:
 1947 0088 0000B03F 		.word	1068498944
 1948              		.cfi_endproc
 1949              	.LFE100:
 1950              		.size	MAX30101_ReadTemperature, .-MAX30101_ReadTemperature
 1951              		.section	.text.MAX30101_ReadRawTemperature,"ax",%progbits
 1952              		.align	2
 1953              		.global	MAX30101_ReadRawTemperature
 1954              		.thumb
 1955              		.thumb_func
 1956              		.type	MAX30101_ReadRawTemperature, %function
 1957              	MAX30101_ReadRawTemperature:
 1958              	.LFB101:
 651:MAX30101.c    **** 
 652:MAX30101.c    **** uint8_t MAX30101_ReadRawTemperature(int8_t* integer, uint8_t* frac)
 653:MAX30101.c    **** {
 1959              		.loc 1 653 0
 1960              		.cfi_startproc
 1961              		@ args = 0, pretend = 0, frame = 16
 1962              		@ frame_needed = 1, uses_anonymous_args = 0
 1963 0000 80B5     		push	{r7, lr}
 1964              		.cfi_def_cfa_offset 8
 1965              		.cfi_offset 7, -8
 1966              		.cfi_offset 14, -4
 1967 0002 84B0     		sub	sp, sp, #16
ARM GAS  C:\Users\Perro\AppData\Local\Temp\ccDnyon7.s 			page 47


 1968              		.cfi_def_cfa_offset 24
 1969 0004 00AF     		add	r7, sp, #0
 1970              		.cfi_def_cfa_register 7
 1971 0006 7860     		str	r0, [r7, #4]
 1972 0008 3960     		str	r1, [r7]
 654:MAX30101.c    ****     uint8_t temp;
 655:MAX30101.c    ****     uint8_t error = MAX30101_ReadRegister(MAX30101_TEMP_INT, &temp);
 1973              		.loc 1 655 0
 1974 000a 07F10E03 		add	r3, r7, #14
 1975 000e 1946     		mov	r1, r3
 1976 0010 1F20     		movs	r0, #31
 1977 0012 FFF7FEFF 		bl	MAX30101_ReadRegister
 1978 0016 0346     		mov	r3, r0
 1979 0018 FB73     		strb	r3, [r7, #15]
 656:MAX30101.c    ****     if ( error == MAX30101_OK)
 1980              		.loc 1 656 0
 1981 001a FB7B     		ldrb	r3, [r7, #15]	@ zero_extendqisi2
 1982 001c 002B     		cmp	r3, #0
 1983 001e 09D1     		bne	.L102
 657:MAX30101.c    ****     {
 658:MAX30101.c    ****         *integer = (int8_t)temp;
 1984              		.loc 1 658 0
 1985 0020 BB7B     		ldrb	r3, [r7, #14]	@ zero_extendqisi2
 1986 0022 5AB2     		sxtb	r2, r3
 1987 0024 7B68     		ldr	r3, [r7, #4]
 1988 0026 1A70     		strb	r2, [r3]
 659:MAX30101.c    ****         error = MAX30101_ReadRegister(MAX30101_TEMP_FRACT, frac);
 1989              		.loc 1 659 0
 1990 0028 3968     		ldr	r1, [r7]
 1991 002a 2020     		movs	r0, #32
 1992 002c FFF7FEFF 		bl	MAX30101_ReadRegister
 1993 0030 0346     		mov	r3, r0
 1994 0032 FB73     		strb	r3, [r7, #15]
 1995              	.L102:
 660:MAX30101.c    ****     }
 661:MAX30101.c    ****     
 662:MAX30101.c    ****     return error;
 1996              		.loc 1 662 0
 1997 0034 FB7B     		ldrb	r3, [r7, #15]	@ zero_extendqisi2
 663:MAX30101.c    **** }
 1998              		.loc 1 663 0
 1999 0036 1846     		mov	r0, r3
 2000 0038 1037     		adds	r7, r7, #16
 2001              		.cfi_def_cfa_offset 8
 2002 003a BD46     		mov	sp, r7
 2003              		.cfi_def_cfa_register 13
 2004              		@ sp needed
 2005 003c 80BD     		pop	{r7, pc}
 2006              		.cfi_endproc
 2007              	.LFE101:
 2008              		.size	MAX30101_ReadRawTemperature, .-MAX30101_ReadRawTemperature
 2009 003e 00BF     		.section	.text.MAX30101_StartTemperatureConversion,"ax",%progbits
 2010              		.align	2
 2011              		.global	MAX30101_StartTemperatureConversion
 2012              		.thumb
 2013              		.thumb_func
 2014              		.type	MAX30101_StartTemperatureConversion, %function
ARM GAS  C:\Users\Perro\AppData\Local\Temp\ccDnyon7.s 			page 48


 2015              	MAX30101_StartTemperatureConversion:
 2016              	.LFB102:
 664:MAX30101.c    **** 
 665:MAX30101.c    **** uint8_t MAX30101_StartTemperatureConversion(void)
 666:MAX30101.c    **** {
 2017              		.loc 1 666 0
 2018              		.cfi_startproc
 2019              		@ args = 0, pretend = 0, frame = 0
 2020              		@ frame_needed = 1, uses_anonymous_args = 0
 2021 0000 80B5     		push	{r7, lr}
 2022              		.cfi_def_cfa_offset 8
 2023              		.cfi_offset 7, -8
 2024              		.cfi_offset 14, -4
 2025 0002 00AF     		add	r7, sp, #0
 2026              		.cfi_def_cfa_register 7
 667:MAX30101.c    ****     return MAX30101_WriteRegister(MAX30101_TEMP_CONF, 0x01);
 2027              		.loc 1 667 0
 2028 0004 0121     		movs	r1, #1
 2029 0006 2120     		movs	r0, #33
 2030 0008 FFF7FEFF 		bl	MAX30101_WriteRegister
 2031 000c 0346     		mov	r3, r0
 668:MAX30101.c    **** }
 2032              		.loc 1 668 0
 2033 000e 1846     		mov	r0, r3
 2034 0010 80BD     		pop	{r7, pc}
 2035              		.cfi_endproc
 2036              	.LFE102:
 2037              		.size	MAX30101_StartTemperatureConversion, .-MAX30101_StartTemperatureConversion
 2038 0012 00BF     		.section	.text.MAX30101_ReadPartID,"ax",%progbits
 2039              		.align	2
 2040              		.global	MAX30101_ReadPartID
 2041              		.thumb
 2042              		.thumb_func
 2043              		.type	MAX30101_ReadPartID, %function
 2044              	MAX30101_ReadPartID:
 2045              	.LFB103:
 669:MAX30101.c    **** 
 670:MAX30101.c    **** //======================================================
 671:MAX30101.c    **** //            MAX30101 PART/REVISION ID FUNCTIONS
 672:MAX30101.c    **** //======================================================
 673:MAX30101.c    **** // Read part ID number
 674:MAX30101.c    **** uint8_t MAX30101_ReadPartID(uint8_t* part_id)
 675:MAX30101.c    **** {
 2046              		.loc 1 675 0
 2047              		.cfi_startproc
 2048              		@ args = 0, pretend = 0, frame = 8
 2049              		@ frame_needed = 1, uses_anonymous_args = 0
 2050 0000 80B5     		push	{r7, lr}
 2051              		.cfi_def_cfa_offset 8
 2052              		.cfi_offset 7, -8
 2053              		.cfi_offset 14, -4
 2054 0002 82B0     		sub	sp, sp, #8
 2055              		.cfi_def_cfa_offset 16
 2056 0004 00AF     		add	r7, sp, #0
 2057              		.cfi_def_cfa_register 7
 2058 0006 7860     		str	r0, [r7, #4]
 676:MAX30101.c    ****     return MAX30101_ReadRegister(MAX30101_PART_ID, part_id);
ARM GAS  C:\Users\Perro\AppData\Local\Temp\ccDnyon7.s 			page 49


 2059              		.loc 1 676 0
 2060 0008 7968     		ldr	r1, [r7, #4]
 2061 000a FF20     		movs	r0, #255
 2062 000c FFF7FEFF 		bl	MAX30101_ReadRegister
 2063 0010 0346     		mov	r3, r0
 677:MAX30101.c    ****     
 678:MAX30101.c    **** }
 2064              		.loc 1 678 0
 2065 0012 1846     		mov	r0, r3
 2066 0014 0837     		adds	r7, r7, #8
 2067              		.cfi_def_cfa_offset 8
 2068 0016 BD46     		mov	sp, r7
 2069              		.cfi_def_cfa_register 13
 2070              		@ sp needed
 2071 0018 80BD     		pop	{r7, pc}
 2072              		.cfi_endproc
 2073              	.LFE103:
 2074              		.size	MAX30101_ReadPartID, .-MAX30101_ReadPartID
 2075 001a 00BF     		.section	.text.MAX30101_ReadRevisionID,"ax",%progbits
 2076              		.align	2
 2077              		.global	MAX30101_ReadRevisionID
 2078              		.thumb
 2079              		.thumb_func
 2080              		.type	MAX30101_ReadRevisionID, %function
 2081              	MAX30101_ReadRevisionID:
 2082              	.LFB104:
 679:MAX30101.c    **** 
 680:MAX30101.c    **** // Read revision ID number
 681:MAX30101.c    **** uint8_t MAX30101_ReadRevisionID(uint8_t* revision_id)
 682:MAX30101.c    **** {
 2083              		.loc 1 682 0
 2084              		.cfi_startproc
 2085              		@ args = 0, pretend = 0, frame = 8
 2086              		@ frame_needed = 1, uses_anonymous_args = 0
 2087 0000 80B5     		push	{r7, lr}
 2088              		.cfi_def_cfa_offset 8
 2089              		.cfi_offset 7, -8
 2090              		.cfi_offset 14, -4
 2091 0002 82B0     		sub	sp, sp, #8
 2092              		.cfi_def_cfa_offset 16
 2093 0004 00AF     		add	r7, sp, #0
 2094              		.cfi_def_cfa_register 7
 2095 0006 7860     		str	r0, [r7, #4]
 683:MAX30101.c    ****     return MAX30101_ReadRegister(MAX30101_REVISION_ID, revision_id);
 2096              		.loc 1 683 0
 2097 0008 7968     		ldr	r1, [r7, #4]
 2098 000a FE20     		movs	r0, #254
 2099 000c FFF7FEFF 		bl	MAX30101_ReadRegister
 2100 0010 0346     		mov	r3, r0
 684:MAX30101.c    **** }
 2101              		.loc 1 684 0
 2102 0012 1846     		mov	r0, r3
 2103 0014 0837     		adds	r7, r7, #8
 2104              		.cfi_def_cfa_offset 8
 2105 0016 BD46     		mov	sp, r7
 2106              		.cfi_def_cfa_register 13
 2107              		@ sp needed
ARM GAS  C:\Users\Perro\AppData\Local\Temp\ccDnyon7.s 			page 50


 2108 0018 80BD     		pop	{r7, pc}
 2109              		.cfi_endproc
 2110              	.LFE104:
 2111              		.size	MAX30101_ReadRevisionID, .-MAX30101_ReadRevisionID
 2112 001a 00BF     		.section	.text.MAX30101_ReadRegister,"ax",%progbits
 2113              		.align	2
 2114              		.global	MAX30101_ReadRegister
 2115              		.thumb
 2116              		.thumb_func
 2117              		.type	MAX30101_ReadRegister, %function
 2118              	MAX30101_ReadRegister:
 2119              	.LFB105:
 685:MAX30101.c    **** 
 686:MAX30101.c    **** //======================================================
 687:MAX30101.c    **** //            MAX30101 HELPER FUNCTIONS
 688:MAX30101.c    **** //======================================================
 689:MAX30101.c    **** // Simple helper function to read a register from the MAX30101
 690:MAX30101.c    **** uint8_t MAX30101_ReadRegister(uint8_t reg_addr, uint8_t* reg_value)
 691:MAX30101.c    **** {
 2120              		.loc 1 691 0
 2121              		.cfi_startproc
 2122              		@ args = 0, pretend = 0, frame = 16
 2123              		@ frame_needed = 1, uses_anonymous_args = 0
 2124 0000 80B5     		push	{r7, lr}
 2125              		.cfi_def_cfa_offset 8
 2126              		.cfi_offset 7, -8
 2127              		.cfi_offset 14, -4
 2128 0002 84B0     		sub	sp, sp, #16
 2129              		.cfi_def_cfa_offset 24
 2130 0004 00AF     		add	r7, sp, #0
 2131              		.cfi_def_cfa_register 7
 2132 0006 0346     		mov	r3, r0
 2133 0008 3960     		str	r1, [r7]
 2134 000a FB71     		strb	r3, [r7, #7]
 692:MAX30101.c    ****     uint8_t error = MAX30101_OK;
 2135              		.loc 1 692 0
 2136 000c 0023     		movs	r3, #0
 2137 000e FB73     		strb	r3, [r7, #15]
 693:MAX30101.c    ****     uint8_t reg_data;
 694:MAX30101.c    ****     if(I2C_Peripheral_ReadRegister(MAX30101_I2C_ADDRESS, reg_addr, &reg_data) == I2C_NO_ERROR)
 2138              		.loc 1 694 0
 2139 0010 07F10E02 		add	r2, r7, #14
 2140 0014 FB79     		ldrb	r3, [r7, #7]	@ zero_extendqisi2
 2141 0016 1946     		mov	r1, r3
 2142 0018 5720     		movs	r0, #87
 2143 001a FFF7FEFF 		bl	I2C_Peripheral_ReadRegister
 2144 001e 0346     		mov	r3, r0
 2145 0020 002B     		cmp	r3, #0
 2146 0022 03D1     		bne	.L111
 695:MAX30101.c    ****     {
 696:MAX30101.c    ****         *reg_value = reg_data;
 2147              		.loc 1 696 0
 2148 0024 BA7B     		ldrb	r2, [r7, #14]	@ zero_extendqisi2
 2149 0026 3B68     		ldr	r3, [r7]
 2150 0028 1A70     		strb	r2, [r3]
 2151 002a 01E0     		b	.L112
 2152              	.L111:
ARM GAS  C:\Users\Perro\AppData\Local\Temp\ccDnyon7.s 			page 51


 697:MAX30101.c    ****     }
 698:MAX30101.c    ****     else
 699:MAX30101.c    ****     {
 700:MAX30101.c    ****         error = MAX30101_DEV_NOT_FOUND;
 2153              		.loc 1 700 0
 2154 002c 0123     		movs	r3, #1
 2155 002e FB73     		strb	r3, [r7, #15]
 2156              	.L112:
 701:MAX30101.c    ****     }
 702:MAX30101.c    ****     return error;
 2157              		.loc 1 702 0
 2158 0030 FB7B     		ldrb	r3, [r7, #15]	@ zero_extendqisi2
 703:MAX30101.c    **** }
 2159              		.loc 1 703 0
 2160 0032 1846     		mov	r0, r3
 2161 0034 1037     		adds	r7, r7, #16
 2162              		.cfi_def_cfa_offset 8
 2163 0036 BD46     		mov	sp, r7
 2164              		.cfi_def_cfa_register 13
 2165              		@ sp needed
 2166 0038 80BD     		pop	{r7, pc}
 2167              		.cfi_endproc
 2168              	.LFE105:
 2169              		.size	MAX30101_ReadRegister, .-MAX30101_ReadRegister
 2170 003a 00BF     		.section	.rodata
 2171              		.align	2
 2172              	.LC0:
 2173 0000 00       		.byte	0
 2174 0001 01       		.byte	1
 2175 0002 02       		.byte	2
 2176 0003 03       		.byte	3
 2177 0004 04       		.byte	4
 2178 0005 05       		.byte	5
 2179 0006 06       		.byte	6
 2180 0007 07       		.byte	7
 2181 0008 08       		.byte	8
 2182 0009 09       		.byte	9
 2183 000a 0A       		.byte	10
 2184 000b 0C       		.byte	12
 2185 000c 0D       		.byte	13
 2186 000d 0E       		.byte	14
 2187 000e 0F       		.byte	15
 2188 000f 11       		.byte	17
 2189 0010 12       		.byte	18
 2190 0011 1F       		.byte	31
 2191 0012 20       		.byte	32
 2192 0013 21       		.byte	33
 2193 0014 FE       		.byte	-2
 2194 0015 FF       		.byte	-1
 2195              		.section	.text.MAX30101_LogRegisters,"ax",%progbits
 2196              		.align	2
 2197              		.global	MAX30101_LogRegisters
 2198              		.thumb
 2199              		.thumb_func
 2200              		.type	MAX30101_LogRegisters, %function
 2201              	MAX30101_LogRegisters:
 2202              	.LFB106:
ARM GAS  C:\Users\Perro\AppData\Local\Temp\ccDnyon7.s 			page 52


 704:MAX30101.c    **** 
 705:MAX30101.c    **** // Log all registers
 706:MAX30101.c    **** uint8_t MAX30101_LogRegisters(void (*print_fun)(const char*))
 707:MAX30101.c    **** {
 2203              		.loc 1 707 0
 2204              		.cfi_startproc
 2205              		@ args = 0, pretend = 0, frame = 32
 2206              		@ frame_needed = 1, uses_anonymous_args = 0
 2207 0000 B0B5     		push	{r4, r5, r7, lr}
 2208              		.cfi_def_cfa_offset 16
 2209              		.cfi_offset 4, -16
 2210              		.cfi_offset 5, -12
 2211              		.cfi_offset 7, -8
 2212              		.cfi_offset 14, -4
 2213 0002 88B0     		sub	sp, sp, #32
 2214              		.cfi_def_cfa_offset 48
 2215 0004 00AF     		add	r7, sp, #0
 2216              		.cfi_def_cfa_register 7
 2217 0006 7860     		str	r0, [r7, #4]
 708:MAX30101.c    ****     uint8_t reg_list[] = {MAX30101_INT_ST_1,
 2218              		.loc 1 708 0
 2219 0008 164B     		ldr	r3, .L121
 2220 000a 07F10804 		add	r4, r7, #8
 2221 000e 1D46     		mov	r5, r3
 2222 0010 2868     		ldr	r0, [r5]	@ unaligned
 2223 0012 6968     		ldr	r1, [r5, #4]	@ unaligned
 2224 0014 AA68     		ldr	r2, [r5, #8]	@ unaligned
 2225 0016 EB68     		ldr	r3, [r5, #12]	@ unaligned
 2226 0018 0FC4     		stmia	r4!, {r0, r1, r2, r3}
 2227 001a 2869     		ldr	r0, [r5, #16]	@ unaligned
 2228 001c 2060     		str	r0, [r4]	@ unaligned
 2229 001e AB8A     		ldrh	r3, [r5, #20]	@ unaligned
 2230 0020 A380     		strh	r3, [r4, #4]	@ unaligned
 709:MAX30101.c    ****                                 MAX30101_INT_ST_2,
 710:MAX30101.c    ****                                 MAX30101_INT_EN_1,
 711:MAX30101.c    ****                                 MAX30101_INT_EN_2,
 712:MAX30101.c    ****                                 MAX30101_FIFO_WP,
 713:MAX30101.c    ****                                 MAX30101_FIFO_OVF_CNT,
 714:MAX30101.c    ****                                 MAX30101_FIFO_RP,
 715:MAX30101.c    ****                                 MAX30101_FIFO_DATA,
 716:MAX30101.c    ****                                 MAX30101_FIFO_CONF,
 717:MAX30101.c    ****                                 MAX30101_MODE_CONF,
 718:MAX30101.c    ****                                 MAX30101_SPO2_CONF,
 719:MAX30101.c    ****                                 MAX30101_LED1_PA,
 720:MAX30101.c    ****                                 MAX30101_LED2_PA,
 721:MAX30101.c    ****                                 MAX30101_LED3_PA,
 722:MAX30101.c    ****                                 MAX30101_LED4_PA,
 723:MAX30101.c    ****                                 MAX30101_MULTI_LED_1,
 724:MAX30101.c    ****                                 MAX30101_MULTI_LED_2,
 725:MAX30101.c    ****                                 MAX30101_TEMP_INT,
 726:MAX30101.c    ****                                 MAX30101_TEMP_FRACT,
 727:MAX30101.c    ****                                 MAX30101_TEMP_CONF,
 728:MAX30101.c    ****                                 MAX30101_REVISION_ID,
 729:MAX30101.c    ****                                 MAX30101_PART_ID};
 730:MAX30101.c    ****     uint8_t error = MAX30101_OK;
 2231              		.loc 1 730 0
 2232 0022 0023     		movs	r3, #0
ARM GAS  C:\Users\Perro\AppData\Local\Temp\ccDnyon7.s 			page 53


 2233 0024 FB77     		strb	r3, [r7, #31]
 2234              	.LBB5:
 731:MAX30101.c    ****     for (uint8_t i = 0; i < 22; i++)
 2235              		.loc 1 731 0
 2236 0026 0023     		movs	r3, #0
 2237 0028 BB77     		strb	r3, [r7, #30]
 2238 002a 11E0     		b	.L115
 2239              	.L118:
 732:MAX30101.c    ****     {
 733:MAX30101.c    ****         error = MAX30101_PrintRegister(print_fun, reg_list[i]);
 2240              		.loc 1 733 0
 2241 002c BB7F     		ldrb	r3, [r7, #30]	@ zero_extendqisi2
 2242 002e 07F12002 		add	r2, r7, #32
 2243 0032 1344     		add	r3, r3, r2
 2244 0034 13F8183C 		ldrb	r3, [r3, #-24]	@ zero_extendqisi2
 2245 0038 1946     		mov	r1, r3
 2246 003a 7868     		ldr	r0, [r7, #4]
 2247 003c FFF7FEFF 		bl	MAX30101_PrintRegister
 2248 0040 0346     		mov	r3, r0
 2249 0042 FB77     		strb	r3, [r7, #31]
 734:MAX30101.c    ****         if (error != MAX30101_OK)
 2250              		.loc 1 734 0
 2251 0044 FB7F     		ldrb	r3, [r7, #31]	@ zero_extendqisi2
 2252 0046 002B     		cmp	r3, #0
 2253 0048 06D1     		bne	.L120
 731:MAX30101.c    ****     for (uint8_t i = 0; i < 22; i++)
 2254              		.loc 1 731 0 discriminator 2
 2255 004a BB7F     		ldrb	r3, [r7, #30]	@ zero_extendqisi2
 2256 004c 0133     		adds	r3, r3, #1
 2257 004e BB77     		strb	r3, [r7, #30]
 2258              	.L115:
 731:MAX30101.c    ****     for (uint8_t i = 0; i < 22; i++)
 2259              		.loc 1 731 0 is_stmt 0 discriminator 1
 2260 0050 BB7F     		ldrb	r3, [r7, #30]	@ zero_extendqisi2
 2261 0052 152B     		cmp	r3, #21
 2262 0054 EAD9     		bls	.L118
 2263 0056 00E0     		b	.L117
 2264              	.L120:
 735:MAX30101.c    ****             break;
 2265              		.loc 1 735 0 is_stmt 1
 2266 0058 00BF     		nop
 2267              	.L117:
 2268              	.LBE5:
 736:MAX30101.c    ****     }
 737:MAX30101.c    ****     return error;
 2269              		.loc 1 737 0
 2270 005a FB7F     		ldrb	r3, [r7, #31]	@ zero_extendqisi2
 738:MAX30101.c    **** }
 2271              		.loc 1 738 0
 2272 005c 1846     		mov	r0, r3
 2273 005e 2037     		adds	r7, r7, #32
 2274              		.cfi_def_cfa_offset 16
 2275 0060 BD46     		mov	sp, r7
 2276              		.cfi_def_cfa_register 13
 2277              		@ sp needed
 2278 0062 B0BD     		pop	{r4, r5, r7, pc}
 2279              	.L122:
ARM GAS  C:\Users\Perro\AppData\Local\Temp\ccDnyon7.s 			page 54


 2280              		.align	2
 2281              	.L121:
 2282 0064 00000000 		.word	.LC0
 2283              		.cfi_endproc
 2284              	.LFE106:
 2285              		.size	MAX30101_LogRegisters, .-MAX30101_LogRegisters
 2286              		.section	.rodata
 2287 0016 0000     		.align	2
 2288              	.LC1:
 2289 0018 5B307825 		.ascii	"[0x%02X] - 0x%02X\015\012\000"
 2289      3032585D 
 2289      202D2030 
 2289      78253032 
 2289      580D0A00 
 2290              		.section	.text.MAX30101_PrintRegister,"ax",%progbits
 2291              		.align	2
 2292              		.global	MAX30101_PrintRegister
 2293              		.thumb
 2294              		.thumb_func
 2295              		.type	MAX30101_PrintRegister, %function
 2296              	MAX30101_PrintRegister:
 2297              	.LFB107:
 739:MAX30101.c    **** 
 740:MAX30101.c    **** uint8_t MAX30101_PrintRegister(void (*print_fun)(const char*), uint8_t reg_addr)
 741:MAX30101.c    **** {
 2298              		.loc 1 741 0
 2299              		.cfi_startproc
 2300              		@ args = 0, pretend = 0, frame = 32
 2301              		@ frame_needed = 1, uses_anonymous_args = 0
 2302 0000 80B5     		push	{r7, lr}
 2303              		.cfi_def_cfa_offset 8
 2304              		.cfi_offset 7, -8
 2305              		.cfi_offset 14, -4
 2306 0002 88B0     		sub	sp, sp, #32
 2307              		.cfi_def_cfa_offset 40
 2308 0004 00AF     		add	r7, sp, #0
 2309              		.cfi_def_cfa_register 7
 2310 0006 7860     		str	r0, [r7, #4]
 2311 0008 0B46     		mov	r3, r1
 2312 000a FB70     		strb	r3, [r7, #3]
 742:MAX30101.c    ****     uint8_t value;
 743:MAX30101.c    ****     uint8_t error = MAX30101_ReadRegister(reg_addr, &value);
 2313              		.loc 1 743 0
 2314 000c 07F11E02 		add	r2, r7, #30
 2315 0010 FB78     		ldrb	r3, [r7, #3]	@ zero_extendqisi2
 2316 0012 1146     		mov	r1, r2
 2317 0014 1846     		mov	r0, r3
 2318 0016 FFF7FEFF 		bl	MAX30101_ReadRegister
 2319 001a 0346     		mov	r3, r0
 2320 001c FB77     		strb	r3, [r7, #31]
 744:MAX30101.c    ****     if (error == MAX30101_OK)
 2321              		.loc 1 744 0
 2322 001e FB7F     		ldrb	r3, [r7, #31]	@ zero_extendqisi2
 2323 0020 002B     		cmp	r3, #0
 2324 0022 0BD1     		bne	.L124
 2325              	.LBB6:
 745:MAX30101.c    ****     {
ARM GAS  C:\Users\Perro\AppData\Local\Temp\ccDnyon7.s 			page 55


 746:MAX30101.c    ****         char msg[20];
 747:MAX30101.c    ****         sprintf(msg, "[0x%02X] - 0x%02X\r\n", reg_addr, value);
 2326              		.loc 1 747 0
 2327 0024 FA78     		ldrb	r2, [r7, #3]	@ zero_extendqisi2
 2328 0026 BB7F     		ldrb	r3, [r7, #30]	@ zero_extendqisi2
 2329 0028 07F10800 		add	r0, r7, #8
 2330 002c 0649     		ldr	r1, .L126
 2331 002e FFF7FEFF 		bl	sprintf
 748:MAX30101.c    ****         print_fun(msg);
 2332              		.loc 1 748 0
 2333 0032 07F10802 		add	r2, r7, #8
 2334 0036 7B68     		ldr	r3, [r7, #4]
 2335 0038 1046     		mov	r0, r2
 2336 003a 9847     		blx	r3
 2337              	.L124:
 2338              	.LBE6:
 749:MAX30101.c    ****     }
 750:MAX30101.c    ****     return error;
 2339              		.loc 1 750 0
 2340 003c FB7F     		ldrb	r3, [r7, #31]	@ zero_extendqisi2
 751:MAX30101.c    **** }
 2341              		.loc 1 751 0
 2342 003e 1846     		mov	r0, r3
 2343 0040 2037     		adds	r7, r7, #32
 2344              		.cfi_def_cfa_offset 8
 2345 0042 BD46     		mov	sp, r7
 2346              		.cfi_def_cfa_register 13
 2347              		@ sp needed
 2348 0044 80BD     		pop	{r7, pc}
 2349              	.L127:
 2350 0046 00BF     		.align	2
 2351              	.L126:
 2352 0048 18000000 		.word	.LC1
 2353              		.cfi_endproc
 2354              	.LFE107:
 2355              		.size	MAX30101_PrintRegister, .-MAX30101_PrintRegister
 2356              		.section	.text.MAX30101_WriteRegister,"ax",%progbits
 2357              		.align	2
 2358              		.thumb
 2359              		.thumb_func
 2360              		.type	MAX30101_WriteRegister, %function
 2361              	MAX30101_WriteRegister:
 2362              	.LFB108:
 752:MAX30101.c    **** 
 753:MAX30101.c    **** // Simple helper function to write a register to the MAX30101
 754:MAX30101.c    **** static uint8_t MAX30101_WriteRegister(uint8_t reg_addr, uint8_t reg_data)
 755:MAX30101.c    **** {
 2363              		.loc 1 755 0
 2364              		.cfi_startproc
 2365              		@ args = 0, pretend = 0, frame = 16
 2366              		@ frame_needed = 1, uses_anonymous_args = 0
 2367 0000 80B5     		push	{r7, lr}
 2368              		.cfi_def_cfa_offset 8
 2369              		.cfi_offset 7, -8
 2370              		.cfi_offset 14, -4
 2371 0002 84B0     		sub	sp, sp, #16
 2372              		.cfi_def_cfa_offset 24
ARM GAS  C:\Users\Perro\AppData\Local\Temp\ccDnyon7.s 			page 56


 2373 0004 00AF     		add	r7, sp, #0
 2374              		.cfi_def_cfa_register 7
 2375 0006 0346     		mov	r3, r0
 2376 0008 0A46     		mov	r2, r1
 2377 000a FB71     		strb	r3, [r7, #7]
 2378 000c 1346     		mov	r3, r2
 2379 000e BB71     		strb	r3, [r7, #6]
 756:MAX30101.c    ****     uint8_t error = MAX30101_OK;
 2380              		.loc 1 756 0
 2381 0010 0023     		movs	r3, #0
 2382 0012 FB73     		strb	r3, [r7, #15]
 757:MAX30101.c    ****     if(I2C_Peripheral_WriteRegister(MAX30101_I2C_ADDRESS, reg_addr, reg_data) != I2C_NO_ERROR)
 2383              		.loc 1 757 0
 2384 0014 BA79     		ldrb	r2, [r7, #6]	@ zero_extendqisi2
 2385 0016 FB79     		ldrb	r3, [r7, #7]	@ zero_extendqisi2
 2386 0018 1946     		mov	r1, r3
 2387 001a 5720     		movs	r0, #87
 2388 001c FFF7FEFF 		bl	I2C_Peripheral_WriteRegister
 2389 0020 0346     		mov	r3, r0
 2390 0022 002B     		cmp	r3, #0
 2391 0024 01D0     		beq	.L129
 758:MAX30101.c    ****     {
 759:MAX30101.c    ****         error = MAX30101_DEV_NOT_FOUND;
 2392              		.loc 1 759 0
 2393 0026 0123     		movs	r3, #1
 2394 0028 FB73     		strb	r3, [r7, #15]
 2395              	.L129:
 760:MAX30101.c    ****     }
 761:MAX30101.c    ****     return error;
 2396              		.loc 1 761 0
 2397 002a FB7B     		ldrb	r3, [r7, #15]	@ zero_extendqisi2
 762:MAX30101.c    **** }
 2398              		.loc 1 762 0
 2399 002c 1846     		mov	r0, r3
 2400 002e 1037     		adds	r7, r7, #16
 2401              		.cfi_def_cfa_offset 8
 2402 0030 BD46     		mov	sp, r7
 2403              		.cfi_def_cfa_register 13
 2404              		@ sp needed
 2405 0032 80BD     		pop	{r7, pc}
 2406              		.cfi_endproc
 2407              	.LFE108:
 2408              		.size	MAX30101_WriteRegister, .-MAX30101_WriteRegister
 2409              		.section	.text.MAX30101_BitMask,"ax",%progbits
 2410              		.align	2
 2411              		.thumb
 2412              		.thumb_func
 2413              		.type	MAX30101_BitMask, %function
 2414              	MAX30101_BitMask:
 2415              	.LFB109:
 763:MAX30101.c    **** 
 764:MAX30101.c    **** // Simple helper function to perform bit mask operations
 765:MAX30101.c    **** static uint8_t MAX30101_BitMask(uint8_t reg_addr, uint8_t mask, uint8_t thing)
 766:MAX30101.c    **** {
 2416              		.loc 1 766 0
 2417              		.cfi_startproc
 2418              		@ args = 0, pretend = 0, frame = 16
ARM GAS  C:\Users\Perro\AppData\Local\Temp\ccDnyon7.s 			page 57


 2419              		@ frame_needed = 1, uses_anonymous_args = 0
 2420 0000 80B5     		push	{r7, lr}
 2421              		.cfi_def_cfa_offset 8
 2422              		.cfi_offset 7, -8
 2423              		.cfi_offset 14, -4
 2424 0002 84B0     		sub	sp, sp, #16
 2425              		.cfi_def_cfa_offset 24
 2426 0004 00AF     		add	r7, sp, #0
 2427              		.cfi_def_cfa_register 7
 2428 0006 0346     		mov	r3, r0
 2429 0008 FB71     		strb	r3, [r7, #7]
 2430 000a 0B46     		mov	r3, r1
 2431 000c BB71     		strb	r3, [r7, #6]
 2432 000e 1346     		mov	r3, r2
 2433 0010 7B71     		strb	r3, [r7, #5]
 767:MAX30101.c    ****     uint8_t reg_data;
 768:MAX30101.c    ****     uint8_t error = MAX30101_ReadRegister(reg_addr, &reg_data);
 2434              		.loc 1 768 0
 2435 0012 07F10E02 		add	r2, r7, #14
 2436 0016 FB79     		ldrb	r3, [r7, #7]	@ zero_extendqisi2
 2437 0018 1146     		mov	r1, r2
 2438 001a 1846     		mov	r0, r3
 2439 001c FFF7FEFF 		bl	MAX30101_ReadRegister
 2440 0020 0346     		mov	r3, r0
 2441 0022 FB73     		strb	r3, [r7, #15]
 769:MAX30101.c    ****     if (error == MAX30101_OK)
 2442              		.loc 1 769 0
 2443 0024 FB7B     		ldrb	r3, [r7, #15]	@ zero_extendqisi2
 2444 0026 002B     		cmp	r3, #0
 2445 0028 0FD1     		bne	.L132
 770:MAX30101.c    ****     {
 771:MAX30101.c    ****         reg_data = reg_data & mask;
 2446              		.loc 1 771 0
 2447 002a BA7B     		ldrb	r2, [r7, #14]	@ zero_extendqisi2
 2448 002c BB79     		ldrb	r3, [r7, #6]
 2449 002e 1340     		ands	r3, r3, r2
 2450 0030 DBB2     		uxtb	r3, r3
 2451 0032 BB73     		strb	r3, [r7, #14]
 772:MAX30101.c    ****         error = MAX30101_WriteRegister(reg_addr, reg_data | thing);
 2452              		.loc 1 772 0
 2453 0034 BA7B     		ldrb	r2, [r7, #14]	@ zero_extendqisi2
 2454 0036 7B79     		ldrb	r3, [r7, #5]
 2455 0038 1343     		orrs	r3, r3, r2
 2456 003a DAB2     		uxtb	r2, r3
 2457 003c FB79     		ldrb	r3, [r7, #7]	@ zero_extendqisi2
 2458 003e 1146     		mov	r1, r2
 2459 0040 1846     		mov	r0, r3
 2460 0042 FFF7FEFF 		bl	MAX30101_WriteRegister
 2461 0046 0346     		mov	r3, r0
 2462 0048 FB73     		strb	r3, [r7, #15]
 2463              	.L132:
 773:MAX30101.c    ****     }
 774:MAX30101.c    ****     return error;
 2464              		.loc 1 774 0
 2465 004a FB7B     		ldrb	r3, [r7, #15]	@ zero_extendqisi2
 775:MAX30101.c    **** }
 2466              		.loc 1 775 0
ARM GAS  C:\Users\Perro\AppData\Local\Temp\ccDnyon7.s 			page 58


 2467 004c 1846     		mov	r0, r3
 2468 004e 1037     		adds	r7, r7, #16
 2469              		.cfi_def_cfa_offset 8
 2470 0050 BD46     		mov	sp, r7
 2471              		.cfi_def_cfa_register 13
 2472              		@ sp needed
 2473 0052 80BD     		pop	{r7, pc}
 2474              		.cfi_endproc
 2475              	.LFE109:
 2476              		.size	MAX30101_BitMask, .-MAX30101_BitMask
 2477              		.section	.text.getFIFORed,"ax",%progbits
 2478              		.align	2
 2479              		.global	getFIFORed
 2480              		.thumb
 2481              		.thumb_func
 2482              		.type	getFIFORed, %function
 2483              	getFIFORed:
 2484              	.LFB110:
 776:MAX30101.c    **** 
 777:MAX30101.c    **** //Report the first Red value in the FIFO pointed by the tail
 778:MAX30101.c    **** uint32_t getFIFORed(MAX30101_Data* data)
 779:MAX30101.c    **** {
 2485              		.loc 1 779 0
 2486              		.cfi_startproc
 2487              		@ args = 0, pretend = 0, frame = 8
 2488              		@ frame_needed = 1, uses_anonymous_args = 0
 2489              		@ link register save eliminated.
 2490 0000 80B4     		push	{r7}
 2491              		.cfi_def_cfa_offset 4
 2492              		.cfi_offset 7, -4
 2493 0002 83B0     		sub	sp, sp, #12
 2494              		.cfi_def_cfa_offset 16
 2495 0004 00AF     		add	r7, sp, #0
 2496              		.cfi_def_cfa_register 7
 2497 0006 7860     		str	r0, [r7, #4]
 780:MAX30101.c    ****   return (data->red[data->tail]);
 2498              		.loc 1 780 0
 2499 0008 7B68     		ldr	r3, [r7, #4]
 2500 000a 93F88131 		ldrb	r3, [r3, #385]	@ zero_extendqisi2
 2501 000e 1A46     		mov	r2, r3
 2502 0010 7B68     		ldr	r3, [r7, #4]
 2503 0012 53F82230 		ldr	r3, [r3, r2, lsl #2]
 781:MAX30101.c    **** }
 2504              		.loc 1 781 0
 2505 0016 1846     		mov	r0, r3
 2506 0018 0C37     		adds	r7, r7, #12
 2507              		.cfi_def_cfa_offset 4
 2508 001a BD46     		mov	sp, r7
 2509              		.cfi_def_cfa_register 13
 2510              		@ sp needed
 2511 001c 80BC     		pop	{r7}
 2512              		.cfi_restore 7
 2513              		.cfi_def_cfa_offset 0
 2514 001e 7047     		bx	lr
 2515              		.cfi_endproc
 2516              	.LFE110:
 2517              		.size	getFIFORed, .-getFIFORed
ARM GAS  C:\Users\Perro\AppData\Local\Temp\ccDnyon7.s 			page 59


 2518              		.section	.text.getFIFOIR,"ax",%progbits
 2519              		.align	2
 2520              		.global	getFIFOIR
 2521              		.thumb
 2522              		.thumb_func
 2523              		.type	getFIFOIR, %function
 2524              	getFIFOIR:
 2525              	.LFB111:
 782:MAX30101.c    **** 
 783:MAX30101.c    **** //Report the first IR value in the FIFO pointed by the tail
 784:MAX30101.c    **** uint32_t getFIFOIR(MAX30101_Data* data)
 785:MAX30101.c    **** {
 2526              		.loc 1 785 0
 2527              		.cfi_startproc
 2528              		@ args = 0, pretend = 0, frame = 8
 2529              		@ frame_needed = 1, uses_anonymous_args = 0
 2530              		@ link register save eliminated.
 2531 0000 80B4     		push	{r7}
 2532              		.cfi_def_cfa_offset 4
 2533              		.cfi_offset 7, -4
 2534 0002 83B0     		sub	sp, sp, #12
 2535              		.cfi_def_cfa_offset 16
 2536 0004 00AF     		add	r7, sp, #0
 2537              		.cfi_def_cfa_register 7
 2538 0006 7860     		str	r0, [r7, #4]
 786:MAX30101.c    ****   return (data->IR[data->tail]);
 2539              		.loc 1 786 0
 2540 0008 7B68     		ldr	r3, [r7, #4]
 2541 000a 93F88131 		ldrb	r3, [r3, #385]	@ zero_extendqisi2
 2542 000e 1A46     		mov	r2, r3
 2543 0010 7B68     		ldr	r3, [r7, #4]
 2544 0012 2032     		adds	r2, r2, #32
 2545 0014 53F82230 		ldr	r3, [r3, r2, lsl #2]
 787:MAX30101.c    **** }
 2546              		.loc 1 787 0
 2547 0018 1846     		mov	r0, r3
 2548 001a 0C37     		adds	r7, r7, #12
 2549              		.cfi_def_cfa_offset 4
 2550 001c BD46     		mov	sp, r7
 2551              		.cfi_def_cfa_register 13
 2552              		@ sp needed
 2553 001e 80BC     		pop	{r7}
 2554              		.cfi_restore 7
 2555              		.cfi_def_cfa_offset 0
 2556 0020 7047     		bx	lr
 2557              		.cfi_endproc
 2558              	.LFE111:
 2559              		.size	getFIFOIR, .-getFIFOIR
 2560 0022 00BF     		.section	.text.MAX30105_available,"ax",%progbits
 2561              		.align	2
 2562              		.global	MAX30105_available
 2563              		.thumb
 2564              		.thumb_func
 2565              		.type	MAX30105_available, %function
 2566              	MAX30105_available:
 2567              	.LFB112:
 788:MAX30101.c    **** 
ARM GAS  C:\Users\Perro\AppData\Local\Temp\ccDnyon7.s 			page 60


 789:MAX30101.c    **** uint8_t MAX30105_available(void)
 790:MAX30101.c    **** {
 2568              		.loc 1 790 0
 2569              		.cfi_startproc
 2570              		@ args = 0, pretend = 0, frame = 8
 2571              		@ frame_needed = 1, uses_anonymous_args = 0
 2572              		@ link register save eliminated.
 2573 0000 80B4     		push	{r7}
 2574              		.cfi_def_cfa_offset 4
 2575              		.cfi_offset 7, -4
 2576 0002 83B0     		sub	sp, sp, #12
 2577              		.cfi_def_cfa_offset 16
 2578 0004 00AF     		add	r7, sp, #0
 2579              		.cfi_def_cfa_register 7
 791:MAX30101.c    ****   uint8_t samples_FIFO = data.head - data.tail;
 2580              		.loc 1 791 0
 2581 0006 074B     		ldr	r3, .L140
 2582 0008 93F88021 		ldrb	r2, [r3, #384]	@ zero_extendqisi2
 2583 000c 054B     		ldr	r3, .L140
 2584 000e 93F88131 		ldrb	r3, [r3, #385]	@ zero_extendqisi2
 2585 0012 D31A     		subs	r3, r2, r3
 2586 0014 FB71     		strb	r3, [r7, #7]
 792:MAX30101.c    ****   if (samples_FIFO < 0) samples_FIFO += 32;
 793:MAX30101.c    **** 
 794:MAX30101.c    ****   return (samples_FIFO);
 2587              		.loc 1 794 0
 2588 0016 FB79     		ldrb	r3, [r7, #7]	@ zero_extendqisi2
 795:MAX30101.c    **** }
 2589              		.loc 1 795 0
 2590 0018 1846     		mov	r0, r3
 2591 001a 0C37     		adds	r7, r7, #12
 2592              		.cfi_def_cfa_offset 4
 2593 001c BD46     		mov	sp, r7
 2594              		.cfi_def_cfa_register 13
 2595              		@ sp needed
 2596 001e 80BC     		pop	{r7}
 2597              		.cfi_restore 7
 2598              		.cfi_def_cfa_offset 0
 2599 0020 7047     		bx	lr
 2600              	.L141:
 2601 0022 00BF     		.align	2
 2602              	.L140:
 2603 0024 00000000 		.word	data
 2604              		.cfi_endproc
 2605              	.LFE112:
 2606              		.size	MAX30105_available, .-MAX30105_available
 2607              		.section	.text.getIR_n,"ax",%progbits
 2608              		.align	2
 2609              		.global	getIR_n
 2610              		.thumb
 2611              		.thumb_func
 2612              		.type	getIR_n, %function
 2613              	getIR_n:
 2614              	.LFB113:
 796:MAX30101.c    **** 
 797:MAX30101.c    **** uint32_t getIR_n(uint32_t x[], int i) //uint8_t num_samples, volatile long count)//
 798:MAX30101.c    **** {
ARM GAS  C:\Users\Perro\AppData\Local\Temp\ccDnyon7.s 			page 61


 2615              		.loc 1 798 0
 2616              		.cfi_startproc
 2617              		@ args = 0, pretend = 0, frame = 8
 2618              		@ frame_needed = 1, uses_anonymous_args = 0
 2619              		@ link register save eliminated.
 2620 0000 80B4     		push	{r7}
 2621              		.cfi_def_cfa_offset 4
 2622              		.cfi_offset 7, -4
 2623 0002 83B0     		sub	sp, sp, #12
 2624              		.cfi_def_cfa_offset 16
 2625 0004 00AF     		add	r7, sp, #0
 2626              		.cfi_def_cfa_register 7
 2627 0006 7860     		str	r0, [r7, #4]
 2628 0008 3960     		str	r1, [r7]
 799:MAX30101.c    ****             return (x[i]);
 2629              		.loc 1 799 0
 2630 000a 3B68     		ldr	r3, [r7]
 2631 000c 9B00     		lsls	r3, r3, #2
 2632 000e 7A68     		ldr	r2, [r7, #4]
 2633 0010 1344     		add	r3, r3, r2
 2634 0012 1B68     		ldr	r3, [r3]
 800:MAX30101.c    ****             
 801:MAX30101.c    **** }
 2635              		.loc 1 801 0
 2636 0014 1846     		mov	r0, r3
 2637 0016 0C37     		adds	r7, r7, #12
 2638              		.cfi_def_cfa_offset 4
 2639 0018 BD46     		mov	sp, r7
 2640              		.cfi_def_cfa_register 13
 2641              		@ sp needed
 2642 001a 80BC     		pop	{r7}
 2643              		.cfi_restore 7
 2644              		.cfi_def_cfa_offset 0
 2645 001c 7047     		bx	lr
 2646              		.cfi_endproc
 2647              	.LFE113:
 2648              		.size	getIR_n, .-getIR_n
 2649 001e 00BF     		.section	.text.getIR,"ax",%progbits
 2650              		.align	2
 2651              		.global	getIR
 2652              		.thumb
 2653              		.thumb_func
 2654              		.type	getIR, %function
 2655              	getIR:
 2656              	.LFB114:
 802:MAX30101.c    **** 
 803:MAX30101.c    **** uint32_t getIR(MAX30101_Data *data) //, uint8_t rp, uint8_t wp, uint8_t active_leds, int j) //uint8
 804:MAX30101.c    **** {
 2657              		.loc 1 804 0
 2658              		.cfi_startproc
 2659              		@ args = 0, pretend = 0, frame = 8
 2660              		@ frame_needed = 1, uses_anonymous_args = 0
 2661              		@ link register save eliminated.
 2662 0000 80B4     		push	{r7}
 2663              		.cfi_def_cfa_offset 4
 2664              		.cfi_offset 7, -4
 2665 0002 83B0     		sub	sp, sp, #12
ARM GAS  C:\Users\Perro\AppData\Local\Temp\ccDnyon7.s 			page 62


 2666              		.cfi_def_cfa_offset 16
 2667 0004 00AF     		add	r7, sp, #0
 2668              		.cfi_def_cfa_register 7
 2669 0006 7860     		str	r0, [r7, #4]
 805:MAX30101.c    ****    /* //if(MAX30105_safeCheck(250, num_samples, count))
 806:MAX30101.c    ****     MAX30101_ReadReadPointer(&rp);
 807:MAX30101.c    ****     MAX30101_ReadWritePointer(&wp);
 808:MAX30101.c    ****                 //Calculate the number of readings we need to get from sensor
 809:MAX30101.c    ****     int num_samples = wp - rp;
 810:MAX30101.c    ****     if (num_samples <= 0) 
 811:MAX30101.c    ****     num_samples += 32; //Wrap condition
 812:MAX30101.c    ****                 // Print out number of samples
 813:MAX30101.c    ****                 //sprintf(msg, "%d\r\n", num_samples);
 814:MAX30101.c    ****                 //debug_print(msg);
 815:MAX30101.c    ****                 // Read FIFO
 816:MAX30101.c    ****     MAX30101_ReadFIFO(num_samples, active_leds, data, j);*/
 817:MAX30101.c    ****     
 818:MAX30101.c    ****     return (data->IR[data->head]);  
 2670              		.loc 1 818 0
 2671 0008 7B68     		ldr	r3, [r7, #4]
 2672 000a 93F88031 		ldrb	r3, [r3, #384]	@ zero_extendqisi2
 2673 000e 1A46     		mov	r2, r3
 2674 0010 7B68     		ldr	r3, [r7, #4]
 2675 0012 2032     		adds	r2, r2, #32
 2676 0014 53F82230 		ldr	r3, [r3, r2, lsl #2]
 819:MAX30101.c    **** }
 2677              		.loc 1 819 0
 2678 0018 1846     		mov	r0, r3
 2679 001a 0C37     		adds	r7, r7, #12
 2680              		.cfi_def_cfa_offset 4
 2681 001c BD46     		mov	sp, r7
 2682              		.cfi_def_cfa_register 13
 2683              		@ sp needed
 2684 001e 80BC     		pop	{r7}
 2685              		.cfi_restore 7
 2686              		.cfi_def_cfa_offset 0
 2687 0020 7047     		bx	lr
 2688              		.cfi_endproc
 2689              	.LFE114:
 2690              		.size	getIR, .-getIR
 2691 0022 00BF     		.section	.text.getRED,"ax",%progbits
 2692              		.align	2
 2693              		.global	getRED
 2694              		.thumb
 2695              		.thumb_func
 2696              		.type	getRED, %function
 2697              	getRED:
 2698              	.LFB115:
 820:MAX30101.c    **** 
 821:MAX30101.c    **** uint32_t getRED(MAX30101_Data *data) //uint8_t num_samples, volatile long count)//
 822:MAX30101.c    **** {
 2699              		.loc 1 822 0
 2700              		.cfi_startproc
 2701              		@ args = 0, pretend = 0, frame = 8
 2702              		@ frame_needed = 1, uses_anonymous_args = 0
 2703              		@ link register save eliminated.
 2704 0000 80B4     		push	{r7}
ARM GAS  C:\Users\Perro\AppData\Local\Temp\ccDnyon7.s 			page 63


 2705              		.cfi_def_cfa_offset 4
 2706              		.cfi_offset 7, -4
 2707 0002 83B0     		sub	sp, sp, #12
 2708              		.cfi_def_cfa_offset 16
 2709 0004 00AF     		add	r7, sp, #0
 2710              		.cfi_def_cfa_register 7
 2711 0006 7860     		str	r0, [r7, #4]
 823:MAX30101.c    ****     //if(MAX30105_safeCheck(250, num_samples, count))
 824:MAX30101.c    ****     
 825:MAX30101.c    ****      return (data->red[data->head]);  
 2712              		.loc 1 825 0
 2713 0008 7B68     		ldr	r3, [r7, #4]
 2714 000a 93F88031 		ldrb	r3, [r3, #384]	@ zero_extendqisi2
 2715 000e 1A46     		mov	r2, r3
 2716 0010 7B68     		ldr	r3, [r7, #4]
 2717 0012 53F82230 		ldr	r3, [r3, r2, lsl #2]
 826:MAX30101.c    **** }
 2718              		.loc 1 826 0
 2719 0016 1846     		mov	r0, r3
 2720 0018 0C37     		adds	r7, r7, #12
 2721              		.cfi_def_cfa_offset 4
 2722 001a BD46     		mov	sp, r7
 2723              		.cfi_def_cfa_register 13
 2724              		@ sp needed
 2725 001c 80BC     		pop	{r7}
 2726              		.cfi_restore 7
 2727              		.cfi_def_cfa_offset 0
 2728 001e 7047     		bx	lr
 2729              		.cfi_endproc
 2730              	.LFE115:
 2731              		.size	getRED, .-getRED
 2732              		.text
 2733              	.Letext0:
 2734              		.file 2 "c:\\program files (x86)\\cypress\\psoc creator\\4.4\\psoc creator\\import\\gnu\\arm\\5.4.
 2735              		.file 3 "c:\\program files (x86)\\cypress\\psoc creator\\4.4\\psoc creator\\import\\gnu\\arm\\5.4.
 2736              		.file 4 "MAX30101.h"
 2737              		.file 5 "Generated_Source\\PSoC5/core_cm3.h"
 2738              		.section	.debug_info,"",%progbits
 2739              	.Ldebug_info0:
 2740 0000 020D0000 		.4byte	0xd02
 2741 0004 0400     		.2byte	0x4
 2742 0006 00000000 		.4byte	.Ldebug_abbrev0
 2743 000a 04       		.byte	0x4
 2744 000b 01       		.uleb128 0x1
 2745 000c CF000000 		.4byte	.LASF115
 2746 0010 0C       		.byte	0xc
 2747 0011 9D060000 		.4byte	.LASF116
 2748 0015 8A070000 		.4byte	.LASF117
 2749 0019 00000000 		.4byte	.Ldebug_ranges0+0
 2750 001d 00000000 		.4byte	0
 2751 0021 00000000 		.4byte	.Ldebug_line0
 2752 0025 02       		.uleb128 0x2
 2753 0026 AC040000 		.4byte	.LASF0
 2754 002a 02       		.byte	0x2
 2755 002b 1B       		.byte	0x1b
 2756 002c 30000000 		.4byte	0x30
 2757 0030 03       		.uleb128 0x3
ARM GAS  C:\Users\Perro\AppData\Local\Temp\ccDnyon7.s 			page 64


 2758 0031 01       		.byte	0x1
 2759 0032 06       		.byte	0x6
 2760 0033 F7060000 		.4byte	.LASF2
 2761 0037 02       		.uleb128 0x2
 2762 0038 7C050000 		.4byte	.LASF1
 2763 003c 02       		.byte	0x2
 2764 003d 1D       		.byte	0x1d
 2765 003e 42000000 		.4byte	0x42
 2766 0042 03       		.uleb128 0x3
 2767 0043 01       		.byte	0x1
 2768 0044 08       		.byte	0x8
 2769 0045 53060000 		.4byte	.LASF3
 2770 0049 03       		.uleb128 0x3
 2771 004a 02       		.byte	0x2
 2772 004b 05       		.byte	0x5
 2773 004c E3040000 		.4byte	.LASF4
 2774 0050 02       		.uleb128 0x2
 2775 0051 4D020000 		.4byte	.LASF5
 2776 0055 02       		.byte	0x2
 2777 0056 2B       		.byte	0x2b
 2778 0057 5B000000 		.4byte	0x5b
 2779 005b 03       		.uleb128 0x3
 2780 005c 02       		.byte	0x2
 2781 005d 07       		.byte	0x7
 2782 005e 18070000 		.4byte	.LASF6
 2783 0062 02       		.uleb128 0x2
 2784 0063 92000000 		.4byte	.LASF7
 2785 0067 02       		.byte	0x2
 2786 0068 3F       		.byte	0x3f
 2787 0069 6D000000 		.4byte	0x6d
 2788 006d 03       		.uleb128 0x3
 2789 006e 04       		.byte	0x4
 2790 006f 05       		.byte	0x5
 2791 0070 02050000 		.4byte	.LASF8
 2792 0074 02       		.uleb128 0x2
 2793 0075 61060000 		.4byte	.LASF9
 2794 0079 02       		.byte	0x2
 2795 007a 41       		.byte	0x41
 2796 007b 7F000000 		.4byte	0x7f
 2797 007f 03       		.uleb128 0x3
 2798 0080 04       		.byte	0x4
 2799 0081 07       		.byte	0x7
 2800 0082 C5050000 		.4byte	.LASF10
 2801 0086 03       		.uleb128 0x3
 2802 0087 08       		.byte	0x8
 2803 0088 05       		.byte	0x5
 2804 0089 EA030000 		.4byte	.LASF11
 2805 008d 03       		.uleb128 0x3
 2806 008e 08       		.byte	0x8
 2807 008f 07       		.byte	0x7
 2808 0090 10020000 		.4byte	.LASF12
 2809 0094 04       		.uleb128 0x4
 2810 0095 04       		.byte	0x4
 2811 0096 05       		.byte	0x5
 2812 0097 696E7400 		.ascii	"int\000"
 2813 009b 03       		.uleb128 0x3
 2814 009c 04       		.byte	0x4
ARM GAS  C:\Users\Perro\AppData\Local\Temp\ccDnyon7.s 			page 65


 2815 009d 07       		.byte	0x7
 2816 009e 7B000000 		.4byte	.LASF13
 2817 00a2 02       		.uleb128 0x2
 2818 00a3 E8010000 		.4byte	.LASF14
 2819 00a7 03       		.byte	0x3
 2820 00a8 14       		.byte	0x14
 2821 00a9 25000000 		.4byte	0x25
 2822 00ad 02       		.uleb128 0x2
 2823 00ae B2030000 		.4byte	.LASF15
 2824 00b2 03       		.byte	0x3
 2825 00b3 18       		.byte	0x18
 2826 00b4 37000000 		.4byte	0x37
 2827 00b8 02       		.uleb128 0x2
 2828 00b9 CF040000 		.4byte	.LASF16
 2829 00bd 03       		.byte	0x3
 2830 00be 24       		.byte	0x24
 2831 00bf 50000000 		.4byte	0x50
 2832 00c3 02       		.uleb128 0x2
 2833 00c4 E1050000 		.4byte	.LASF17
 2834 00c8 03       		.byte	0x3
 2835 00c9 2C       		.byte	0x2c
 2836 00ca 62000000 		.4byte	0x62
 2837 00ce 02       		.uleb128 0x2
 2838 00cf DF010000 		.4byte	.LASF18
 2839 00d3 03       		.byte	0x3
 2840 00d4 30       		.byte	0x30
 2841 00d5 74000000 		.4byte	0x74
 2842 00d9 03       		.uleb128 0x3
 2843 00da 04       		.byte	0x4
 2844 00db 04       		.byte	0x4
 2845 00dc F5010000 		.4byte	.LASF19
 2846 00e0 03       		.uleb128 0x3
 2847 00e1 08       		.byte	0x8
 2848 00e2 04       		.byte	0x4
 2849 00e3 50070000 		.4byte	.LASF20
 2850 00e7 03       		.uleb128 0x3
 2851 00e8 01       		.byte	0x1
 2852 00e9 08       		.byte	0x8
 2853 00ea 74030000 		.4byte	.LASF21
 2854 00ee 03       		.uleb128 0x3
 2855 00ef 08       		.byte	0x8
 2856 00f0 04       		.byte	0x4
 2857 00f1 C3040000 		.4byte	.LASF22
 2858 00f5 03       		.uleb128 0x3
 2859 00f6 04       		.byte	0x4
 2860 00f7 07       		.byte	0x7
 2861 00f8 BC050000 		.4byte	.LASF23
 2862 00fc 05       		.uleb128 0x5
 2863 00fd 04       		.byte	0x4
 2864 00fe 02010000 		.4byte	0x102
 2865 0102 06       		.uleb128 0x6
 2866 0103 E7000000 		.4byte	0xe7
 2867 0107 07       		.uleb128 0x7
 2868 0108 8401     		.2byte	0x184
 2869 010a 04       		.byte	0x4
 2870 010b 1B       		.byte	0x1b
 2871 010c 4F010000 		.4byte	0x14f
ARM GAS  C:\Users\Perro\AppData\Local\Temp\ccDnyon7.s 			page 66


 2872 0110 08       		.uleb128 0x8
 2873 0111 72656400 		.ascii	"red\000"
 2874 0115 04       		.byte	0x4
 2875 0116 1D       		.byte	0x1d
 2876 0117 4F010000 		.4byte	0x14f
 2877 011b 00       		.byte	0
 2878 011c 08       		.uleb128 0x8
 2879 011d 495200   		.ascii	"IR\000"
 2880 0120 04       		.byte	0x4
 2881 0121 1E       		.byte	0x1e
 2882 0122 4F010000 		.4byte	0x14f
 2883 0126 80       		.byte	0x80
 2884 0127 09       		.uleb128 0x9
 2885 0128 B5040000 		.4byte	.LASF24
 2886 012c 04       		.byte	0x4
 2887 012d 1F       		.byte	0x1f
 2888 012e 4F010000 		.4byte	0x14f
 2889 0132 0001     		.2byte	0x100
 2890 0134 09       		.uleb128 0x9
 2891 0135 88000000 		.4byte	.LASF25
 2892 0139 04       		.byte	0x4
 2893 013a 20       		.byte	0x20
 2894 013b AD000000 		.4byte	0xad
 2895 013f 8001     		.2byte	0x180
 2896 0141 09       		.uleb128 0x9
 2897 0142 A8060000 		.4byte	.LASF26
 2898 0146 04       		.byte	0x4
 2899 0147 21       		.byte	0x21
 2900 0148 AD000000 		.4byte	0xad
 2901 014c 8101     		.2byte	0x181
 2902 014e 00       		.byte	0
 2903 014f 0A       		.uleb128 0xa
 2904 0150 CE000000 		.4byte	0xce
 2905 0154 5F010000 		.4byte	0x15f
 2906 0158 0B       		.uleb128 0xb
 2907 0159 F5000000 		.4byte	0xf5
 2908 015d 1F       		.byte	0x1f
 2909 015e 00       		.byte	0
 2910 015f 02       		.uleb128 0x2
 2911 0160 70040000 		.4byte	.LASF27
 2912 0164 04       		.byte	0x4
 2913 0165 22       		.byte	0x22
 2914 0166 07010000 		.4byte	0x107
 2915 016a 0C       		.uleb128 0xc
 2916 016b 18000000 		.4byte	.LASF28
 2917 016f 01       		.byte	0x1
 2918 0170 B8       		.byte	0xb8
 2919 0171 AD000000 		.4byte	0xad
 2920 0175 00000000 		.4byte	.LFB64
 2921 0179 12000000 		.4byte	.LFE64-.LFB64
 2922 017d 01       		.uleb128 0x1
 2923 017e 9C       		.byte	0x9c
 2924 017f 0C       		.uleb128 0xc
 2925 0180 57040000 		.4byte	.LASF29
 2926 0184 01       		.byte	0x1
 2927 0185 BF       		.byte	0xbf
 2928 0186 AD000000 		.4byte	0xad
ARM GAS  C:\Users\Perro\AppData\Local\Temp\ccDnyon7.s 			page 67


 2929 018a 00000000 		.4byte	.LFB65
 2930 018e 1A000000 		.4byte	.LFE65-.LFB65
 2931 0192 01       		.uleb128 0x1
 2932 0193 9C       		.byte	0x9c
 2933 0194 0D       		.uleb128 0xd
 2934 0195 03070000 		.4byte	.LASF32
 2935 0199 01       		.byte	0x1
 2936 019a CE       		.byte	0xce
 2937 019b AD000000 		.4byte	0xad
 2938 019f 00000000 		.4byte	.LFB66
 2939 01a3 2E000000 		.4byte	.LFE66-.LFB66
 2940 01a7 01       		.uleb128 0x1
 2941 01a8 9C       		.byte	0x9c
 2942 01a9 D8010000 		.4byte	0x1d8
 2943 01ad 0E       		.uleb128 0xe
 2944 01ae 42050000 		.4byte	.LASF34
 2945 01b2 01       		.byte	0x1
 2946 01b3 CE       		.byte	0xce
 2947 01b4 D8010000 		.4byte	0x1d8
 2948 01b8 02       		.uleb128 0x2
 2949 01b9 91       		.byte	0x91
 2950 01ba 6C       		.sleb128 -20
 2951 01bb 0F       		.uleb128 0xf
 2952 01bc 32050000 		.4byte	.LASF30
 2953 01c0 01       		.byte	0x1
 2954 01c1 D1       		.byte	0xd1
 2955 01c2 AD000000 		.4byte	0xad
 2956 01c6 02       		.uleb128 0x2
 2957 01c7 91       		.byte	0x91
 2958 01c8 76       		.sleb128 -10
 2959 01c9 0F       		.uleb128 0xf
 2960 01ca 78010000 		.4byte	.LASF31
 2961 01ce 01       		.byte	0x1
 2962 01cf D2       		.byte	0xd2
 2963 01d0 AD000000 		.4byte	0xad
 2964 01d4 02       		.uleb128 0x2
 2965 01d5 91       		.byte	0x91
 2966 01d6 77       		.sleb128 -9
 2967 01d7 00       		.byte	0
 2968 01d8 05       		.uleb128 0x5
 2969 01d9 04       		.byte	0x4
 2970 01da AD000000 		.4byte	0xad
 2971 01de 0D       		.uleb128 0xd
 2972 01df 68050000 		.4byte	.LASF33
 2973 01e3 01       		.byte	0x1
 2974 01e4 D7       		.byte	0xd7
 2975 01e5 AD000000 		.4byte	0xad
 2976 01e9 00000000 		.4byte	.LFB67
 2977 01ed 2E000000 		.4byte	.LFE67-.LFB67
 2978 01f1 01       		.uleb128 0x1
 2979 01f2 9C       		.byte	0x9c
 2980 01f3 22020000 		.4byte	0x222
 2981 01f7 0E       		.uleb128 0xe
 2982 01f8 42050000 		.4byte	.LASF34
 2983 01fc 01       		.byte	0x1
 2984 01fd D7       		.byte	0xd7
 2985 01fe D8010000 		.4byte	0x1d8
ARM GAS  C:\Users\Perro\AppData\Local\Temp\ccDnyon7.s 			page 68


 2986 0202 02       		.uleb128 0x2
 2987 0203 91       		.byte	0x91
 2988 0204 6C       		.sleb128 -20
 2989 0205 0F       		.uleb128 0xf
 2990 0206 32050000 		.4byte	.LASF30
 2991 020a 01       		.byte	0x1
 2992 020b DA       		.byte	0xda
 2993 020c AD000000 		.4byte	0xad
 2994 0210 02       		.uleb128 0x2
 2995 0211 91       		.byte	0x91
 2996 0212 76       		.sleb128 -10
 2997 0213 0F       		.uleb128 0xf
 2998 0214 78010000 		.4byte	.LASF31
 2999 0218 01       		.byte	0x1
 3000 0219 DB       		.byte	0xdb
 3001 021a AD000000 		.4byte	0xad
 3002 021e 02       		.uleb128 0x2
 3003 021f 91       		.byte	0x91
 3004 0220 77       		.sleb128 -9
 3005 0221 00       		.byte	0
 3006 0222 0D       		.uleb128 0xd
 3007 0223 73070000 		.4byte	.LASF35
 3008 0227 01       		.byte	0x1
 3009 0228 DF       		.byte	0xdf
 3010 0229 AD000000 		.4byte	0xad
 3011 022d 00000000 		.4byte	.LFB68
 3012 0231 2E000000 		.4byte	.LFE68-.LFB68
 3013 0235 01       		.uleb128 0x1
 3014 0236 9C       		.byte	0x9c
 3015 0237 66020000 		.4byte	0x266
 3016 023b 0E       		.uleb128 0xe
 3017 023c 42050000 		.4byte	.LASF34
 3018 0240 01       		.byte	0x1
 3019 0241 DF       		.byte	0xdf
 3020 0242 D8010000 		.4byte	0x1d8
 3021 0246 02       		.uleb128 0x2
 3022 0247 91       		.byte	0x91
 3023 0248 6C       		.sleb128 -20
 3024 0249 0F       		.uleb128 0xf
 3025 024a 32050000 		.4byte	.LASF30
 3026 024e 01       		.byte	0x1
 3027 024f E2       		.byte	0xe2
 3028 0250 AD000000 		.4byte	0xad
 3029 0254 02       		.uleb128 0x2
 3030 0255 91       		.byte	0x91
 3031 0256 76       		.sleb128 -10
 3032 0257 0F       		.uleb128 0xf
 3033 0258 78010000 		.4byte	.LASF31
 3034 025c 01       		.byte	0x1
 3035 025d E3       		.byte	0xe3
 3036 025e AD000000 		.4byte	0xad
 3037 0262 02       		.uleb128 0x2
 3038 0263 91       		.byte	0x91
 3039 0264 77       		.sleb128 -9
 3040 0265 00       		.byte	0
 3041 0266 0D       		.uleb128 0xd
 3042 0267 79030000 		.4byte	.LASF36
ARM GAS  C:\Users\Perro\AppData\Local\Temp\ccDnyon7.s 			page 69


 3043 026b 01       		.byte	0x1
 3044 026c E7       		.byte	0xe7
 3045 026d AD000000 		.4byte	0xad
 3046 0271 00000000 		.4byte	.LFB69
 3047 0275 2E000000 		.4byte	.LFE69-.LFB69
 3048 0279 01       		.uleb128 0x1
 3049 027a 9C       		.byte	0x9c
 3050 027b AA020000 		.4byte	0x2aa
 3051 027f 0E       		.uleb128 0xe
 3052 0280 42050000 		.4byte	.LASF34
 3053 0284 01       		.byte	0x1
 3054 0285 E7       		.byte	0xe7
 3055 0286 D8010000 		.4byte	0x1d8
 3056 028a 02       		.uleb128 0x2
 3057 028b 91       		.byte	0x91
 3058 028c 6C       		.sleb128 -20
 3059 028d 0F       		.uleb128 0xf
 3060 028e 32050000 		.4byte	.LASF30
 3061 0292 01       		.byte	0x1
 3062 0293 EA       		.byte	0xea
 3063 0294 AD000000 		.4byte	0xad
 3064 0298 02       		.uleb128 0x2
 3065 0299 91       		.byte	0x91
 3066 029a 76       		.sleb128 -10
 3067 029b 0F       		.uleb128 0xf
 3068 029c 78010000 		.4byte	.LASF31
 3069 02a0 01       		.byte	0x1
 3070 02a1 EB       		.byte	0xeb
 3071 02a2 AD000000 		.4byte	0xad
 3072 02a6 02       		.uleb128 0x2
 3073 02a7 91       		.byte	0x91
 3074 02a8 77       		.sleb128 -9
 3075 02a9 00       		.byte	0
 3076 02aa 0D       		.uleb128 0xd
 3077 02ab FB010000 		.4byte	.LASF37
 3078 02af 01       		.byte	0x1
 3079 02b0 EF       		.byte	0xef
 3080 02b1 AD000000 		.4byte	0xad
 3081 02b5 00000000 		.4byte	.LFB70
 3082 02b9 2E000000 		.4byte	.LFE70-.LFB70
 3083 02bd 01       		.uleb128 0x1
 3084 02be 9C       		.byte	0x9c
 3085 02bf EE020000 		.4byte	0x2ee
 3086 02c3 0E       		.uleb128 0xe
 3087 02c4 42050000 		.4byte	.LASF34
 3088 02c8 01       		.byte	0x1
 3089 02c9 EF       		.byte	0xef
 3090 02ca D8010000 		.4byte	0x1d8
 3091 02ce 02       		.uleb128 0x2
 3092 02cf 91       		.byte	0x91
 3093 02d0 6C       		.sleb128 -20
 3094 02d1 0F       		.uleb128 0xf
 3095 02d2 32050000 		.4byte	.LASF30
 3096 02d6 01       		.byte	0x1
 3097 02d7 F2       		.byte	0xf2
 3098 02d8 AD000000 		.4byte	0xad
 3099 02dc 02       		.uleb128 0x2
ARM GAS  C:\Users\Perro\AppData\Local\Temp\ccDnyon7.s 			page 70


 3100 02dd 91       		.byte	0x91
 3101 02de 76       		.sleb128 -10
 3102 02df 0F       		.uleb128 0xf
 3103 02e0 78010000 		.4byte	.LASF31
 3104 02e4 01       		.byte	0x1
 3105 02e5 F3       		.byte	0xf3
 3106 02e6 AD000000 		.4byte	0xad
 3107 02ea 02       		.uleb128 0x2
 3108 02eb 91       		.byte	0x91
 3109 02ec 77       		.sleb128 -9
 3110 02ed 00       		.byte	0
 3111 02ee 0C       		.uleb128 0xc
 3112 02ef 57070000 		.4byte	.LASF38
 3113 02f3 01       		.byte	0x1
 3114 02f4 F9       		.byte	0xf9
 3115 02f5 AD000000 		.4byte	0xad
 3116 02f9 00000000 		.4byte	.LFB71
 3117 02fd 14000000 		.4byte	.LFE71-.LFB71
 3118 0301 01       		.uleb128 0x1
 3119 0302 9C       		.byte	0x9c
 3120 0303 0C       		.uleb128 0xc
 3121 0304 86040000 		.4byte	.LASF39
 3122 0308 01       		.byte	0x1
 3123 0309 FD       		.byte	0xfd
 3124 030a AD000000 		.4byte	0xad
 3125 030e 00000000 		.4byte	.LFB72
 3126 0312 14000000 		.4byte	.LFE72-.LFB72
 3127 0316 01       		.uleb128 0x1
 3128 0317 9C       		.byte	0x9c
 3129 0318 10       		.uleb128 0x10
 3130 0319 1C060000 		.4byte	.LASF40
 3131 031d 01       		.byte	0x1
 3132 031e 0101     		.2byte	0x101
 3133 0320 AD000000 		.4byte	0xad
 3134 0324 00000000 		.4byte	.LFB73
 3135 0328 14000000 		.4byte	.LFE73-.LFB73
 3136 032c 01       		.uleb128 0x1
 3137 032d 9C       		.byte	0x9c
 3138 032e 10       		.uleb128 0x10
 3139 032f C4020000 		.4byte	.LASF41
 3140 0333 01       		.byte	0x1
 3141 0334 0601     		.2byte	0x106
 3142 0336 AD000000 		.4byte	0xad
 3143 033a 00000000 		.4byte	.LFB74
 3144 033e 14000000 		.4byte	.LFE74-.LFB74
 3145 0342 01       		.uleb128 0x1
 3146 0343 9C       		.byte	0x9c
 3147 0344 10       		.uleb128 0x10
 3148 0345 BE060000 		.4byte	.LASF42
 3149 0349 01       		.byte	0x1
 3150 034a 0C01     		.2byte	0x10c
 3151 034c AD000000 		.4byte	0xad
 3152 0350 00000000 		.4byte	.LFB75
 3153 0354 14000000 		.4byte	.LFE75-.LFB75
 3154 0358 01       		.uleb128 0x1
 3155 0359 9C       		.byte	0x9c
 3156 035a 10       		.uleb128 0x10
ARM GAS  C:\Users\Perro\AppData\Local\Temp\ccDnyon7.s 			page 71


 3157 035b DB060000 		.4byte	.LASF43
 3158 035f 01       		.byte	0x1
 3159 0360 1101     		.2byte	0x111
 3160 0362 AD000000 		.4byte	0xad
 3161 0366 00000000 		.4byte	.LFB76
 3162 036a 14000000 		.4byte	.LFE76-.LFB76
 3163 036e 01       		.uleb128 0x1
 3164 036f 9C       		.byte	0x9c
 3165 0370 10       		.uleb128 0x10
 3166 0371 B4010000 		.4byte	.LASF44
 3167 0375 01       		.byte	0x1
 3168 0376 1601     		.2byte	0x116
 3169 0378 AD000000 		.4byte	0xad
 3170 037c 00000000 		.4byte	.LFB77
 3171 0380 14000000 		.4byte	.LFE77-.LFB77
 3172 0384 01       		.uleb128 0x1
 3173 0385 9C       		.byte	0x9c
 3174 0386 10       		.uleb128 0x10
 3175 0387 27020000 		.4byte	.LASF45
 3176 038b 01       		.byte	0x1
 3177 038c 1B01     		.2byte	0x11b
 3178 038e AD000000 		.4byte	0xad
 3179 0392 00000000 		.4byte	.LFB78
 3180 0396 14000000 		.4byte	.LFE78-.LFB78
 3181 039a 01       		.uleb128 0x1
 3182 039b 9C       		.byte	0x9c
 3183 039c 11       		.uleb128 0x11
 3184 039d 83010000 		.4byte	.LASF46
 3185 03a1 01       		.byte	0x1
 3186 03a2 2401     		.2byte	0x124
 3187 03a4 AD000000 		.4byte	0xad
 3188 03a8 00000000 		.4byte	.LFB79
 3189 03ac 1A000000 		.4byte	.LFE79-.LFB79
 3190 03b0 01       		.uleb128 0x1
 3191 03b1 9C       		.byte	0x9c
 3192 03b2 C5030000 		.4byte	0x3c5
 3193 03b6 12       		.uleb128 0x12
 3194 03b7 777200   		.ascii	"wr\000"
 3195 03ba 01       		.byte	0x1
 3196 03bb 2401     		.2byte	0x124
 3197 03bd D8010000 		.4byte	0x1d8
 3198 03c1 02       		.uleb128 0x2
 3199 03c2 91       		.byte	0x91
 3200 03c3 74       		.sleb128 -12
 3201 03c4 00       		.byte	0
 3202 03c5 11       		.uleb128 0x11
 3203 03c6 9C000000 		.4byte	.LASF47
 3204 03ca 01       		.byte	0x1
 3205 03cb 2A01     		.2byte	0x12a
 3206 03cd AD000000 		.4byte	0xad
 3207 03d1 00000000 		.4byte	.LFB80
 3208 03d5 1A000000 		.4byte	.LFE80-.LFB80
 3209 03d9 01       		.uleb128 0x1
 3210 03da 9C       		.byte	0x9c
 3211 03db EE030000 		.4byte	0x3ee
 3212 03df 12       		.uleb128 0x12
 3213 03e0 6F6300   		.ascii	"oc\000"
ARM GAS  C:\Users\Perro\AppData\Local\Temp\ccDnyon7.s 			page 72


 3214 03e3 01       		.byte	0x1
 3215 03e4 2A01     		.2byte	0x12a
 3216 03e6 D8010000 		.4byte	0x1d8
 3217 03ea 02       		.uleb128 0x2
 3218 03eb 91       		.byte	0x91
 3219 03ec 74       		.sleb128 -12
 3220 03ed 00       		.byte	0
 3221 03ee 11       		.uleb128 0x11
 3222 03ef 3A060000 		.4byte	.LASF48
 3223 03f3 01       		.byte	0x1
 3224 03f4 3001     		.2byte	0x130
 3225 03f6 AD000000 		.4byte	0xad
 3226 03fa 00000000 		.4byte	.LFB81
 3227 03fe 1A000000 		.4byte	.LFE81-.LFB81
 3228 0402 01       		.uleb128 0x1
 3229 0403 9C       		.byte	0x9c
 3230 0404 17040000 		.4byte	0x417
 3231 0408 12       		.uleb128 0x12
 3232 0409 727200   		.ascii	"rr\000"
 3233 040c 01       		.byte	0x1
 3234 040d 3001     		.2byte	0x130
 3235 040f D8010000 		.4byte	0x1d8
 3236 0413 02       		.uleb128 0x2
 3237 0414 91       		.byte	0x91
 3238 0415 74       		.sleb128 -12
 3239 0416 00       		.byte	0
 3240 0417 11       		.uleb128 0x11
 3241 0418 8A060000 		.4byte	.LASF49
 3242 041c 01       		.byte	0x1
 3243 041d 3601     		.2byte	0x136
 3244 041f AD000000 		.4byte	0xad
 3245 0423 00000000 		.4byte	.LFB82
 3246 0427 C6000000 		.4byte	.LFE82-.LFB82
 3247 042b 01       		.uleb128 0x1
 3248 042c 9C       		.byte	0x9c
 3249 042d 88040000 		.4byte	0x488
 3250 0431 13       		.uleb128 0x13
 3251 0432 78010000 		.4byte	.LASF31
 3252 0436 01       		.byte	0x1
 3253 0437 3801     		.2byte	0x138
 3254 0439 AD000000 		.4byte	0xad
 3255 043d 02       		.uleb128 0x2
 3256 043e 91       		.byte	0x91
 3257 043f 5F       		.sleb128 -33
 3258 0440 14       		.uleb128 0x14
 3259 0441 2C000000 		.4byte	.LBB2
 3260 0445 8E000000 		.4byte	.LBE2-.LBB2
 3261 0449 13       		.uleb128 0x13
 3262 044a 37050000 		.4byte	.LASF50
 3263 044e 01       		.byte	0x1
 3264 044f 3F01     		.2byte	0x13f
 3265 0451 AD000000 		.4byte	0xad
 3266 0455 02       		.uleb128 0x2
 3267 0456 91       		.byte	0x91
 3268 0457 53       		.sleb128 -45
 3269 0458 13       		.uleb128 0x13
 3270 0459 53000000 		.4byte	.LASF51
ARM GAS  C:\Users\Perro\AppData\Local\Temp\ccDnyon7.s 			page 73


 3271 045d 01       		.byte	0x1
 3272 045e 4101     		.2byte	0x141
 3273 0460 AD000000 		.4byte	0xad
 3274 0464 02       		.uleb128 0x2
 3275 0465 91       		.byte	0x91
 3276 0466 5D       		.sleb128 -35
 3277 0467 13       		.uleb128 0x13
 3278 0468 10060000 		.4byte	.LASF52
 3279 046c 01       		.byte	0x1
 3280 046d 4201     		.2byte	0x142
 3281 046f AD000000 		.4byte	0xad
 3282 0473 02       		.uleb128 0x2
 3283 0474 91       		.byte	0x91
 3284 0475 5E       		.sleb128 -34
 3285 0476 13       		.uleb128 0x13
 3286 0477 ED040000 		.4byte	.LASF53
 3287 047b 01       		.byte	0x1
 3288 047c 4F01     		.2byte	0x14f
 3289 047e 88040000 		.4byte	0x488
 3290 0482 03       		.uleb128 0x3
 3291 0483 91       		.byte	0x91
 3292 0484 54       		.sleb128 -44
 3293 0485 06       		.byte	0x6
 3294 0486 00       		.byte	0
 3295 0487 00       		.byte	0
 3296 0488 0A       		.uleb128 0xa
 3297 0489 AD000000 		.4byte	0xad
 3298 048d 9B040000 		.4byte	0x49b
 3299 0491 15       		.uleb128 0x15
 3300 0492 F5000000 		.4byte	0xf5
 3301 0496 03       		.uleb128 0x3
 3302 0497 91       		.byte	0x91
 3303 0498 58       		.sleb128 -40
 3304 0499 06       		.byte	0x6
 3305 049a 00       		.byte	0
 3306 049b 11       		.uleb128 0x11
 3307 049c 37030000 		.4byte	.LASF54
 3308 04a0 01       		.byte	0x1
 3309 04a1 5701     		.2byte	0x157
 3310 04a3 AD000000 		.4byte	0xad
 3311 04a7 00000000 		.4byte	.LFB83
 3312 04ab 46000000 		.4byte	.LFE83-.LFB83
 3313 04af 01       		.uleb128 0x1
 3314 04b0 9C       		.byte	0x9c
 3315 04b1 F2040000 		.4byte	0x4f2
 3316 04b5 16       		.uleb128 0x16
 3317 04b6 FB020000 		.4byte	.LASF55
 3318 04ba 01       		.byte	0x1
 3319 04bb 5701     		.2byte	0x157
 3320 04bd AD000000 		.4byte	0xad
 3321 04c1 02       		.uleb128 0x2
 3322 04c2 91       		.byte	0x91
 3323 04c3 6F       		.sleb128 -17
 3324 04c4 16       		.uleb128 0x16
 3325 04c5 10060000 		.4byte	.LASF52
 3326 04c9 01       		.byte	0x1
 3327 04ca 5701     		.2byte	0x157
ARM GAS  C:\Users\Perro\AppData\Local\Temp\ccDnyon7.s 			page 74


 3328 04cc AD000000 		.4byte	0xad
 3329 04d0 02       		.uleb128 0x2
 3330 04d1 91       		.byte	0x91
 3331 04d2 6E       		.sleb128 -18
 3332 04d3 16       		.uleb128 0x16
 3333 04d4 98030000 		.4byte	.LASF56
 3334 04d8 01       		.byte	0x1
 3335 04d9 5701     		.2byte	0x157
 3336 04db D8010000 		.4byte	0x1d8
 3337 04df 02       		.uleb128 0x2
 3338 04e0 91       		.byte	0x91
 3339 04e1 68       		.sleb128 -24
 3340 04e2 13       		.uleb128 0x13
 3341 04e3 3D070000 		.4byte	.LASF57
 3342 04e7 01       		.byte	0x1
 3343 04e8 5A01     		.2byte	0x15a
 3344 04ea B8000000 		.4byte	0xb8
 3345 04ee 02       		.uleb128 0x2
 3346 04ef 91       		.byte	0x91
 3347 04f0 76       		.sleb128 -10
 3348 04f1 00       		.byte	0
 3349 04f2 11       		.uleb128 0x11
 3350 04f3 76020000 		.4byte	.LASF58
 3351 04f7 01       		.byte	0x1
 3352 04f8 6601     		.2byte	0x166
 3353 04fa AD000000 		.4byte	0xad
 3354 04fe 00000000 		.4byte	.LFB84
 3355 0502 EA000000 		.4byte	.LFE84-.LFB84
 3356 0506 01       		.uleb128 0x1
 3357 0507 9C       		.byte	0x9c
 3358 0508 AD050000 		.4byte	0x5ad
 3359 050c 16       		.uleb128 0x16
 3360 050d FB020000 		.4byte	.LASF55
 3361 0511 01       		.byte	0x1
 3362 0512 6601     		.2byte	0x166
 3363 0514 AD000000 		.4byte	0xad
 3364 0518 02       		.uleb128 0x2
 3365 0519 91       		.byte	0x91
 3366 051a 5F       		.sleb128 -33
 3367 051b 16       		.uleb128 0x16
 3368 051c 10060000 		.4byte	.LASF52
 3369 0520 01       		.byte	0x1
 3370 0521 6601     		.2byte	0x166
 3371 0523 AD000000 		.4byte	0xad
 3372 0527 02       		.uleb128 0x2
 3373 0528 91       		.byte	0x91
 3374 0529 5E       		.sleb128 -34
 3375 052a 16       		.uleb128 0x16
 3376 052b 98030000 		.4byte	.LASF56
 3377 052f 01       		.byte	0x1
 3378 0530 6601     		.2byte	0x166
 3379 0532 AD050000 		.4byte	0x5ad
 3380 0536 02       		.uleb128 0x2
 3381 0537 91       		.byte	0x91
 3382 0538 58       		.sleb128 -40
 3383 0539 13       		.uleb128 0x13
 3384 053a 3D070000 		.4byte	.LASF57
ARM GAS  C:\Users\Perro\AppData\Local\Temp\ccDnyon7.s 			page 75


 3385 053e 01       		.byte	0x1
 3386 053f 6901     		.2byte	0x169
 3387 0541 B8000000 		.4byte	0xb8
 3388 0545 02       		.uleb128 0x2
 3389 0546 91       		.byte	0x91
 3390 0547 76       		.sleb128 -10
 3391 0548 13       		.uleb128 0x13
 3392 0549 78010000 		.4byte	.LASF31
 3393 054d 01       		.byte	0x1
 3394 054e 6A01     		.2byte	0x16a
 3395 0550 AD000000 		.4byte	0xad
 3396 0554 02       		.uleb128 0x2
 3397 0555 91       		.byte	0x91
 3398 0556 75       		.sleb128 -11
 3399 0557 13       		.uleb128 0x13
 3400 0558 D5070000 		.4byte	.LASF59
 3401 055c 01       		.byte	0x1
 3402 055d 6E01     		.2byte	0x16e
 3403 055f AD000000 		.4byte	0xad
 3404 0563 02       		.uleb128 0x2
 3405 0564 91       		.byte	0x91
 3406 0565 74       		.sleb128 -12
 3407 0566 14       		.uleb128 0x14
 3408 0567 2C000000 		.4byte	.LBB3
 3409 056b AE000000 		.4byte	.LBE3-.LBB3
 3410 056f 13       		.uleb128 0x13
 3411 0570 47050000 		.4byte	.LASF60
 3412 0574 01       		.byte	0x1
 3413 0575 7101     		.2byte	0x171
 3414 0577 B8000000 		.4byte	0xb8
 3415 057b 02       		.uleb128 0x2
 3416 057c 91       		.byte	0x91
 3417 057d 72       		.sleb128 -14
 3418 057e 13       		.uleb128 0x13
 3419 057f 32050000 		.4byte	.LASF30
 3420 0583 01       		.byte	0x1
 3421 0584 7501     		.2byte	0x175
 3422 0586 B3050000 		.4byte	0x5b3
 3423 058a 02       		.uleb128 0x2
 3424 058b 91       		.byte	0x91
 3425 058c 6C       		.sleb128 -20
 3426 058d 13       		.uleb128 0x13
 3427 058e D8040000 		.4byte	.LASF61
 3428 0592 01       		.byte	0x1
 3429 0593 7601     		.2byte	0x176
 3430 0595 C3050000 		.4byte	0x5c3
 3431 0599 02       		.uleb128 0x2
 3432 059a 91       		.byte	0x91
 3433 059b 68       		.sleb128 -24
 3434 059c 13       		.uleb128 0x13
 3435 059d 0F000000 		.4byte	.LASF62
 3436 05a1 01       		.byte	0x1
 3437 05a2 7701     		.2byte	0x177
 3438 05a4 CE000000 		.4byte	0xce
 3439 05a8 02       		.uleb128 0x2
 3440 05a9 91       		.byte	0x91
 3441 05aa 64       		.sleb128 -28
ARM GAS  C:\Users\Perro\AppData\Local\Temp\ccDnyon7.s 			page 76


 3442 05ab 00       		.byte	0
 3443 05ac 00       		.byte	0
 3444 05ad 05       		.uleb128 0x5
 3445 05ae 04       		.byte	0x4
 3446 05af CE000000 		.4byte	0xce
 3447 05b3 0A       		.uleb128 0xa
 3448 05b4 AD000000 		.4byte	0xad
 3449 05b8 C3050000 		.4byte	0x5c3
 3450 05bc 0B       		.uleb128 0xb
 3451 05bd F5000000 		.4byte	0xf5
 3452 05c1 03       		.byte	0x3
 3453 05c2 00       		.byte	0
 3454 05c3 0A       		.uleb128 0xa
 3455 05c4 AD000000 		.4byte	0xad
 3456 05c8 D3050000 		.4byte	0x5d3
 3457 05cc 0B       		.uleb128 0xb
 3458 05cd F5000000 		.4byte	0xf5
 3459 05d1 02       		.byte	0x2
 3460 05d2 00       		.byte	0
 3461 05d3 11       		.uleb128 0x11
 3462 05d4 AA050000 		.4byte	.LASF63
 3463 05d8 01       		.byte	0x1
 3464 05d9 A201     		.2byte	0x1a2
 3465 05db AD000000 		.4byte	0xad
 3466 05df 00000000 		.4byte	.LFB85
 3467 05e3 62010000 		.4byte	.LFE85-.LFB85
 3468 05e7 01       		.uleb128 0x1
 3469 05e8 9C       		.byte	0x9c
 3470 05e9 8C060000 		.4byte	0x68c
 3471 05ed 16       		.uleb128 0x16
 3472 05ee FB020000 		.4byte	.LASF55
 3473 05f2 01       		.byte	0x1
 3474 05f3 A201     		.2byte	0x1a2
 3475 05f5 AD000000 		.4byte	0xad
 3476 05f9 02       		.uleb128 0x2
 3477 05fa 91       		.byte	0x91
 3478 05fb 67       		.sleb128 -25
 3479 05fc 16       		.uleb128 0x16
 3480 05fd 10060000 		.4byte	.LASF52
 3481 0601 01       		.byte	0x1
 3482 0602 A201     		.2byte	0x1a2
 3483 0604 AD000000 		.4byte	0xad
 3484 0608 02       		.uleb128 0x2
 3485 0609 91       		.byte	0x91
 3486 060a 66       		.sleb128 -26
 3487 060b 16       		.uleb128 0x16
 3488 060c 98030000 		.4byte	.LASF56
 3489 0610 01       		.byte	0x1
 3490 0611 A201     		.2byte	0x1a2
 3491 0613 8C060000 		.4byte	0x68c
 3492 0617 02       		.uleb128 0x2
 3493 0618 91       		.byte	0x91
 3494 0619 60       		.sleb128 -32
 3495 061a 12       		.uleb128 0x12
 3496 061b 6A00     		.ascii	"j\000"
 3497 061d 01       		.byte	0x1
 3498 061e A201     		.2byte	0x1a2
ARM GAS  C:\Users\Perro\AppData\Local\Temp\ccDnyon7.s 			page 77


 3499 0620 94000000 		.4byte	0x94
 3500 0624 02       		.uleb128 0x2
 3501 0625 91       		.byte	0x91
 3502 0626 5C       		.sleb128 -36
 3503 0627 13       		.uleb128 0x13
 3504 0628 3D070000 		.4byte	.LASF57
 3505 062c 01       		.byte	0x1
 3506 062d A801     		.2byte	0x1a8
 3507 062f B8000000 		.4byte	0xb8
 3508 0633 02       		.uleb128 0x2
 3509 0634 91       		.byte	0x91
 3510 0635 76       		.sleb128 -10
 3511 0636 13       		.uleb128 0x13
 3512 0637 78010000 		.4byte	.LASF31
 3513 063b 01       		.byte	0x1
 3514 063c A901     		.2byte	0x1a9
 3515 063e AD000000 		.4byte	0xad
 3516 0642 02       		.uleb128 0x2
 3517 0643 91       		.byte	0x91
 3518 0644 75       		.sleb128 -11
 3519 0645 13       		.uleb128 0x13
 3520 0646 A7030000 		.4byte	.LASF64
 3521 064a 01       		.byte	0x1
 3522 064b AD01     		.2byte	0x1ad
 3523 064d AD000000 		.4byte	0xad
 3524 0651 02       		.uleb128 0x2
 3525 0652 91       		.byte	0x91
 3526 0653 71       		.sleb128 -15
 3527 0654 14       		.uleb128 0x14
 3528 0655 60000000 		.4byte	.LBB4
 3529 0659 EE000000 		.4byte	.LBE4-.LBB4
 3530 065d 13       		.uleb128 0x13
 3531 065e 47050000 		.4byte	.LASF60
 3532 0662 01       		.byte	0x1
 3533 0663 BA01     		.2byte	0x1ba
 3534 0665 B8000000 		.4byte	0xb8
 3535 0669 02       		.uleb128 0x2
 3536 066a 91       		.byte	0x91
 3537 066b 72       		.sleb128 -14
 3538 066c 13       		.uleb128 0x13
 3539 066d 32050000 		.4byte	.LASF30
 3540 0671 01       		.byte	0x1
 3541 0672 C101     		.2byte	0x1c1
 3542 0674 B3050000 		.4byte	0x5b3
 3543 0678 02       		.uleb128 0x2
 3544 0679 91       		.byte	0x91
 3545 067a 6C       		.sleb128 -20
 3546 067b 13       		.uleb128 0x13
 3547 067c 0F000000 		.4byte	.LASF62
 3548 0680 01       		.byte	0x1
 3549 0681 C201     		.2byte	0x1c2
 3550 0683 CE000000 		.4byte	0xce
 3551 0687 02       		.uleb128 0x2
 3552 0688 91       		.byte	0x91
 3553 0689 68       		.sleb128 -24
 3554 068a 00       		.byte	0
 3555 068b 00       		.byte	0
ARM GAS  C:\Users\Perro\AppData\Local\Temp\ccDnyon7.s 			page 78


 3556 068c 05       		.uleb128 0x5
 3557 068d 04       		.byte	0x4
 3558 068e 5F010000 		.4byte	0x15f
 3559 0692 11       		.uleb128 0x11
 3560 0693 18050000 		.4byte	.LASF65
 3561 0697 01       		.byte	0x1
 3562 0698 F501     		.2byte	0x1f5
 3563 069a AD000000 		.4byte	0xad
 3564 069e 00000000 		.4byte	.LFB86
 3565 06a2 20000000 		.4byte	.LFE86-.LFB86
 3566 06a6 01       		.uleb128 0x1
 3567 06a7 9C       		.byte	0x9c
 3568 06a8 BC060000 		.4byte	0x6bc
 3569 06ac 16       		.uleb128 0x16
 3570 06ad E2030000 		.4byte	.LASF66
 3571 06b1 01       		.byte	0x1
 3572 06b2 F501     		.2byte	0x1f5
 3573 06b4 AD000000 		.4byte	0xad
 3574 06b8 02       		.uleb128 0x2
 3575 06b9 91       		.byte	0x91
 3576 06ba 77       		.sleb128 -9
 3577 06bb 00       		.byte	0
 3578 06bc 10       		.uleb128 0x10
 3579 06bd F8030000 		.4byte	.LASF67
 3580 06c1 01       		.byte	0x1
 3581 06c2 FB01     		.2byte	0x1fb
 3582 06c4 AD000000 		.4byte	0xad
 3583 06c8 00000000 		.4byte	.LFB87
 3584 06cc 14000000 		.4byte	.LFE87-.LFB87
 3585 06d0 01       		.uleb128 0x1
 3586 06d1 9C       		.byte	0x9c
 3587 06d2 10       		.uleb128 0x10
 3588 06d3 57030000 		.4byte	.LASF68
 3589 06d7 01       		.byte	0x1
 3590 06d8 0102     		.2byte	0x201
 3591 06da AD000000 		.4byte	0xad
 3592 06de 00000000 		.4byte	.LFB88
 3593 06e2 14000000 		.4byte	.LFE88-.LFB88
 3594 06e6 01       		.uleb128 0x1
 3595 06e7 9C       		.byte	0x9c
 3596 06e8 11       		.uleb128 0x11
 3597 06e9 27000000 		.4byte	.LASF69
 3598 06ed 01       		.byte	0x1
 3599 06ee 0702     		.2byte	0x207
 3600 06f0 AD000000 		.4byte	0xad
 3601 06f4 00000000 		.4byte	.LFB89
 3602 06f8 26000000 		.4byte	.LFE89-.LFB89
 3603 06fc 01       		.uleb128 0x1
 3604 06fd 9C       		.byte	0x9c
 3605 06fe 12070000 		.4byte	0x712
 3606 0702 16       		.uleb128 0x16
 3607 0703 E2030000 		.4byte	.LASF66
 3608 0707 01       		.byte	0x1
 3609 0708 0702     		.2byte	0x207
 3610 070a AD000000 		.4byte	0xad
 3611 070e 02       		.uleb128 0x2
 3612 070f 91       		.byte	0x91
ARM GAS  C:\Users\Perro\AppData\Local\Temp\ccDnyon7.s 			page 79


 3613 0710 77       		.sleb128 -9
 3614 0711 00       		.byte	0
 3615 0712 10       		.uleb128 0x10
 3616 0713 2B070000 		.4byte	.LASF70
 3617 0717 01       		.byte	0x1
 3618 0718 1102     		.2byte	0x211
 3619 071a AD000000 		.4byte	0xad
 3620 071e 00000000 		.4byte	.LFB90
 3621 0722 14000000 		.4byte	.LFE90-.LFB90
 3622 0726 01       		.uleb128 0x1
 3623 0727 9C       		.byte	0x9c
 3624 0728 10       		.uleb128 0x10
 3625 0729 00060000 		.4byte	.LASF71
 3626 072d 01       		.byte	0x1
 3627 072e 1702     		.2byte	0x217
 3628 0730 AD000000 		.4byte	0xad
 3629 0734 00000000 		.4byte	.LFB91
 3630 0738 14000000 		.4byte	.LFE91-.LFB91
 3631 073c 01       		.uleb128 0x1
 3632 073d 9C       		.byte	0x9c
 3633 073e 10       		.uleb128 0x10
 3634 073f 00000000 		.4byte	.LASF72
 3635 0743 01       		.byte	0x1
 3636 0744 1D02     		.2byte	0x21d
 3637 0746 AD000000 		.4byte	0xad
 3638 074a 00000000 		.4byte	.LFB92
 3639 074e 14000000 		.4byte	.LFE92-.LFB92
 3640 0752 01       		.uleb128 0x1
 3641 0753 9C       		.byte	0x9c
 3642 0754 11       		.uleb128 0x11
 3643 0755 C6030000 		.4byte	.LASF73
 3644 0759 01       		.byte	0x1
 3645 075a 2302     		.2byte	0x223
 3646 075c AD000000 		.4byte	0xad
 3647 0760 00000000 		.4byte	.LFB93
 3648 0764 20000000 		.4byte	.LFE93-.LFB93
 3649 0768 01       		.uleb128 0x1
 3650 0769 9C       		.byte	0x9c
 3651 076a 7E070000 		.4byte	0x77e
 3652 076e 16       		.uleb128 0x16
 3653 076f 7E010000 		.4byte	.LASF74
 3654 0773 01       		.byte	0x1
 3655 0774 2302     		.2byte	0x223
 3656 0776 AD000000 		.4byte	0xad
 3657 077a 02       		.uleb128 0x2
 3658 077b 91       		.byte	0x91
 3659 077c 77       		.sleb128 -9
 3660 077d 00       		.byte	0
 3661 077e 11       		.uleb128 0x11
 3662 077f 2A040000 		.4byte	.LASF75
 3663 0783 01       		.byte	0x1
 3664 0784 2C02     		.2byte	0x22c
 3665 0786 AD000000 		.4byte	0xad
 3666 078a 00000000 		.4byte	.LFB94
 3667 078e 20000000 		.4byte	.LFE94-.LFB94
 3668 0792 01       		.uleb128 0x1
 3669 0793 9C       		.byte	0x9c
ARM GAS  C:\Users\Perro\AppData\Local\Temp\ccDnyon7.s 			page 80


 3670 0794 A8070000 		.4byte	0x7a8
 3671 0798 16       		.uleb128 0x16
 3672 0799 A1040000 		.4byte	.LASF76
 3673 079d 01       		.byte	0x1
 3674 079e 2C02     		.2byte	0x22c
 3675 07a0 AD000000 		.4byte	0xad
 3676 07a4 02       		.uleb128 0x2
 3677 07a5 91       		.byte	0x91
 3678 07a6 77       		.sleb128 -9
 3679 07a7 00       		.byte	0
 3680 07a8 11       		.uleb128 0x11
 3681 07a9 E0020000 		.4byte	.LASF77
 3682 07ad 01       		.byte	0x1
 3683 07ae 3202     		.2byte	0x232
 3684 07b0 AD000000 		.4byte	0xad
 3685 07b4 00000000 		.4byte	.LFB95
 3686 07b8 20000000 		.4byte	.LFE95-.LFB95
 3687 07bc 01       		.uleb128 0x1
 3688 07bd 9C       		.byte	0x9c
 3689 07be D1070000 		.4byte	0x7d1
 3690 07c2 12       		.uleb128 0x12
 3691 07c3 737200   		.ascii	"sr\000"
 3692 07c6 01       		.byte	0x1
 3693 07c7 3202     		.2byte	0x232
 3694 07c9 AD000000 		.4byte	0xad
 3695 07cd 02       		.uleb128 0x2
 3696 07ce 91       		.byte	0x91
 3697 07cf 77       		.sleb128 -9
 3698 07d0 00       		.byte	0
 3699 07d1 11       		.uleb128 0x11
 3700 07d2 5D010000 		.4byte	.LASF78
 3701 07d6 01       		.byte	0x1
 3702 07d7 3802     		.2byte	0x238
 3703 07d9 AD000000 		.4byte	0xad
 3704 07dd 00000000 		.4byte	.LFB96
 3705 07e1 20000000 		.4byte	.LFE96-.LFB96
 3706 07e5 01       		.uleb128 0x1
 3707 07e6 9C       		.byte	0x9c
 3708 07e7 FA070000 		.4byte	0x7fa
 3709 07eb 12       		.uleb128 0x12
 3710 07ec 707700   		.ascii	"pw\000"
 3711 07ef 01       		.byte	0x1
 3712 07f0 3802     		.2byte	0x238
 3713 07f2 AD000000 		.4byte	0xad
 3714 07f6 02       		.uleb128 0x2
 3715 07f7 91       		.byte	0x91
 3716 07f8 77       		.sleb128 -9
 3717 07f9 00       		.byte	0
 3718 07fa 11       		.uleb128 0x11
 3719 07fb 6C060000 		.4byte	.LASF79
 3720 07ff 01       		.byte	0x1
 3721 0800 3E02     		.2byte	0x23e
 3722 0802 AD000000 		.4byte	0xad
 3723 0806 00000000 		.4byte	.LFB97
 3724 080a 64000000 		.4byte	.LFE97-.LFB97
 3725 080e 01       		.uleb128 0x1
 3726 080f 9C       		.byte	0x9c
ARM GAS  C:\Users\Perro\AppData\Local\Temp\ccDnyon7.s 			page 81


 3727 0810 50080000 		.4byte	0x850
 3728 0814 16       		.uleb128 0x16
 3729 0815 BA030000 		.4byte	.LASF80
 3730 0819 01       		.byte	0x1
 3731 081a 3E02     		.2byte	0x23e
 3732 081c AD000000 		.4byte	0xad
 3733 0820 02       		.uleb128 0x2
 3734 0821 91       		.byte	0x91
 3735 0822 6F       		.sleb128 -17
 3736 0823 12       		.uleb128 0x12
 3737 0824 706100   		.ascii	"pa\000"
 3738 0827 01       		.byte	0x1
 3739 0828 3E02     		.2byte	0x23e
 3740 082a AD000000 		.4byte	0xad
 3741 082e 02       		.uleb128 0x2
 3742 082f 91       		.byte	0x91
 3743 0830 6E       		.sleb128 -18
 3744 0831 13       		.uleb128 0x13
 3745 0832 78010000 		.4byte	.LASF31
 3746 0836 01       		.byte	0x1
 3747 0837 4102     		.2byte	0x241
 3748 0839 AD000000 		.4byte	0xad
 3749 083d 02       		.uleb128 0x2
 3750 083e 91       		.byte	0x91
 3751 083f 77       		.sleb128 -9
 3752 0840 13       		.uleb128 0x13
 3753 0841 44020000 		.4byte	.LASF81
 3754 0845 01       		.byte	0x1
 3755 0846 4202     		.2byte	0x242
 3756 0848 AD000000 		.4byte	0xad
 3757 084c 02       		.uleb128 0x2
 3758 084d 91       		.byte	0x91
 3759 084e 76       		.sleb128 -10
 3760 084f 00       		.byte	0
 3761 0850 11       		.uleb128 0x11
 3762 0851 07030000 		.4byte	.LASF82
 3763 0855 01       		.byte	0x1
 3764 0856 5702     		.2byte	0x257
 3765 0858 AD000000 		.4byte	0xad
 3766 085c 00000000 		.4byte	.LFB98
 3767 0860 82000000 		.4byte	.LFE98-.LFB98
 3768 0864 01       		.uleb128 0x1
 3769 0865 9C       		.byte	0x9c
 3770 0866 89080000 		.4byte	0x889
 3771 086a 16       		.uleb128 0x16
 3772 086b 4E000000 		.4byte	.LASF83
 3773 086f 01       		.byte	0x1
 3774 0870 5702     		.2byte	0x257
 3775 0872 AD000000 		.4byte	0xad
 3776 0876 02       		.uleb128 0x2
 3777 0877 91       		.byte	0x91
 3778 0878 77       		.sleb128 -9
 3779 0879 12       		.uleb128 0x12
 3780 087a 6C656400 		.ascii	"led\000"
 3781 087e 01       		.byte	0x1
 3782 087f 5702     		.2byte	0x257
 3783 0881 AD000000 		.4byte	0xad
ARM GAS  C:\Users\Perro\AppData\Local\Temp\ccDnyon7.s 			page 82


 3784 0885 02       		.uleb128 0x2
 3785 0886 91       		.byte	0x91
 3786 0887 76       		.sleb128 -10
 3787 0888 00       		.byte	0
 3788 0889 11       		.uleb128 0x11
 3789 088a A4020000 		.4byte	.LASF84
 3790 088e 01       		.byte	0x1
 3791 088f 6E02     		.2byte	0x26e
 3792 0891 AD000000 		.4byte	0xad
 3793 0895 00000000 		.4byte	.LFB99
 3794 0899 2E000000 		.4byte	.LFE99-.LFB99
 3795 089d 01       		.uleb128 0x1
 3796 089e 9C       		.byte	0x9c
 3797 089f B3080000 		.4byte	0x8b3
 3798 08a3 13       		.uleb128 0x13
 3799 08a4 78010000 		.4byte	.LASF31
 3800 08a8 01       		.byte	0x1
 3801 08a9 7002     		.2byte	0x270
 3802 08ab AD000000 		.4byte	0xad
 3803 08af 02       		.uleb128 0x2
 3804 08b0 91       		.byte	0x91
 3805 08b1 77       		.sleb128 -9
 3806 08b2 00       		.byte	0
 3807 08b3 11       		.uleb128 0x11
 3808 08b4 8B020000 		.4byte	.LASF85
 3809 08b8 01       		.byte	0x1
 3810 08b9 7C02     		.2byte	0x27c
 3811 08bb AD000000 		.4byte	0xad
 3812 08bf 00000000 		.4byte	.LFB100
 3813 08c3 8C000000 		.4byte	.LFE100-.LFB100
 3814 08c7 01       		.uleb128 0x1
 3815 08c8 9C       		.byte	0x9c
 3816 08c9 0A090000 		.4byte	0x90a
 3817 08cd 16       		.uleb128 0x16
 3818 08ce 42000000 		.4byte	.LASF86
 3819 08d2 01       		.byte	0x1
 3820 08d3 7C02     		.2byte	0x27c
 3821 08d5 0A090000 		.4byte	0x90a
 3822 08d9 02       		.uleb128 0x2
 3823 08da 91       		.byte	0x91
 3824 08db 64       		.sleb128 -28
 3825 08dc 13       		.uleb128 0x13
 3826 08dd 73000000 		.4byte	.LASF87
 3827 08e1 01       		.byte	0x1
 3828 08e2 7E02     		.2byte	0x27e
 3829 08e4 AD000000 		.4byte	0xad
 3830 08e8 02       		.uleb128 0x2
 3831 08e9 91       		.byte	0x91
 3832 08ea 6E       		.sleb128 -18
 3833 08eb 13       		.uleb128 0x13
 3834 08ec 8D000000 		.4byte	.LASF88
 3835 08f0 01       		.byte	0x1
 3836 08f1 7E02     		.2byte	0x27e
 3837 08f3 AD000000 		.4byte	0xad
 3838 08f7 02       		.uleb128 0x2
 3839 08f8 91       		.byte	0x91
 3840 08f9 6D       		.sleb128 -19
ARM GAS  C:\Users\Perro\AppData\Local\Temp\ccDnyon7.s 			page 83


 3841 08fa 13       		.uleb128 0x13
 3842 08fb 78010000 		.4byte	.LASF31
 3843 08ff 01       		.byte	0x1
 3844 0900 7F02     		.2byte	0x27f
 3845 0902 AD000000 		.4byte	0xad
 3846 0906 02       		.uleb128 0x2
 3847 0907 91       		.byte	0x91
 3848 0908 6F       		.sleb128 -17
 3849 0909 00       		.byte	0
 3850 090a 05       		.uleb128 0x5
 3851 090b 04       		.byte	0x4
 3852 090c D9000000 		.4byte	0xd9
 3853 0910 11       		.uleb128 0x11
 3854 0911 1B030000 		.4byte	.LASF89
 3855 0915 01       		.byte	0x1
 3856 0916 8C02     		.2byte	0x28c
 3857 0918 AD000000 		.4byte	0xad
 3858 091c 00000000 		.4byte	.LFB101
 3859 0920 3E000000 		.4byte	.LFE101-.LFB101
 3860 0924 01       		.uleb128 0x1
 3861 0925 9C       		.byte	0x9c
 3862 0926 67090000 		.4byte	0x967
 3863 092a 16       		.uleb128 0x16
 3864 092b 73000000 		.4byte	.LASF87
 3865 092f 01       		.byte	0x1
 3866 0930 8C02     		.2byte	0x28c
 3867 0932 67090000 		.4byte	0x967
 3868 0936 02       		.uleb128 0x2
 3869 0937 91       		.byte	0x91
 3870 0938 6C       		.sleb128 -20
 3871 0939 16       		.uleb128 0x16
 3872 093a 8D000000 		.4byte	.LASF88
 3873 093e 01       		.byte	0x1
 3874 093f 8C02     		.2byte	0x28c
 3875 0941 D8010000 		.4byte	0x1d8
 3876 0945 02       		.uleb128 0x2
 3877 0946 91       		.byte	0x91
 3878 0947 68       		.sleb128 -24
 3879 0948 13       		.uleb128 0x13
 3880 0949 32050000 		.4byte	.LASF30
 3881 094d 01       		.byte	0x1
 3882 094e 8E02     		.2byte	0x28e
 3883 0950 AD000000 		.4byte	0xad
 3884 0954 02       		.uleb128 0x2
 3885 0955 91       		.byte	0x91
 3886 0956 76       		.sleb128 -10
 3887 0957 13       		.uleb128 0x13
 3888 0958 78010000 		.4byte	.LASF31
 3889 095c 01       		.byte	0x1
 3890 095d 8F02     		.2byte	0x28f
 3891 095f AD000000 		.4byte	0xad
 3892 0963 02       		.uleb128 0x2
 3893 0964 91       		.byte	0x91
 3894 0965 77       		.sleb128 -9
 3895 0966 00       		.byte	0
 3896 0967 05       		.uleb128 0x5
 3897 0968 04       		.byte	0x4
ARM GAS  C:\Users\Perro\AppData\Local\Temp\ccDnyon7.s 			page 84


 3898 0969 A2000000 		.4byte	0xa2
 3899 096d 10       		.uleb128 0x10
 3900 096e 86050000 		.4byte	.LASF90
 3901 0972 01       		.byte	0x1
 3902 0973 9902     		.2byte	0x299
 3903 0975 AD000000 		.4byte	0xad
 3904 0979 00000000 		.4byte	.LFB102
 3905 097d 12000000 		.4byte	.LFE102-.LFB102
 3906 0981 01       		.uleb128 0x1
 3907 0982 9C       		.byte	0x9c
 3908 0983 11       		.uleb128 0x11
 3909 0984 43040000 		.4byte	.LASF91
 3910 0988 01       		.byte	0x1
 3911 0989 A202     		.2byte	0x2a2
 3912 098b AD000000 		.4byte	0xad
 3913 098f 00000000 		.4byte	.LFB103
 3914 0993 1A000000 		.4byte	.LFE103-.LFB103
 3915 0997 01       		.uleb128 0x1
 3916 0998 9C       		.byte	0x9c
 3917 0999 AD090000 		.4byte	0x9ad
 3918 099d 16       		.uleb128 0x16
 3919 099e 7E040000 		.4byte	.LASF92
 3920 09a2 01       		.byte	0x1
 3921 09a3 A202     		.2byte	0x2a2
 3922 09a5 D8010000 		.4byte	0x1d8
 3923 09a9 02       		.uleb128 0x2
 3924 09aa 91       		.byte	0x91
 3925 09ab 74       		.sleb128 -12
 3926 09ac 00       		.byte	0
 3927 09ad 11       		.uleb128 0x11
 3928 09ae 5E020000 		.4byte	.LASF93
 3929 09b2 01       		.byte	0x1
 3930 09b3 A902     		.2byte	0x2a9
 3931 09b5 AD000000 		.4byte	0xad
 3932 09b9 00000000 		.4byte	.LFB104
 3933 09bd 1A000000 		.4byte	.LFE104-.LFB104
 3934 09c1 01       		.uleb128 0x1
 3935 09c2 9C       		.byte	0x9c
 3936 09c3 D7090000 		.4byte	0x9d7
 3937 09c7 16       		.uleb128 0x16
 3938 09c8 D3010000 		.4byte	.LASF94
 3939 09cc 01       		.byte	0x1
 3940 09cd A902     		.2byte	0x2a9
 3941 09cf D8010000 		.4byte	0x1d8
 3942 09d3 02       		.uleb128 0x2
 3943 09d4 91       		.byte	0x91
 3944 09d5 74       		.sleb128 -12
 3945 09d6 00       		.byte	0
 3946 09d7 11       		.uleb128 0x11
 3947 09d8 14040000 		.4byte	.LASF95
 3948 09dc 01       		.byte	0x1
 3949 09dd B202     		.2byte	0x2b2
 3950 09df AD000000 		.4byte	0xad
 3951 09e3 00000000 		.4byte	.LFB105
 3952 09e7 3A000000 		.4byte	.LFE105-.LFB105
 3953 09eb 01       		.uleb128 0x1
 3954 09ec 9C       		.byte	0x9c
ARM GAS  C:\Users\Perro\AppData\Local\Temp\ccDnyon7.s 			page 85


 3955 09ed 2E0A0000 		.4byte	0xa2e
 3956 09f1 16       		.uleb128 0x16
 3957 09f2 F9040000 		.4byte	.LASF96
 3958 09f6 01       		.byte	0x1
 3959 09f7 B202     		.2byte	0x2b2
 3960 09f9 AD000000 		.4byte	0xad
 3961 09fd 02       		.uleb128 0x2
 3962 09fe 91       		.byte	0x91
 3963 09ff 6F       		.sleb128 -17
 3964 0a00 16       		.uleb128 0x16
 3965 0a01 D7050000 		.4byte	.LASF97
 3966 0a05 01       		.byte	0x1
 3967 0a06 B202     		.2byte	0x2b2
 3968 0a08 D8010000 		.4byte	0x1d8
 3969 0a0c 02       		.uleb128 0x2
 3970 0a0d 91       		.byte	0x91
 3971 0a0e 68       		.sleb128 -24
 3972 0a0f 13       		.uleb128 0x13
 3973 0a10 78010000 		.4byte	.LASF31
 3974 0a14 01       		.byte	0x1
 3975 0a15 B402     		.2byte	0x2b4
 3976 0a17 AD000000 		.4byte	0xad
 3977 0a1b 02       		.uleb128 0x2
 3978 0a1c 91       		.byte	0x91
 3979 0a1d 77       		.sleb128 -9
 3980 0a1e 13       		.uleb128 0x13
 3981 0a1f 44020000 		.4byte	.LASF81
 3982 0a23 01       		.byte	0x1
 3983 0a24 B502     		.2byte	0x2b5
 3984 0a26 AD000000 		.4byte	0xad
 3985 0a2a 02       		.uleb128 0x2
 3986 0a2b 91       		.byte	0x91
 3987 0a2c 76       		.sleb128 -10
 3988 0a2d 00       		.byte	0
 3989 0a2e 11       		.uleb128 0x11
 3990 0a2f B9000000 		.4byte	.LASF98
 3991 0a33 01       		.byte	0x1
 3992 0a34 C202     		.2byte	0x2c2
 3993 0a36 AD000000 		.4byte	0xad
 3994 0a3a 00000000 		.4byte	.LFB106
 3995 0a3e 68000000 		.4byte	.LFE106-.LFB106
 3996 0a42 01       		.uleb128 0x1
 3997 0a43 9C       		.byte	0x9c
 3998 0a44 8D0A0000 		.4byte	0xa8d
 3999 0a48 16       		.uleb128 0x16
 4000 0a49 BA020000 		.4byte	.LASF99
 4001 0a4d 01       		.byte	0x1
 4002 0a4e C202     		.2byte	0x2c2
 4003 0a50 980A0000 		.4byte	0xa98
 4004 0a54 02       		.uleb128 0x2
 4005 0a55 91       		.byte	0x91
 4006 0a56 54       		.sleb128 -44
 4007 0a57 13       		.uleb128 0x13
 4008 0a58 8F030000 		.4byte	.LASF100
 4009 0a5c 01       		.byte	0x1
 4010 0a5d C402     		.2byte	0x2c4
 4011 0a5f 9E0A0000 		.4byte	0xa9e
ARM GAS  C:\Users\Perro\AppData\Local\Temp\ccDnyon7.s 			page 86


 4012 0a63 02       		.uleb128 0x2
 4013 0a64 91       		.byte	0x91
 4014 0a65 58       		.sleb128 -40
 4015 0a66 13       		.uleb128 0x13
 4016 0a67 78010000 		.4byte	.LASF31
 4017 0a6b 01       		.byte	0x1
 4018 0a6c DA02     		.2byte	0x2da
 4019 0a6e AD000000 		.4byte	0xad
 4020 0a72 02       		.uleb128 0x2
 4021 0a73 91       		.byte	0x91
 4022 0a74 6F       		.sleb128 -17
 4023 0a75 14       		.uleb128 0x14
 4024 0a76 26000000 		.4byte	.LBB5
 4025 0a7a 34000000 		.4byte	.LBE5-.LBB5
 4026 0a7e 17       		.uleb128 0x17
 4027 0a7f 6900     		.ascii	"i\000"
 4028 0a81 01       		.byte	0x1
 4029 0a82 DB02     		.2byte	0x2db
 4030 0a84 AD000000 		.4byte	0xad
 4031 0a88 02       		.uleb128 0x2
 4032 0a89 91       		.byte	0x91
 4033 0a8a 6E       		.sleb128 -18
 4034 0a8b 00       		.byte	0
 4035 0a8c 00       		.byte	0
 4036 0a8d 18       		.uleb128 0x18
 4037 0a8e 980A0000 		.4byte	0xa98
 4038 0a92 19       		.uleb128 0x19
 4039 0a93 FC000000 		.4byte	0xfc
 4040 0a97 00       		.byte	0
 4041 0a98 05       		.uleb128 0x5
 4042 0a99 04       		.byte	0x4
 4043 0a9a 8D0A0000 		.4byte	0xa8d
 4044 0a9e 0A       		.uleb128 0xa
 4045 0a9f AD000000 		.4byte	0xad
 4046 0aa3 AE0A0000 		.4byte	0xaae
 4047 0aa7 0B       		.uleb128 0xb
 4048 0aa8 F5000000 		.4byte	0xf5
 4049 0aac 15       		.byte	0x15
 4050 0aad 00       		.byte	0
 4051 0aae 11       		.uleb128 0x11
 4052 0aaf 9D010000 		.4byte	.LASF101
 4053 0ab3 01       		.byte	0x1
 4054 0ab4 E402     		.2byte	0x2e4
 4055 0ab6 AD000000 		.4byte	0xad
 4056 0aba 00000000 		.4byte	.LFB107
 4057 0abe 4C000000 		.4byte	.LFE107-.LFB107
 4058 0ac2 01       		.uleb128 0x1
 4059 0ac3 9C       		.byte	0x9c
 4060 0ac4 1E0B0000 		.4byte	0xb1e
 4061 0ac8 16       		.uleb128 0x16
 4062 0ac9 BA020000 		.4byte	.LASF99
 4063 0acd 01       		.byte	0x1
 4064 0ace E402     		.2byte	0x2e4
 4065 0ad0 980A0000 		.4byte	0xa98
 4066 0ad4 02       		.uleb128 0x2
 4067 0ad5 91       		.byte	0x91
 4068 0ad6 5C       		.sleb128 -36
ARM GAS  C:\Users\Perro\AppData\Local\Temp\ccDnyon7.s 			page 87


 4069 0ad7 16       		.uleb128 0x16
 4070 0ad8 F9040000 		.4byte	.LASF96
 4071 0adc 01       		.byte	0x1
 4072 0add E402     		.2byte	0x2e4
 4073 0adf AD000000 		.4byte	0xad
 4074 0ae3 02       		.uleb128 0x2
 4075 0ae4 91       		.byte	0x91
 4076 0ae5 5B       		.sleb128 -37
 4077 0ae6 13       		.uleb128 0x13
 4078 0ae7 58020000 		.4byte	.LASF102
 4079 0aeb 01       		.byte	0x1
 4080 0aec E602     		.2byte	0x2e6
 4081 0aee AD000000 		.4byte	0xad
 4082 0af2 02       		.uleb128 0x2
 4083 0af3 91       		.byte	0x91
 4084 0af4 76       		.sleb128 -10
 4085 0af5 13       		.uleb128 0x13
 4086 0af6 78010000 		.4byte	.LASF31
 4087 0afa 01       		.byte	0x1
 4088 0afb E702     		.2byte	0x2e7
 4089 0afd AD000000 		.4byte	0xad
 4090 0b01 02       		.uleb128 0x2
 4091 0b02 91       		.byte	0x91
 4092 0b03 77       		.sleb128 -9
 4093 0b04 14       		.uleb128 0x14
 4094 0b05 24000000 		.4byte	.LBB6
 4095 0b09 18000000 		.4byte	.LBE6-.LBB6
 4096 0b0d 17       		.uleb128 0x17
 4097 0b0e 6D736700 		.ascii	"msg\000"
 4098 0b12 01       		.byte	0x1
 4099 0b13 EA02     		.2byte	0x2ea
 4100 0b15 1E0B0000 		.4byte	0xb1e
 4101 0b19 02       		.uleb128 0x2
 4102 0b1a 91       		.byte	0x91
 4103 0b1b 60       		.sleb128 -32
 4104 0b1c 00       		.byte	0
 4105 0b1d 00       		.byte	0
 4106 0b1e 0A       		.uleb128 0xa
 4107 0b1f E7000000 		.4byte	0xe7
 4108 0b23 2E0B0000 		.4byte	0xb2e
 4109 0b27 0B       		.uleb128 0xb
 4110 0b28 F5000000 		.4byte	0xf5
 4111 0b2c 13       		.byte	0x13
 4112 0b2d 00       		.byte	0
 4113 0b2e 1A       		.uleb128 0x1a
 4114 0b2f E9050000 		.4byte	.LASF103
 4115 0b33 01       		.byte	0x1
 4116 0b34 F202     		.2byte	0x2f2
 4117 0b36 AD000000 		.4byte	0xad
 4118 0b3a 00000000 		.4byte	.LFB108
 4119 0b3e 34000000 		.4byte	.LFE108-.LFB108
 4120 0b42 01       		.uleb128 0x1
 4121 0b43 9C       		.byte	0x9c
 4122 0b44 760B0000 		.4byte	0xb76
 4123 0b48 16       		.uleb128 0x16
 4124 0b49 F9040000 		.4byte	.LASF96
 4125 0b4d 01       		.byte	0x1
ARM GAS  C:\Users\Perro\AppData\Local\Temp\ccDnyon7.s 			page 88


 4126 0b4e F202     		.2byte	0x2f2
 4127 0b50 AD000000 		.4byte	0xad
 4128 0b54 02       		.uleb128 0x2
 4129 0b55 91       		.byte	0x91
 4130 0b56 6F       		.sleb128 -17
 4131 0b57 16       		.uleb128 0x16
 4132 0b58 44020000 		.4byte	.LASF81
 4133 0b5c 01       		.byte	0x1
 4134 0b5d F202     		.2byte	0x2f2
 4135 0b5f AD000000 		.4byte	0xad
 4136 0b63 02       		.uleb128 0x2
 4137 0b64 91       		.byte	0x91
 4138 0b65 6E       		.sleb128 -18
 4139 0b66 13       		.uleb128 0x13
 4140 0b67 78010000 		.4byte	.LASF31
 4141 0b6b 01       		.byte	0x1
 4142 0b6c F402     		.2byte	0x2f4
 4143 0b6e AD000000 		.4byte	0xad
 4144 0b72 02       		.uleb128 0x2
 4145 0b73 91       		.byte	0x91
 4146 0b74 77       		.sleb128 -9
 4147 0b75 00       		.byte	0
 4148 0b76 1A       		.uleb128 0x1a
 4149 0b77 AD060000 		.4byte	.LASF104
 4150 0b7b 01       		.byte	0x1
 4151 0b7c FD02     		.2byte	0x2fd
 4152 0b7e AD000000 		.4byte	0xad
 4153 0b82 00000000 		.4byte	.LFB109
 4154 0b86 54000000 		.4byte	.LFE109-.LFB109
 4155 0b8a 01       		.uleb128 0x1
 4156 0b8b 9C       		.byte	0x9c
 4157 0b8c DC0B0000 		.4byte	0xbdc
 4158 0b90 16       		.uleb128 0x16
 4159 0b91 F9040000 		.4byte	.LASF96
 4160 0b95 01       		.byte	0x1
 4161 0b96 FD02     		.2byte	0x2fd
 4162 0b98 AD000000 		.4byte	0xad
 4163 0b9c 02       		.uleb128 0x2
 4164 0b9d 91       		.byte	0x91
 4165 0b9e 6F       		.sleb128 -17
 4166 0b9f 16       		.uleb128 0x16
 4167 0ba0 A7040000 		.4byte	.LASF105
 4168 0ba4 01       		.byte	0x1
 4169 0ba5 FD02     		.2byte	0x2fd
 4170 0ba7 AD000000 		.4byte	0xad
 4171 0bab 02       		.uleb128 0x2
 4172 0bac 91       		.byte	0x91
 4173 0bad 6E       		.sleb128 -18
 4174 0bae 16       		.uleb128 0x16
 4175 0baf 51030000 		.4byte	.LASF106
 4176 0bb3 01       		.byte	0x1
 4177 0bb4 FD02     		.2byte	0x2fd
 4178 0bb6 AD000000 		.4byte	0xad
 4179 0bba 02       		.uleb128 0x2
 4180 0bbb 91       		.byte	0x91
 4181 0bbc 6D       		.sleb128 -19
 4182 0bbd 13       		.uleb128 0x13
ARM GAS  C:\Users\Perro\AppData\Local\Temp\ccDnyon7.s 			page 89


 4183 0bbe 44020000 		.4byte	.LASF81
 4184 0bc2 01       		.byte	0x1
 4185 0bc3 FF02     		.2byte	0x2ff
 4186 0bc5 AD000000 		.4byte	0xad
 4187 0bc9 02       		.uleb128 0x2
 4188 0bca 91       		.byte	0x91
 4189 0bcb 76       		.sleb128 -10
 4190 0bcc 13       		.uleb128 0x13
 4191 0bcd 78010000 		.4byte	.LASF31
 4192 0bd1 01       		.byte	0x1
 4193 0bd2 0003     		.2byte	0x300
 4194 0bd4 AD000000 		.4byte	0xad
 4195 0bd8 02       		.uleb128 0x2
 4196 0bd9 91       		.byte	0x91
 4197 0bda 77       		.sleb128 -9
 4198 0bdb 00       		.byte	0
 4199 0bdc 1B       		.uleb128 0x1b
 4200 0bdd D7030000 		.4byte	.LASF107
 4201 0be1 01       		.byte	0x1
 4202 0be2 0A03     		.2byte	0x30a
 4203 0be4 CE000000 		.4byte	0xce
 4204 0be8 00000000 		.4byte	.LFB110
 4205 0bec 20000000 		.4byte	.LFE110-.LFB110
 4206 0bf0 01       		.uleb128 0x1
 4207 0bf1 9C       		.byte	0x9c
 4208 0bf2 060C0000 		.4byte	0xc06
 4209 0bf6 16       		.uleb128 0x16
 4210 0bf7 98030000 		.4byte	.LASF56
 4211 0bfb 01       		.byte	0x1
 4212 0bfc 0A03     		.2byte	0x30a
 4213 0bfe 8C060000 		.4byte	0x68c
 4214 0c02 02       		.uleb128 0x2
 4215 0c03 91       		.byte	0x91
 4216 0c04 74       		.sleb128 -12
 4217 0c05 00       		.byte	0
 4218 0c06 1B       		.uleb128 0x1b
 4219 0c07 9D030000 		.4byte	.LASF108
 4220 0c0b 01       		.byte	0x1
 4221 0c0c 1003     		.2byte	0x310
 4222 0c0e CE000000 		.4byte	0xce
 4223 0c12 00000000 		.4byte	.LFB111
 4224 0c16 22000000 		.4byte	.LFE111-.LFB111
 4225 0c1a 01       		.uleb128 0x1
 4226 0c1b 9C       		.byte	0x9c
 4227 0c1c 300C0000 		.4byte	0xc30
 4228 0c20 16       		.uleb128 0x16
 4229 0c21 98030000 		.4byte	.LASF56
 4230 0c25 01       		.byte	0x1
 4231 0c26 1003     		.2byte	0x310
 4232 0c28 8C060000 		.4byte	0x68c
 4233 0c2c 02       		.uleb128 0x2
 4234 0c2d 91       		.byte	0x91
 4235 0c2e 74       		.sleb128 -12
 4236 0c2f 00       		.byte	0
 4237 0c30 1B       		.uleb128 0x1b
 4238 0c31 60000000 		.4byte	.LASF109
 4239 0c35 01       		.byte	0x1
ARM GAS  C:\Users\Perro\AppData\Local\Temp\ccDnyon7.s 			page 90


 4240 0c36 1503     		.2byte	0x315
 4241 0c38 AD000000 		.4byte	0xad
 4242 0c3c 00000000 		.4byte	.LFB112
 4243 0c40 28000000 		.4byte	.LFE112-.LFB112
 4244 0c44 01       		.uleb128 0x1
 4245 0c45 9C       		.byte	0x9c
 4246 0c46 5A0C0000 		.4byte	0xc5a
 4247 0c4a 13       		.uleb128 0x13
 4248 0c4b 5B050000 		.4byte	.LASF110
 4249 0c4f 01       		.byte	0x1
 4250 0c50 1703     		.2byte	0x317
 4251 0c52 AD000000 		.4byte	0xad
 4252 0c56 02       		.uleb128 0x2
 4253 0c57 91       		.byte	0x91
 4254 0c58 77       		.sleb128 -9
 4255 0c59 00       		.byte	0
 4256 0c5a 1B       		.uleb128 0x1b
 4257 0c5b BB040000 		.4byte	.LASF111
 4258 0c5f 01       		.byte	0x1
 4259 0c60 1D03     		.2byte	0x31d
 4260 0c62 CE000000 		.4byte	0xce
 4261 0c66 00000000 		.4byte	.LFB113
 4262 0c6a 1E000000 		.4byte	.LFE113-.LFB113
 4263 0c6e 01       		.uleb128 0x1
 4264 0c6f 9C       		.byte	0x9c
 4265 0c70 8F0C0000 		.4byte	0xc8f
 4266 0c74 12       		.uleb128 0x12
 4267 0c75 7800     		.ascii	"x\000"
 4268 0c77 01       		.byte	0x1
 4269 0c78 1D03     		.2byte	0x31d
 4270 0c7a AD050000 		.4byte	0x5ad
 4271 0c7e 02       		.uleb128 0x2
 4272 0c7f 91       		.byte	0x91
 4273 0c80 74       		.sleb128 -12
 4274 0c81 12       		.uleb128 0x12
 4275 0c82 6900     		.ascii	"i\000"
 4276 0c84 01       		.byte	0x1
 4277 0c85 1D03     		.2byte	0x31d
 4278 0c87 94000000 		.4byte	0x94
 4279 0c8b 02       		.uleb128 0x2
 4280 0c8c 91       		.byte	0x91
 4281 0c8d 70       		.sleb128 -16
 4282 0c8e 00       		.byte	0
 4283 0c8f 1B       		.uleb128 0x1b
 4284 0c90 EF010000 		.4byte	.LASF112
 4285 0c94 01       		.byte	0x1
 4286 0c95 2303     		.2byte	0x323
 4287 0c97 CE000000 		.4byte	0xce
 4288 0c9b 00000000 		.4byte	.LFB114
 4289 0c9f 22000000 		.4byte	.LFE114-.LFB114
 4290 0ca3 01       		.uleb128 0x1
 4291 0ca4 9C       		.byte	0x9c
 4292 0ca5 B90C0000 		.4byte	0xcb9
 4293 0ca9 16       		.uleb128 0x16
 4294 0caa 98030000 		.4byte	.LASF56
 4295 0cae 01       		.byte	0x1
 4296 0caf 2303     		.2byte	0x323
ARM GAS  C:\Users\Perro\AppData\Local\Temp\ccDnyon7.s 			page 91


 4297 0cb1 8C060000 		.4byte	0x68c
 4298 0cb5 02       		.uleb128 0x2
 4299 0cb6 91       		.byte	0x91
 4300 0cb7 74       		.sleb128 -12
 4301 0cb8 00       		.byte	0
 4302 0cb9 1B       		.uleb128 0x1b
 4303 0cba 54050000 		.4byte	.LASF113
 4304 0cbe 01       		.byte	0x1
 4305 0cbf 3503     		.2byte	0x335
 4306 0cc1 CE000000 		.4byte	0xce
 4307 0cc5 00000000 		.4byte	.LFB115
 4308 0cc9 20000000 		.4byte	.LFE115-.LFB115
 4309 0ccd 01       		.uleb128 0x1
 4310 0cce 9C       		.byte	0x9c
 4311 0ccf E30C0000 		.4byte	0xce3
 4312 0cd3 16       		.uleb128 0x16
 4313 0cd4 98030000 		.4byte	.LASF56
 4314 0cd8 01       		.byte	0x1
 4315 0cd9 3503     		.2byte	0x335
 4316 0cdb 8C060000 		.4byte	0x68c
 4317 0cdf 02       		.uleb128 0x2
 4318 0ce0 91       		.byte	0x91
 4319 0ce1 74       		.sleb128 -12
 4320 0ce2 00       		.byte	0
 4321 0ce3 1C       		.uleb128 0x1c
 4322 0ce4 98030000 		.4byte	.LASF56
 4323 0ce8 04       		.byte	0x4
 4324 0ce9 24       		.byte	0x24
 4325 0cea 5F010000 		.4byte	0x15f
 4326 0cee 05       		.uleb128 0x5
 4327 0cef 03       		.byte	0x3
 4328 0cf0 00000000 		.4byte	data
 4329 0cf4 1D       		.uleb128 0x1d
 4330 0cf5 0B050000 		.4byte	.LASF114
 4331 0cf9 05       		.byte	0x5
 4332 0cfa 1207     		.2byte	0x712
 4333 0cfc 000D0000 		.4byte	0xd00
 4334 0d00 1E       		.uleb128 0x1e
 4335 0d01 C3000000 		.4byte	0xc3
 4336 0d05 00       		.byte	0
 4337              		.section	.debug_abbrev,"",%progbits
 4338              	.Ldebug_abbrev0:
 4339 0000 01       		.uleb128 0x1
 4340 0001 11       		.uleb128 0x11
 4341 0002 01       		.byte	0x1
 4342 0003 25       		.uleb128 0x25
 4343 0004 0E       		.uleb128 0xe
 4344 0005 13       		.uleb128 0x13
 4345 0006 0B       		.uleb128 0xb
 4346 0007 03       		.uleb128 0x3
 4347 0008 0E       		.uleb128 0xe
 4348 0009 1B       		.uleb128 0x1b
 4349 000a 0E       		.uleb128 0xe
 4350 000b 55       		.uleb128 0x55
 4351 000c 17       		.uleb128 0x17
 4352 000d 11       		.uleb128 0x11
 4353 000e 01       		.uleb128 0x1
ARM GAS  C:\Users\Perro\AppData\Local\Temp\ccDnyon7.s 			page 92


 4354 000f 10       		.uleb128 0x10
 4355 0010 17       		.uleb128 0x17
 4356 0011 00       		.byte	0
 4357 0012 00       		.byte	0
 4358 0013 02       		.uleb128 0x2
 4359 0014 16       		.uleb128 0x16
 4360 0015 00       		.byte	0
 4361 0016 03       		.uleb128 0x3
 4362 0017 0E       		.uleb128 0xe
 4363 0018 3A       		.uleb128 0x3a
 4364 0019 0B       		.uleb128 0xb
 4365 001a 3B       		.uleb128 0x3b
 4366 001b 0B       		.uleb128 0xb
 4367 001c 49       		.uleb128 0x49
 4368 001d 13       		.uleb128 0x13
 4369 001e 00       		.byte	0
 4370 001f 00       		.byte	0
 4371 0020 03       		.uleb128 0x3
 4372 0021 24       		.uleb128 0x24
 4373 0022 00       		.byte	0
 4374 0023 0B       		.uleb128 0xb
 4375 0024 0B       		.uleb128 0xb
 4376 0025 3E       		.uleb128 0x3e
 4377 0026 0B       		.uleb128 0xb
 4378 0027 03       		.uleb128 0x3
 4379 0028 0E       		.uleb128 0xe
 4380 0029 00       		.byte	0
 4381 002a 00       		.byte	0
 4382 002b 04       		.uleb128 0x4
 4383 002c 24       		.uleb128 0x24
 4384 002d 00       		.byte	0
 4385 002e 0B       		.uleb128 0xb
 4386 002f 0B       		.uleb128 0xb
 4387 0030 3E       		.uleb128 0x3e
 4388 0031 0B       		.uleb128 0xb
 4389 0032 03       		.uleb128 0x3
 4390 0033 08       		.uleb128 0x8
 4391 0034 00       		.byte	0
 4392 0035 00       		.byte	0
 4393 0036 05       		.uleb128 0x5
 4394 0037 0F       		.uleb128 0xf
 4395 0038 00       		.byte	0
 4396 0039 0B       		.uleb128 0xb
 4397 003a 0B       		.uleb128 0xb
 4398 003b 49       		.uleb128 0x49
 4399 003c 13       		.uleb128 0x13
 4400 003d 00       		.byte	0
 4401 003e 00       		.byte	0
 4402 003f 06       		.uleb128 0x6
 4403 0040 26       		.uleb128 0x26
 4404 0041 00       		.byte	0
 4405 0042 49       		.uleb128 0x49
 4406 0043 13       		.uleb128 0x13
 4407 0044 00       		.byte	0
 4408 0045 00       		.byte	0
 4409 0046 07       		.uleb128 0x7
 4410 0047 13       		.uleb128 0x13
ARM GAS  C:\Users\Perro\AppData\Local\Temp\ccDnyon7.s 			page 93


 4411 0048 01       		.byte	0x1
 4412 0049 0B       		.uleb128 0xb
 4413 004a 05       		.uleb128 0x5
 4414 004b 3A       		.uleb128 0x3a
 4415 004c 0B       		.uleb128 0xb
 4416 004d 3B       		.uleb128 0x3b
 4417 004e 0B       		.uleb128 0xb
 4418 004f 01       		.uleb128 0x1
 4419 0050 13       		.uleb128 0x13
 4420 0051 00       		.byte	0
 4421 0052 00       		.byte	0
 4422 0053 08       		.uleb128 0x8
 4423 0054 0D       		.uleb128 0xd
 4424 0055 00       		.byte	0
 4425 0056 03       		.uleb128 0x3
 4426 0057 08       		.uleb128 0x8
 4427 0058 3A       		.uleb128 0x3a
 4428 0059 0B       		.uleb128 0xb
 4429 005a 3B       		.uleb128 0x3b
 4430 005b 0B       		.uleb128 0xb
 4431 005c 49       		.uleb128 0x49
 4432 005d 13       		.uleb128 0x13
 4433 005e 38       		.uleb128 0x38
 4434 005f 0B       		.uleb128 0xb
 4435 0060 00       		.byte	0
 4436 0061 00       		.byte	0
 4437 0062 09       		.uleb128 0x9
 4438 0063 0D       		.uleb128 0xd
 4439 0064 00       		.byte	0
 4440 0065 03       		.uleb128 0x3
 4441 0066 0E       		.uleb128 0xe
 4442 0067 3A       		.uleb128 0x3a
 4443 0068 0B       		.uleb128 0xb
 4444 0069 3B       		.uleb128 0x3b
 4445 006a 0B       		.uleb128 0xb
 4446 006b 49       		.uleb128 0x49
 4447 006c 13       		.uleb128 0x13
 4448 006d 38       		.uleb128 0x38
 4449 006e 05       		.uleb128 0x5
 4450 006f 00       		.byte	0
 4451 0070 00       		.byte	0
 4452 0071 0A       		.uleb128 0xa
 4453 0072 01       		.uleb128 0x1
 4454 0073 01       		.byte	0x1
 4455 0074 49       		.uleb128 0x49
 4456 0075 13       		.uleb128 0x13
 4457 0076 01       		.uleb128 0x1
 4458 0077 13       		.uleb128 0x13
 4459 0078 00       		.byte	0
 4460 0079 00       		.byte	0
 4461 007a 0B       		.uleb128 0xb
 4462 007b 21       		.uleb128 0x21
 4463 007c 00       		.byte	0
 4464 007d 49       		.uleb128 0x49
 4465 007e 13       		.uleb128 0x13
 4466 007f 2F       		.uleb128 0x2f
 4467 0080 0B       		.uleb128 0xb
ARM GAS  C:\Users\Perro\AppData\Local\Temp\ccDnyon7.s 			page 94


 4468 0081 00       		.byte	0
 4469 0082 00       		.byte	0
 4470 0083 0C       		.uleb128 0xc
 4471 0084 2E       		.uleb128 0x2e
 4472 0085 00       		.byte	0
 4473 0086 3F       		.uleb128 0x3f
 4474 0087 19       		.uleb128 0x19
 4475 0088 03       		.uleb128 0x3
 4476 0089 0E       		.uleb128 0xe
 4477 008a 3A       		.uleb128 0x3a
 4478 008b 0B       		.uleb128 0xb
 4479 008c 3B       		.uleb128 0x3b
 4480 008d 0B       		.uleb128 0xb
 4481 008e 27       		.uleb128 0x27
 4482 008f 19       		.uleb128 0x19
 4483 0090 49       		.uleb128 0x49
 4484 0091 13       		.uleb128 0x13
 4485 0092 11       		.uleb128 0x11
 4486 0093 01       		.uleb128 0x1
 4487 0094 12       		.uleb128 0x12
 4488 0095 06       		.uleb128 0x6
 4489 0096 40       		.uleb128 0x40
 4490 0097 18       		.uleb128 0x18
 4491 0098 9642     		.uleb128 0x2116
 4492 009a 19       		.uleb128 0x19
 4493 009b 00       		.byte	0
 4494 009c 00       		.byte	0
 4495 009d 0D       		.uleb128 0xd
 4496 009e 2E       		.uleb128 0x2e
 4497 009f 01       		.byte	0x1
 4498 00a0 3F       		.uleb128 0x3f
 4499 00a1 19       		.uleb128 0x19
 4500 00a2 03       		.uleb128 0x3
 4501 00a3 0E       		.uleb128 0xe
 4502 00a4 3A       		.uleb128 0x3a
 4503 00a5 0B       		.uleb128 0xb
 4504 00a6 3B       		.uleb128 0x3b
 4505 00a7 0B       		.uleb128 0xb
 4506 00a8 27       		.uleb128 0x27
 4507 00a9 19       		.uleb128 0x19
 4508 00aa 49       		.uleb128 0x49
 4509 00ab 13       		.uleb128 0x13
 4510 00ac 11       		.uleb128 0x11
 4511 00ad 01       		.uleb128 0x1
 4512 00ae 12       		.uleb128 0x12
 4513 00af 06       		.uleb128 0x6
 4514 00b0 40       		.uleb128 0x40
 4515 00b1 18       		.uleb128 0x18
 4516 00b2 9642     		.uleb128 0x2116
 4517 00b4 19       		.uleb128 0x19
 4518 00b5 01       		.uleb128 0x1
 4519 00b6 13       		.uleb128 0x13
 4520 00b7 00       		.byte	0
 4521 00b8 00       		.byte	0
 4522 00b9 0E       		.uleb128 0xe
 4523 00ba 05       		.uleb128 0x5
 4524 00bb 00       		.byte	0
ARM GAS  C:\Users\Perro\AppData\Local\Temp\ccDnyon7.s 			page 95


 4525 00bc 03       		.uleb128 0x3
 4526 00bd 0E       		.uleb128 0xe
 4527 00be 3A       		.uleb128 0x3a
 4528 00bf 0B       		.uleb128 0xb
 4529 00c0 3B       		.uleb128 0x3b
 4530 00c1 0B       		.uleb128 0xb
 4531 00c2 49       		.uleb128 0x49
 4532 00c3 13       		.uleb128 0x13
 4533 00c4 02       		.uleb128 0x2
 4534 00c5 18       		.uleb128 0x18
 4535 00c6 00       		.byte	0
 4536 00c7 00       		.byte	0
 4537 00c8 0F       		.uleb128 0xf
 4538 00c9 34       		.uleb128 0x34
 4539 00ca 00       		.byte	0
 4540 00cb 03       		.uleb128 0x3
 4541 00cc 0E       		.uleb128 0xe
 4542 00cd 3A       		.uleb128 0x3a
 4543 00ce 0B       		.uleb128 0xb
 4544 00cf 3B       		.uleb128 0x3b
 4545 00d0 0B       		.uleb128 0xb
 4546 00d1 49       		.uleb128 0x49
 4547 00d2 13       		.uleb128 0x13
 4548 00d3 02       		.uleb128 0x2
 4549 00d4 18       		.uleb128 0x18
 4550 00d5 00       		.byte	0
 4551 00d6 00       		.byte	0
 4552 00d7 10       		.uleb128 0x10
 4553 00d8 2E       		.uleb128 0x2e
 4554 00d9 00       		.byte	0
 4555 00da 3F       		.uleb128 0x3f
 4556 00db 19       		.uleb128 0x19
 4557 00dc 03       		.uleb128 0x3
 4558 00dd 0E       		.uleb128 0xe
 4559 00de 3A       		.uleb128 0x3a
 4560 00df 0B       		.uleb128 0xb
 4561 00e0 3B       		.uleb128 0x3b
 4562 00e1 05       		.uleb128 0x5
 4563 00e2 27       		.uleb128 0x27
 4564 00e3 19       		.uleb128 0x19
 4565 00e4 49       		.uleb128 0x49
 4566 00e5 13       		.uleb128 0x13
 4567 00e6 11       		.uleb128 0x11
 4568 00e7 01       		.uleb128 0x1
 4569 00e8 12       		.uleb128 0x12
 4570 00e9 06       		.uleb128 0x6
 4571 00ea 40       		.uleb128 0x40
 4572 00eb 18       		.uleb128 0x18
 4573 00ec 9642     		.uleb128 0x2116
 4574 00ee 19       		.uleb128 0x19
 4575 00ef 00       		.byte	0
 4576 00f0 00       		.byte	0
 4577 00f1 11       		.uleb128 0x11
 4578 00f2 2E       		.uleb128 0x2e
 4579 00f3 01       		.byte	0x1
 4580 00f4 3F       		.uleb128 0x3f
 4581 00f5 19       		.uleb128 0x19
ARM GAS  C:\Users\Perro\AppData\Local\Temp\ccDnyon7.s 			page 96


 4582 00f6 03       		.uleb128 0x3
 4583 00f7 0E       		.uleb128 0xe
 4584 00f8 3A       		.uleb128 0x3a
 4585 00f9 0B       		.uleb128 0xb
 4586 00fa 3B       		.uleb128 0x3b
 4587 00fb 05       		.uleb128 0x5
 4588 00fc 27       		.uleb128 0x27
 4589 00fd 19       		.uleb128 0x19
 4590 00fe 49       		.uleb128 0x49
 4591 00ff 13       		.uleb128 0x13
 4592 0100 11       		.uleb128 0x11
 4593 0101 01       		.uleb128 0x1
 4594 0102 12       		.uleb128 0x12
 4595 0103 06       		.uleb128 0x6
 4596 0104 40       		.uleb128 0x40
 4597 0105 18       		.uleb128 0x18
 4598 0106 9642     		.uleb128 0x2116
 4599 0108 19       		.uleb128 0x19
 4600 0109 01       		.uleb128 0x1
 4601 010a 13       		.uleb128 0x13
 4602 010b 00       		.byte	0
 4603 010c 00       		.byte	0
 4604 010d 12       		.uleb128 0x12
 4605 010e 05       		.uleb128 0x5
 4606 010f 00       		.byte	0
 4607 0110 03       		.uleb128 0x3
 4608 0111 08       		.uleb128 0x8
 4609 0112 3A       		.uleb128 0x3a
 4610 0113 0B       		.uleb128 0xb
 4611 0114 3B       		.uleb128 0x3b
 4612 0115 05       		.uleb128 0x5
 4613 0116 49       		.uleb128 0x49
 4614 0117 13       		.uleb128 0x13
 4615 0118 02       		.uleb128 0x2
 4616 0119 18       		.uleb128 0x18
 4617 011a 00       		.byte	0
 4618 011b 00       		.byte	0
 4619 011c 13       		.uleb128 0x13
 4620 011d 34       		.uleb128 0x34
 4621 011e 00       		.byte	0
 4622 011f 03       		.uleb128 0x3
 4623 0120 0E       		.uleb128 0xe
 4624 0121 3A       		.uleb128 0x3a
 4625 0122 0B       		.uleb128 0xb
 4626 0123 3B       		.uleb128 0x3b
 4627 0124 05       		.uleb128 0x5
 4628 0125 49       		.uleb128 0x49
 4629 0126 13       		.uleb128 0x13
 4630 0127 02       		.uleb128 0x2
 4631 0128 18       		.uleb128 0x18
 4632 0129 00       		.byte	0
 4633 012a 00       		.byte	0
 4634 012b 14       		.uleb128 0x14
 4635 012c 0B       		.uleb128 0xb
 4636 012d 01       		.byte	0x1
 4637 012e 11       		.uleb128 0x11
 4638 012f 01       		.uleb128 0x1
ARM GAS  C:\Users\Perro\AppData\Local\Temp\ccDnyon7.s 			page 97


 4639 0130 12       		.uleb128 0x12
 4640 0131 06       		.uleb128 0x6
 4641 0132 00       		.byte	0
 4642 0133 00       		.byte	0
 4643 0134 15       		.uleb128 0x15
 4644 0135 21       		.uleb128 0x21
 4645 0136 00       		.byte	0
 4646 0137 49       		.uleb128 0x49
 4647 0138 13       		.uleb128 0x13
 4648 0139 2F       		.uleb128 0x2f
 4649 013a 18       		.uleb128 0x18
 4650 013b 00       		.byte	0
 4651 013c 00       		.byte	0
 4652 013d 16       		.uleb128 0x16
 4653 013e 05       		.uleb128 0x5
 4654 013f 00       		.byte	0
 4655 0140 03       		.uleb128 0x3
 4656 0141 0E       		.uleb128 0xe
 4657 0142 3A       		.uleb128 0x3a
 4658 0143 0B       		.uleb128 0xb
 4659 0144 3B       		.uleb128 0x3b
 4660 0145 05       		.uleb128 0x5
 4661 0146 49       		.uleb128 0x49
 4662 0147 13       		.uleb128 0x13
 4663 0148 02       		.uleb128 0x2
 4664 0149 18       		.uleb128 0x18
 4665 014a 00       		.byte	0
 4666 014b 00       		.byte	0
 4667 014c 17       		.uleb128 0x17
 4668 014d 34       		.uleb128 0x34
 4669 014e 00       		.byte	0
 4670 014f 03       		.uleb128 0x3
 4671 0150 08       		.uleb128 0x8
 4672 0151 3A       		.uleb128 0x3a
 4673 0152 0B       		.uleb128 0xb
 4674 0153 3B       		.uleb128 0x3b
 4675 0154 05       		.uleb128 0x5
 4676 0155 49       		.uleb128 0x49
 4677 0156 13       		.uleb128 0x13
 4678 0157 02       		.uleb128 0x2
 4679 0158 18       		.uleb128 0x18
 4680 0159 00       		.byte	0
 4681 015a 00       		.byte	0
 4682 015b 18       		.uleb128 0x18
 4683 015c 15       		.uleb128 0x15
 4684 015d 01       		.byte	0x1
 4685 015e 27       		.uleb128 0x27
 4686 015f 19       		.uleb128 0x19
 4687 0160 01       		.uleb128 0x1
 4688 0161 13       		.uleb128 0x13
 4689 0162 00       		.byte	0
 4690 0163 00       		.byte	0
 4691 0164 19       		.uleb128 0x19
 4692 0165 05       		.uleb128 0x5
 4693 0166 00       		.byte	0
 4694 0167 49       		.uleb128 0x49
 4695 0168 13       		.uleb128 0x13
ARM GAS  C:\Users\Perro\AppData\Local\Temp\ccDnyon7.s 			page 98


 4696 0169 00       		.byte	0
 4697 016a 00       		.byte	0
 4698 016b 1A       		.uleb128 0x1a
 4699 016c 2E       		.uleb128 0x2e
 4700 016d 01       		.byte	0x1
 4701 016e 03       		.uleb128 0x3
 4702 016f 0E       		.uleb128 0xe
 4703 0170 3A       		.uleb128 0x3a
 4704 0171 0B       		.uleb128 0xb
 4705 0172 3B       		.uleb128 0x3b
 4706 0173 05       		.uleb128 0x5
 4707 0174 27       		.uleb128 0x27
 4708 0175 19       		.uleb128 0x19
 4709 0176 49       		.uleb128 0x49
 4710 0177 13       		.uleb128 0x13
 4711 0178 11       		.uleb128 0x11
 4712 0179 01       		.uleb128 0x1
 4713 017a 12       		.uleb128 0x12
 4714 017b 06       		.uleb128 0x6
 4715 017c 40       		.uleb128 0x40
 4716 017d 18       		.uleb128 0x18
 4717 017e 9642     		.uleb128 0x2116
 4718 0180 19       		.uleb128 0x19
 4719 0181 01       		.uleb128 0x1
 4720 0182 13       		.uleb128 0x13
 4721 0183 00       		.byte	0
 4722 0184 00       		.byte	0
 4723 0185 1B       		.uleb128 0x1b
 4724 0186 2E       		.uleb128 0x2e
 4725 0187 01       		.byte	0x1
 4726 0188 3F       		.uleb128 0x3f
 4727 0189 19       		.uleb128 0x19
 4728 018a 03       		.uleb128 0x3
 4729 018b 0E       		.uleb128 0xe
 4730 018c 3A       		.uleb128 0x3a
 4731 018d 0B       		.uleb128 0xb
 4732 018e 3B       		.uleb128 0x3b
 4733 018f 05       		.uleb128 0x5
 4734 0190 27       		.uleb128 0x27
 4735 0191 19       		.uleb128 0x19
 4736 0192 49       		.uleb128 0x49
 4737 0193 13       		.uleb128 0x13
 4738 0194 11       		.uleb128 0x11
 4739 0195 01       		.uleb128 0x1
 4740 0196 12       		.uleb128 0x12
 4741 0197 06       		.uleb128 0x6
 4742 0198 40       		.uleb128 0x40
 4743 0199 18       		.uleb128 0x18
 4744 019a 9742     		.uleb128 0x2117
 4745 019c 19       		.uleb128 0x19
 4746 019d 01       		.uleb128 0x1
 4747 019e 13       		.uleb128 0x13
 4748 019f 00       		.byte	0
 4749 01a0 00       		.byte	0
 4750 01a1 1C       		.uleb128 0x1c
 4751 01a2 34       		.uleb128 0x34
 4752 01a3 00       		.byte	0
ARM GAS  C:\Users\Perro\AppData\Local\Temp\ccDnyon7.s 			page 99


 4753 01a4 03       		.uleb128 0x3
 4754 01a5 0E       		.uleb128 0xe
 4755 01a6 3A       		.uleb128 0x3a
 4756 01a7 0B       		.uleb128 0xb
 4757 01a8 3B       		.uleb128 0x3b
 4758 01a9 0B       		.uleb128 0xb
 4759 01aa 49       		.uleb128 0x49
 4760 01ab 13       		.uleb128 0x13
 4761 01ac 3F       		.uleb128 0x3f
 4762 01ad 19       		.uleb128 0x19
 4763 01ae 02       		.uleb128 0x2
 4764 01af 18       		.uleb128 0x18
 4765 01b0 00       		.byte	0
 4766 01b1 00       		.byte	0
 4767 01b2 1D       		.uleb128 0x1d
 4768 01b3 34       		.uleb128 0x34
 4769 01b4 00       		.byte	0
 4770 01b5 03       		.uleb128 0x3
 4771 01b6 0E       		.uleb128 0xe
 4772 01b7 3A       		.uleb128 0x3a
 4773 01b8 0B       		.uleb128 0xb
 4774 01b9 3B       		.uleb128 0x3b
 4775 01ba 05       		.uleb128 0x5
 4776 01bb 49       		.uleb128 0x49
 4777 01bc 13       		.uleb128 0x13
 4778 01bd 3F       		.uleb128 0x3f
 4779 01be 19       		.uleb128 0x19
 4780 01bf 3C       		.uleb128 0x3c
 4781 01c0 19       		.uleb128 0x19
 4782 01c1 00       		.byte	0
 4783 01c2 00       		.byte	0
 4784 01c3 1E       		.uleb128 0x1e
 4785 01c4 35       		.uleb128 0x35
 4786 01c5 00       		.byte	0
 4787 01c6 49       		.uleb128 0x49
 4788 01c7 13       		.uleb128 0x13
 4789 01c8 00       		.byte	0
 4790 01c9 00       		.byte	0
 4791 01ca 00       		.byte	0
 4792              		.section	.debug_aranges,"",%progbits
 4793 0000 B4010000 		.4byte	0x1b4
 4794 0004 0200     		.2byte	0x2
 4795 0006 00000000 		.4byte	.Ldebug_info0
 4796 000a 04       		.byte	0x4
 4797 000b 00       		.byte	0
 4798 000c 0000     		.2byte	0
 4799 000e 0000     		.2byte	0
 4800 0010 00000000 		.4byte	.LFB64
 4801 0014 12000000 		.4byte	.LFE64-.LFB64
 4802 0018 00000000 		.4byte	.LFB65
 4803 001c 1A000000 		.4byte	.LFE65-.LFB65
 4804 0020 00000000 		.4byte	.LFB66
 4805 0024 2E000000 		.4byte	.LFE66-.LFB66
 4806 0028 00000000 		.4byte	.LFB67
 4807 002c 2E000000 		.4byte	.LFE67-.LFB67
 4808 0030 00000000 		.4byte	.LFB68
 4809 0034 2E000000 		.4byte	.LFE68-.LFB68
ARM GAS  C:\Users\Perro\AppData\Local\Temp\ccDnyon7.s 			page 100


 4810 0038 00000000 		.4byte	.LFB69
 4811 003c 2E000000 		.4byte	.LFE69-.LFB69
 4812 0040 00000000 		.4byte	.LFB70
 4813 0044 2E000000 		.4byte	.LFE70-.LFB70
 4814 0048 00000000 		.4byte	.LFB71
 4815 004c 14000000 		.4byte	.LFE71-.LFB71
 4816 0050 00000000 		.4byte	.LFB72
 4817 0054 14000000 		.4byte	.LFE72-.LFB72
 4818 0058 00000000 		.4byte	.LFB73
 4819 005c 14000000 		.4byte	.LFE73-.LFB73
 4820 0060 00000000 		.4byte	.LFB74
 4821 0064 14000000 		.4byte	.LFE74-.LFB74
 4822 0068 00000000 		.4byte	.LFB75
 4823 006c 14000000 		.4byte	.LFE75-.LFB75
 4824 0070 00000000 		.4byte	.LFB76
 4825 0074 14000000 		.4byte	.LFE76-.LFB76
 4826 0078 00000000 		.4byte	.LFB77
 4827 007c 14000000 		.4byte	.LFE77-.LFB77
 4828 0080 00000000 		.4byte	.LFB78
 4829 0084 14000000 		.4byte	.LFE78-.LFB78
 4830 0088 00000000 		.4byte	.LFB79
 4831 008c 1A000000 		.4byte	.LFE79-.LFB79
 4832 0090 00000000 		.4byte	.LFB80
 4833 0094 1A000000 		.4byte	.LFE80-.LFB80
 4834 0098 00000000 		.4byte	.LFB81
 4835 009c 1A000000 		.4byte	.LFE81-.LFB81
 4836 00a0 00000000 		.4byte	.LFB82
 4837 00a4 C6000000 		.4byte	.LFE82-.LFB82
 4838 00a8 00000000 		.4byte	.LFB83
 4839 00ac 46000000 		.4byte	.LFE83-.LFB83
 4840 00b0 00000000 		.4byte	.LFB84
 4841 00b4 EA000000 		.4byte	.LFE84-.LFB84
 4842 00b8 00000000 		.4byte	.LFB85
 4843 00bc 62010000 		.4byte	.LFE85-.LFB85
 4844 00c0 00000000 		.4byte	.LFB86
 4845 00c4 20000000 		.4byte	.LFE86-.LFB86
 4846 00c8 00000000 		.4byte	.LFB87
 4847 00cc 14000000 		.4byte	.LFE87-.LFB87
 4848 00d0 00000000 		.4byte	.LFB88
 4849 00d4 14000000 		.4byte	.LFE88-.LFB88
 4850 00d8 00000000 		.4byte	.LFB89
 4851 00dc 26000000 		.4byte	.LFE89-.LFB89
 4852 00e0 00000000 		.4byte	.LFB90
 4853 00e4 14000000 		.4byte	.LFE90-.LFB90
 4854 00e8 00000000 		.4byte	.LFB91
 4855 00ec 14000000 		.4byte	.LFE91-.LFB91
 4856 00f0 00000000 		.4byte	.LFB92
 4857 00f4 14000000 		.4byte	.LFE92-.LFB92
 4858 00f8 00000000 		.4byte	.LFB93
 4859 00fc 20000000 		.4byte	.LFE93-.LFB93
 4860 0100 00000000 		.4byte	.LFB94
 4861 0104 20000000 		.4byte	.LFE94-.LFB94
 4862 0108 00000000 		.4byte	.LFB95
 4863 010c 20000000 		.4byte	.LFE95-.LFB95
 4864 0110 00000000 		.4byte	.LFB96
 4865 0114 20000000 		.4byte	.LFE96-.LFB96
 4866 0118 00000000 		.4byte	.LFB97
ARM GAS  C:\Users\Perro\AppData\Local\Temp\ccDnyon7.s 			page 101


 4867 011c 64000000 		.4byte	.LFE97-.LFB97
 4868 0120 00000000 		.4byte	.LFB98
 4869 0124 82000000 		.4byte	.LFE98-.LFB98
 4870 0128 00000000 		.4byte	.LFB99
 4871 012c 2E000000 		.4byte	.LFE99-.LFB99
 4872 0130 00000000 		.4byte	.LFB100
 4873 0134 8C000000 		.4byte	.LFE100-.LFB100
 4874 0138 00000000 		.4byte	.LFB101
 4875 013c 3E000000 		.4byte	.LFE101-.LFB101
 4876 0140 00000000 		.4byte	.LFB102
 4877 0144 12000000 		.4byte	.LFE102-.LFB102
 4878 0148 00000000 		.4byte	.LFB103
 4879 014c 1A000000 		.4byte	.LFE103-.LFB103
 4880 0150 00000000 		.4byte	.LFB104
 4881 0154 1A000000 		.4byte	.LFE104-.LFB104
 4882 0158 00000000 		.4byte	.LFB105
 4883 015c 3A000000 		.4byte	.LFE105-.LFB105
 4884 0160 00000000 		.4byte	.LFB106
 4885 0164 68000000 		.4byte	.LFE106-.LFB106
 4886 0168 00000000 		.4byte	.LFB107
 4887 016c 4C000000 		.4byte	.LFE107-.LFB107
 4888 0170 00000000 		.4byte	.LFB108
 4889 0174 34000000 		.4byte	.LFE108-.LFB108
 4890 0178 00000000 		.4byte	.LFB109
 4891 017c 54000000 		.4byte	.LFE109-.LFB109
 4892 0180 00000000 		.4byte	.LFB110
 4893 0184 20000000 		.4byte	.LFE110-.LFB110
 4894 0188 00000000 		.4byte	.LFB111
 4895 018c 22000000 		.4byte	.LFE111-.LFB111
 4896 0190 00000000 		.4byte	.LFB112
 4897 0194 28000000 		.4byte	.LFE112-.LFB112
 4898 0198 00000000 		.4byte	.LFB113
 4899 019c 1E000000 		.4byte	.LFE113-.LFB113
 4900 01a0 00000000 		.4byte	.LFB114
 4901 01a4 22000000 		.4byte	.LFE114-.LFB114
 4902 01a8 00000000 		.4byte	.LFB115
 4903 01ac 20000000 		.4byte	.LFE115-.LFB115
 4904 01b0 00000000 		.4byte	0
 4905 01b4 00000000 		.4byte	0
 4906              		.section	.debug_ranges,"",%progbits
 4907              	.Ldebug_ranges0:
 4908 0000 00000000 		.4byte	.LFB64
 4909 0004 12000000 		.4byte	.LFE64
 4910 0008 00000000 		.4byte	.LFB65
 4911 000c 1A000000 		.4byte	.LFE65
 4912 0010 00000000 		.4byte	.LFB66
 4913 0014 2E000000 		.4byte	.LFE66
 4914 0018 00000000 		.4byte	.LFB67
 4915 001c 2E000000 		.4byte	.LFE67
 4916 0020 00000000 		.4byte	.LFB68
 4917 0024 2E000000 		.4byte	.LFE68
 4918 0028 00000000 		.4byte	.LFB69
 4919 002c 2E000000 		.4byte	.LFE69
 4920 0030 00000000 		.4byte	.LFB70
 4921 0034 2E000000 		.4byte	.LFE70
 4922 0038 00000000 		.4byte	.LFB71
 4923 003c 14000000 		.4byte	.LFE71
ARM GAS  C:\Users\Perro\AppData\Local\Temp\ccDnyon7.s 			page 102


 4924 0040 00000000 		.4byte	.LFB72
 4925 0044 14000000 		.4byte	.LFE72
 4926 0048 00000000 		.4byte	.LFB73
 4927 004c 14000000 		.4byte	.LFE73
 4928 0050 00000000 		.4byte	.LFB74
 4929 0054 14000000 		.4byte	.LFE74
 4930 0058 00000000 		.4byte	.LFB75
 4931 005c 14000000 		.4byte	.LFE75
 4932 0060 00000000 		.4byte	.LFB76
 4933 0064 14000000 		.4byte	.LFE76
 4934 0068 00000000 		.4byte	.LFB77
 4935 006c 14000000 		.4byte	.LFE77
 4936 0070 00000000 		.4byte	.LFB78
 4937 0074 14000000 		.4byte	.LFE78
 4938 0078 00000000 		.4byte	.LFB79
 4939 007c 1A000000 		.4byte	.LFE79
 4940 0080 00000000 		.4byte	.LFB80
 4941 0084 1A000000 		.4byte	.LFE80
 4942 0088 00000000 		.4byte	.LFB81
 4943 008c 1A000000 		.4byte	.LFE81
 4944 0090 00000000 		.4byte	.LFB82
 4945 0094 C6000000 		.4byte	.LFE82
 4946 0098 00000000 		.4byte	.LFB83
 4947 009c 46000000 		.4byte	.LFE83
 4948 00a0 00000000 		.4byte	.LFB84
 4949 00a4 EA000000 		.4byte	.LFE84
 4950 00a8 00000000 		.4byte	.LFB85
 4951 00ac 62010000 		.4byte	.LFE85
 4952 00b0 00000000 		.4byte	.LFB86
 4953 00b4 20000000 		.4byte	.LFE86
 4954 00b8 00000000 		.4byte	.LFB87
 4955 00bc 14000000 		.4byte	.LFE87
 4956 00c0 00000000 		.4byte	.LFB88
 4957 00c4 14000000 		.4byte	.LFE88
 4958 00c8 00000000 		.4byte	.LFB89
 4959 00cc 26000000 		.4byte	.LFE89
 4960 00d0 00000000 		.4byte	.LFB90
 4961 00d4 14000000 		.4byte	.LFE90
 4962 00d8 00000000 		.4byte	.LFB91
 4963 00dc 14000000 		.4byte	.LFE91
 4964 00e0 00000000 		.4byte	.LFB92
 4965 00e4 14000000 		.4byte	.LFE92
 4966 00e8 00000000 		.4byte	.LFB93
 4967 00ec 20000000 		.4byte	.LFE93
 4968 00f0 00000000 		.4byte	.LFB94
 4969 00f4 20000000 		.4byte	.LFE94
 4970 00f8 00000000 		.4byte	.LFB95
 4971 00fc 20000000 		.4byte	.LFE95
 4972 0100 00000000 		.4byte	.LFB96
 4973 0104 20000000 		.4byte	.LFE96
 4974 0108 00000000 		.4byte	.LFB97
 4975 010c 64000000 		.4byte	.LFE97
 4976 0110 00000000 		.4byte	.LFB98
 4977 0114 82000000 		.4byte	.LFE98
 4978 0118 00000000 		.4byte	.LFB99
 4979 011c 2E000000 		.4byte	.LFE99
 4980 0120 00000000 		.4byte	.LFB100
ARM GAS  C:\Users\Perro\AppData\Local\Temp\ccDnyon7.s 			page 103


 4981 0124 8C000000 		.4byte	.LFE100
 4982 0128 00000000 		.4byte	.LFB101
 4983 012c 3E000000 		.4byte	.LFE101
 4984 0130 00000000 		.4byte	.LFB102
 4985 0134 12000000 		.4byte	.LFE102
 4986 0138 00000000 		.4byte	.LFB103
 4987 013c 1A000000 		.4byte	.LFE103
 4988 0140 00000000 		.4byte	.LFB104
 4989 0144 1A000000 		.4byte	.LFE104
 4990 0148 00000000 		.4byte	.LFB105
 4991 014c 3A000000 		.4byte	.LFE105
 4992 0150 00000000 		.4byte	.LFB106
 4993 0154 68000000 		.4byte	.LFE106
 4994 0158 00000000 		.4byte	.LFB107
 4995 015c 4C000000 		.4byte	.LFE107
 4996 0160 00000000 		.4byte	.LFB108
 4997 0164 34000000 		.4byte	.LFE108
 4998 0168 00000000 		.4byte	.LFB109
 4999 016c 54000000 		.4byte	.LFE109
 5000 0170 00000000 		.4byte	.LFB110
 5001 0174 20000000 		.4byte	.LFE110
 5002 0178 00000000 		.4byte	.LFB111
 5003 017c 22000000 		.4byte	.LFE111
 5004 0180 00000000 		.4byte	.LFB112
 5005 0184 28000000 		.4byte	.LFE112
 5006 0188 00000000 		.4byte	.LFB113
 5007 018c 1E000000 		.4byte	.LFE113
 5008 0190 00000000 		.4byte	.LFB114
 5009 0194 22000000 		.4byte	.LFE114
 5010 0198 00000000 		.4byte	.LFB115
 5011 019c 20000000 		.4byte	.LFE115
 5012 01a0 00000000 		.4byte	0
 5013 01a4 00000000 		.4byte	0
 5014              		.section	.debug_line,"",%progbits
 5015              	.Ldebug_line0:
 5016 0000 A2050000 		.section	.debug_str,"MS",%progbits,1
 5016      02005101 
 5016      00000201 
 5016      FB0E0D00 
 5016      01010101 
 5017              	.LASF72:
 5018 0000 4D415833 		.ascii	"MAX30101_Reset\000"
 5018      30313031 
 5018      5F526573 
 5018      657400
 5019              	.LASF62:
 5020 000f 74656D70 		.ascii	"tempLong\000"
 5020      4C6F6E67 
 5020      00
 5021              	.LASF28:
 5022 0018 4D415833 		.ascii	"MAX30101_Start\000"
 5022      30313031 
 5022      5F537461 
 5022      727400
 5023              	.LASF69:
 5024 0027 4D415833 		.ascii	"MAX30101_SetFIFOAlmostFull\000"
 5024      30313031 
ARM GAS  C:\Users\Perro\AppData\Local\Temp\ccDnyon7.s 			page 104


 5024      5F536574 
 5024      4649464F 
 5024      416C6D6F 
 5025              	.LASF86:
 5026 0042 74656D70 		.ascii	"temperature\000"
 5026      65726174 
 5026      75726500 
 5027              	.LASF83:
 5028 004e 736C6F74 		.ascii	"slot\000"
 5028      00
 5029              	.LASF51:
 5030 0053 63757272 		.ascii	"current_mode\000"
 5030      656E745F 
 5030      6D6F6465 
 5030      00
 5031              	.LASF109:
 5032 0060 4D415833 		.ascii	"MAX30105_available\000"
 5032      30313035 
 5032      5F617661 
 5032      696C6162 
 5032      6C6500
 5033              	.LASF87:
 5034 0073 696E7465 		.ascii	"integer\000"
 5034      67657200 
 5035              	.LASF13:
 5036 007b 756E7369 		.ascii	"unsigned int\000"
 5036      676E6564 
 5036      20696E74 
 5036      00
 5037              	.LASF25:
 5038 0088 68656164 		.ascii	"head\000"
 5038      00
 5039              	.LASF88:
 5040 008d 66726163 		.ascii	"frac\000"
 5040      00
 5041              	.LASF7:
 5042 0092 5F5F696E 		.ascii	"__int32_t\000"
 5042      7433325F 
 5042      7400
 5043              	.LASF47:
 5044 009c 4D415833 		.ascii	"MAX30101_ReadOverflowCounter\000"
 5044      30313031 
 5044      5F526561 
 5044      644F7665 
 5044      72666C6F 
 5045              	.LASF98:
 5046 00b9 4D415833 		.ascii	"MAX30101_LogRegisters\000"
 5046      30313031 
 5046      5F4C6F67 
 5046      52656769 
 5046      73746572 
 5047              	.LASF115:
 5048 00cf 474E5520 		.ascii	"GNU C11 5.4.1 20160609 (release) [ARM/embedded-5-br"
 5048      43313120 
 5048      352E342E 
 5048      31203230 
 5048      31363036 
ARM GAS  C:\Users\Perro\AppData\Local\Temp\ccDnyon7.s 			page 105


 5049 0102 616E6368 		.ascii	"anch revision 237715] -mcpu=cortex-m3 -mthumb -g -O"
 5049      20726576 
 5049      6973696F 
 5049      6E203233 
 5049      37373135 
 5050 0135 30202D66 		.ascii	"0 -ffunction-sections -ffat-lto-objects\000"
 5050      66756E63 
 5050      74696F6E 
 5050      2D736563 
 5050      74696F6E 
 5051              	.LASF78:
 5052 015d 4D415833 		.ascii	"MAX30101_SetSpO2PulseWidth\000"
 5052      30313031 
 5052      5F536574 
 5052      53704F32 
 5052      50756C73 
 5053              	.LASF31:
 5054 0178 6572726F 		.ascii	"error\000"
 5054      7200
 5055              	.LASF74:
 5056 017e 6D6F6465 		.ascii	"mode\000"
 5056      00
 5057              	.LASF46:
 5058 0183 4D415833 		.ascii	"MAX30101_ReadWritePointer\000"
 5058      30313031 
 5058      5F526561 
 5058      64577269 
 5058      7465506F 
 5059              	.LASF101:
 5060 019d 4D415833 		.ascii	"MAX30101_PrintRegister\000"
 5060      30313031 
 5060      5F507269 
 5060      6E745265 
 5060      67697374 
 5061              	.LASF44:
 5062 01b4 4D415833 		.ascii	"MAX30101_DisableALCOverflowInt\000"
 5062      30313031 
 5062      5F446973 
 5062      61626C65 
 5062      414C434F 
 5063              	.LASF94:
 5064 01d3 72657669 		.ascii	"revision_id\000"
 5064      73696F6E 
 5064      5F696400 
 5065              	.LASF18:
 5066 01df 75696E74 		.ascii	"uint32_t\000"
 5066      33325F74 
 5066      00
 5067              	.LASF14:
 5068 01e8 696E7438 		.ascii	"int8_t\000"
 5068      5F7400
 5069              	.LASF112:
 5070 01ef 67657449 		.ascii	"getIR\000"
 5070      5200
 5071              	.LASF19:
 5072 01f5 666C6F61 		.ascii	"float\000"
 5072      7400
ARM GAS  C:\Users\Perro\AppData\Local\Temp\ccDnyon7.s 			page 106


 5073              	.LASF37:
 5074 01fb 4D415833 		.ascii	"MAX30101_IsTempReady\000"
 5074      30313031 
 5074      5F497354 
 5074      656D7052 
 5074      65616479 
 5075              	.LASF12:
 5076 0210 6C6F6E67 		.ascii	"long long unsigned int\000"
 5076      206C6F6E 
 5076      6720756E 
 5076      7369676E 
 5076      65642069 
 5077              	.LASF45:
 5078 0227 4D415833 		.ascii	"MAX30101_DisableTempReadyInt\000"
 5078      30313031 
 5078      5F446973 
 5078      61626C65 
 5078      54656D70 
 5079              	.LASF81:
 5080 0244 7265675F 		.ascii	"reg_data\000"
 5080      64617461 
 5080      00
 5081              	.LASF5:
 5082 024d 5F5F7569 		.ascii	"__uint16_t\000"
 5082      6E743136 
 5082      5F7400
 5083              	.LASF102:
 5084 0258 76616C75 		.ascii	"value\000"
 5084      6500
 5085              	.LASF93:
 5086 025e 4D415833 		.ascii	"MAX30101_ReadRevisionID\000"
 5086      30313031 
 5086      5F526561 
 5086      64526576 
 5086      6973696F 
 5087              	.LASF58:
 5088 0276 4D415833 		.ascii	"MAX30101_ReadRawFIFO\000"
 5088      30313031 
 5088      5F526561 
 5088      64526177 
 5088      4649464F 
 5089              	.LASF85:
 5090 028b 4D415833 		.ascii	"MAX30101_ReadTemperature\000"
 5090      30313031 
 5090      5F526561 
 5090      6454656D 
 5090      70657261 
 5091              	.LASF84:
 5092 02a4 4D415833 		.ascii	"MAX30101_DisableSlots\000"
 5092      30313031 
 5092      5F446973 
 5092      61626C65 
 5092      536C6F74 
 5093              	.LASF99:
 5094 02ba 7072696E 		.ascii	"print_fun\000"
 5094      745F6675 
 5094      6E00
ARM GAS  C:\Users\Perro\AppData\Local\Temp\ccDnyon7.s 			page 107


 5095              	.LASF41:
 5096 02c4 4D415833 		.ascii	"MAX30101_EnableTempReadyInt\000"
 5096      30313031 
 5096      5F456E61 
 5096      626C6554 
 5096      656D7052 
 5097              	.LASF77:
 5098 02e0 4D415833 		.ascii	"MAX30101_SetSpO2SampleRate\000"
 5098      30313031 
 5098      5F536574 
 5098      53704F32 
 5098      53616D70 
 5099              	.LASF55:
 5100 02fb 6E756D5F 		.ascii	"num_samples\000"
 5100      73616D70 
 5100      6C657300 
 5101              	.LASF82:
 5102 0307 4D415833 		.ascii	"MAX30101_EnableSlot\000"
 5102      30313031 
 5102      5F456E61 
 5102      626C6553 
 5102      6C6F7400 
 5103              	.LASF89:
 5104 031b 4D415833 		.ascii	"MAX30101_ReadRawTemperature\000"
 5104      30313031 
 5104      5F526561 
 5104      64526177 
 5104      54656D70 
 5105              	.LASF54:
 5106 0337 4D415833 		.ascii	"MAX30101_ReadRawFIFOBytes\000"
 5106      30313031 
 5106      5F526561 
 5106      64526177 
 5106      4649464F 
 5107              	.LASF106:
 5108 0351 7468696E 		.ascii	"thing\000"
 5108      6700
 5109              	.LASF68:
 5110 0357 4D415833 		.ascii	"MAX30101_DisableFIFORollover\000"
 5110      30313031 
 5110      5F446973 
 5110      61626C65 
 5110      4649464F 
 5111              	.LASF21:
 5112 0374 63686172 		.ascii	"char\000"
 5112      00
 5113              	.LASF36:
 5114 0379 4D415833 		.ascii	"MAX30101_IsPowerReady\000"
 5114      30313031 
 5114      5F497350 
 5114      6F776572 
 5114      52656164 
 5115              	.LASF100:
 5116 038f 7265675F 		.ascii	"reg_list\000"
 5116      6C697374 
 5116      00
 5117              	.LASF56:
ARM GAS  C:\Users\Perro\AppData\Local\Temp\ccDnyon7.s 			page 108


 5118 0398 64617461 		.ascii	"data\000"
 5118      00
 5119              	.LASF108:
 5120 039d 67657446 		.ascii	"getFIFOIR\000"
 5120      49464F49 
 5120      5200
 5121              	.LASF64:
 5122 03a7 7265736F 		.ascii	"resolution\000"
 5122      6C757469 
 5122      6F6E00
 5123              	.LASF15:
 5124 03b2 75696E74 		.ascii	"uint8_t\000"
 5124      385F7400 
 5125              	.LASF80:
 5126 03ba 6C65645F 		.ascii	"led_channel\000"
 5126      6368616E 
 5126      6E656C00 
 5127              	.LASF73:
 5128 03c6 4D415833 		.ascii	"MAX30101_SetMode\000"
 5128      30313031 
 5128      5F536574 
 5128      4D6F6465 
 5128      00
 5129              	.LASF107:
 5130 03d7 67657446 		.ascii	"getFIFORed\000"
 5130      49464F52 
 5130      656400
 5131              	.LASF66:
 5132 03e2 73616D70 		.ascii	"samples\000"
 5132      6C657300 
 5133              	.LASF11:
 5134 03ea 6C6F6E67 		.ascii	"long long int\000"
 5134      206C6F6E 
 5134      6720696E 
 5134      7400
 5135              	.LASF67:
 5136 03f8 4D415833 		.ascii	"MAX30101_EnableFIFORollover\000"
 5136      30313031 
 5136      5F456E61 
 5136      626C6546 
 5136      49464F52 
 5137              	.LASF95:
 5138 0414 4D415833 		.ascii	"MAX30101_ReadRegister\000"
 5138      30313031 
 5138      5F526561 
 5138      64526567 
 5138      69737465 
 5139              	.LASF75:
 5140 042a 4D415833 		.ascii	"MAX30101_SetSpO2ADCRange\000"
 5140      30313031 
 5140      5F536574 
 5140      53704F32 
 5140      41444352 
 5141              	.LASF91:
 5142 0443 4D415833 		.ascii	"MAX30101_ReadPartID\000"
 5142      30313031 
 5142      5F526561 
ARM GAS  C:\Users\Perro\AppData\Local\Temp\ccDnyon7.s 			page 109


 5142      64506172 
 5142      74494400 
 5143              	.LASF29:
 5144 0457 4D415833 		.ascii	"MAX30101_IsDevicePresent\000"
 5144      30313031 
 5144      5F497344 
 5144      65766963 
 5144      65507265 
 5145              	.LASF27:
 5146 0470 4D415833 		.ascii	"MAX30101_Data\000"
 5146      30313031 
 5146      5F446174 
 5146      6100
 5147              	.LASF92:
 5148 047e 70617274 		.ascii	"part_id\000"
 5148      5F696400 
 5149              	.LASF39:
 5150 0486 4D415833 		.ascii	"MAX30101_EnablePPGReadyInt\000"
 5150      30313031 
 5150      5F456E61 
 5150      626C6550 
 5150      50475265 
 5151              	.LASF76:
 5152 04a1 72616E67 		.ascii	"range\000"
 5152      6500
 5153              	.LASF105:
 5154 04a7 6D61736B 		.ascii	"mask\000"
 5154      00
 5155              	.LASF0:
 5156 04ac 5F5F696E 		.ascii	"__int8_t\000"
 5156      74385F74 
 5156      00
 5157              	.LASF24:
 5158 04b5 67726565 		.ascii	"green\000"
 5158      6E00
 5159              	.LASF111:
 5160 04bb 67657449 		.ascii	"getIR_n\000"
 5160      525F6E00 
 5161              	.LASF22:
 5162 04c3 6C6F6E67 		.ascii	"long double\000"
 5162      20646F75 
 5162      626C6500 
 5163              	.LASF16:
 5164 04cf 75696E74 		.ascii	"uint16_t\000"
 5164      31365F74 
 5164      00
 5165              	.LASF61:
 5166 04d8 74656D70 		.ascii	"temp_bytes\000"
 5166      5F627974 
 5166      657300
 5167              	.LASF4:
 5168 04e3 73686F72 		.ascii	"short int\000"
 5168      7420696E 
 5168      7400
 5169              	.LASF53:
 5170 04ed 6669666F 		.ascii	"fifo_values\000"
 5170      5F76616C 
ARM GAS  C:\Users\Perro\AppData\Local\Temp\ccDnyon7.s 			page 110


 5170      75657300 
 5171              	.LASF96:
 5172 04f9 7265675F 		.ascii	"reg_addr\000"
 5172      61646472 
 5172      00
 5173              	.LASF8:
 5174 0502 6C6F6E67 		.ascii	"long int\000"
 5174      20696E74 
 5174      00
 5175              	.LASF114:
 5176 050b 49544D5F 		.ascii	"ITM_RxBuffer\000"
 5176      52784275 
 5176      66666572 
 5176      00
 5177              	.LASF65:
 5178 0518 4D415833 		.ascii	"MAX30101_SetSampleAverage\000"
 5178      30313031 
 5178      5F536574 
 5178      53616D70 
 5178      6C654176 
 5179              	.LASF30:
 5180 0532 74656D70 		.ascii	"temp\000"
 5180      00
 5181              	.LASF50:
 5182 0537 74656D70 		.ascii	"temp_value\000"
 5182      5F76616C 
 5182      756500
 5183              	.LASF34:
 5184 0542 666C6167 		.ascii	"flag\000"
 5184      00
 5185              	.LASF60:
 5186 0547 62797465 		.ascii	"bytes_to_get\000"
 5186      735F746F 
 5186      5F676574 
 5186      00
 5187              	.LASF113:
 5188 0554 67657452 		.ascii	"getRED\000"
 5188      454400
 5189              	.LASF110:
 5190 055b 73616D70 		.ascii	"samples_FIFO\000"
 5190      6C65735F 
 5190      4649464F 
 5190      00
 5191              	.LASF33:
 5192 0568 4D415833 		.ascii	"MAX30101_IsPPGReady\000"
 5192      30313031 
 5192      5F497350 
 5192      50475265 
 5192      61647900 
 5193              	.LASF1:
 5194 057c 5F5F7569 		.ascii	"__uint8_t\000"
 5194      6E74385F 
 5194      7400
 5195              	.LASF90:
 5196 0586 4D415833 		.ascii	"MAX30101_StartTemperatureConversion\000"
 5196      30313031 
 5196      5F537461 
ARM GAS  C:\Users\Perro\AppData\Local\Temp\ccDnyon7.s 			page 111


 5196      72745465 
 5196      6D706572 
 5197              	.LASF63:
 5198 05aa 4D415833 		.ascii	"MAX30101_ReadFIFO\000"
 5198      30313031 
 5198      5F526561 
 5198      64464946 
 5198      4F00
 5199              	.LASF23:
 5200 05bc 73697A65 		.ascii	"sizetype\000"
 5200      74797065 
 5200      00
 5201              	.LASF10:
 5202 05c5 6C6F6E67 		.ascii	"long unsigned int\000"
 5202      20756E73 
 5202      69676E65 
 5202      6420696E 
 5202      7400
 5203              	.LASF97:
 5204 05d7 7265675F 		.ascii	"reg_value\000"
 5204      76616C75 
 5204      6500
 5205              	.LASF17:
 5206 05e1 696E7433 		.ascii	"int32_t\000"
 5206      325F7400 
 5207              	.LASF103:
 5208 05e9 4D415833 		.ascii	"MAX30101_WriteRegister\000"
 5208      30313031 
 5208      5F577269 
 5208      74655265 
 5208      67697374 
 5209              	.LASF71:
 5210 0600 4D415833 		.ascii	"MAX30101_WakeUp\000"
 5210      30313031 
 5210      5F57616B 
 5210      65557000 
 5211              	.LASF52:
 5212 0610 61637469 		.ascii	"active_leds\000"
 5212      76655F6C 
 5212      65647300 
 5213              	.LASF40:
 5214 061c 4D415833 		.ascii	"MAX30101_EnableALCOverflowInt\000"
 5214      30313031 
 5214      5F456E61 
 5214      626C6541 
 5214      4C434F76 
 5215              	.LASF48:
 5216 063a 4D415833 		.ascii	"MAX30101_ReadReadPointer\000"
 5216      30313031 
 5216      5F526561 
 5216      64526561 
 5216      64506F69 
 5217              	.LASF3:
 5218 0653 756E7369 		.ascii	"unsigned char\000"
 5218      676E6564 
 5218      20636861 
 5218      7200
ARM GAS  C:\Users\Perro\AppData\Local\Temp\ccDnyon7.s 			page 112


 5219              	.LASF9:
 5220 0661 5F5F7569 		.ascii	"__uint32_t\000"
 5220      6E743332 
 5220      5F7400
 5221              	.LASF79:
 5222 066c 4D415833 		.ascii	"MAX30101_SetLEDPulseAmplitude\000"
 5222      30313031 
 5222      5F536574 
 5222      4C454450 
 5222      756C7365 
 5223              	.LASF49:
 5224 068a 4D415833 		.ascii	"MAX30101_ClearFIFO\000"
 5224      30313031 
 5224      5F436C65 
 5224      61724649 
 5224      464F00
 5225              	.LASF116:
 5226 069d 4D415833 		.ascii	"MAX30101.c\000"
 5226      30313031 
 5226      2E6300
 5227              	.LASF26:
 5228 06a8 7461696C 		.ascii	"tail\000"
 5228      00
 5229              	.LASF104:
 5230 06ad 4D415833 		.ascii	"MAX30101_BitMask\000"
 5230      30313031 
 5230      5F426974 
 5230      4D61736B 
 5230      00
 5231              	.LASF42:
 5232 06be 4D415833 		.ascii	"MAX30101_DisableFIFOAFullInt\000"
 5232      30313031 
 5232      5F446973 
 5232      61626C65 
 5232      4649464F 
 5233              	.LASF43:
 5234 06db 4D415833 		.ascii	"MAX30101_DisablePPGReadyInt\000"
 5234      30313031 
 5234      5F446973 
 5234      61626C65 
 5234      50504752 
 5235              	.LASF2:
 5236 06f7 7369676E 		.ascii	"signed char\000"
 5236      65642063 
 5236      68617200 
 5237              	.LASF32:
 5238 0703 4D415833 		.ascii	"MAX30101_IsFIFOAFull\000"
 5238      30313031 
 5238      5F497346 
 5238      49464F41 
 5238      46756C6C 
 5239              	.LASF6:
 5240 0718 73686F72 		.ascii	"short unsigned int\000"
 5240      7420756E 
 5240      7369676E 
 5240      65642069 
 5240      6E7400
ARM GAS  C:\Users\Perro\AppData\Local\Temp\ccDnyon7.s 			page 113


 5241              	.LASF70:
 5242 072b 4D415833 		.ascii	"MAX30101_Shutdown\000"
 5242      30313031 
 5242      5F536875 
 5242      74646F77 
 5242      6E00
 5243              	.LASF57:
 5244 073d 62797465 		.ascii	"bytes_left_ro_read\000"
 5244      735F6C65 
 5244      66745F72 
 5244      6F5F7265 
 5244      616400
 5245              	.LASF20:
 5246 0750 646F7562 		.ascii	"double\000"
 5246      6C6500
 5247              	.LASF38:
 5248 0757 4D415833 		.ascii	"MAX30101_EnableFIFOAFullInt\000"
 5248      30313031 
 5248      5F456E61 
 5248      626C6546 
 5248      49464F41 
 5249              	.LASF35:
 5250 0773 4D415833 		.ascii	"MAX30101_IsALCOverflow\000"
 5250      30313031 
 5250      5F497341 
 5250      4C434F76 
 5250      6572666C 
 5251              	.LASF117:
 5252 078a 433A5C55 		.ascii	"C:\\Users\\Perro\\Desktop\\AY2122_II_Project-1\\Pro"
 5252      73657273 
 5252      5C506572 
 5252      726F5C44 
 5252      65736B74 
 5253 07b8 6A656374 		.ascii	"ject_LTEBS\\Saturimetro.cydsn\000"
 5253      5F4C5445 
 5253      42535C53 
 5253      61747572 
 5253      696D6574 
 5254              	.LASF59:
 5255 07d5 73616D70 		.ascii	"sample_counter\000"
 5255      6C655F63 
 5255      6F756E74 
 5255      657200
 5256              		.ident	"GCC: (GNU Tools for ARM Embedded Processors) 5.4.1 20160609 (release) [ARM/embedded-5-bran
