ARM GAS  C:\Users\Perro\AppData\Local\Temp\ccIAP1sw.s 			page 1


   1              		.syntax unified
   2              		.cpu cortex-m3
   3              		.fpu softvfp
   4              		.eabi_attribute 20, 1
   5              		.eabi_attribute 21, 1
   6              		.eabi_attribute 23, 3
   7              		.eabi_attribute 24, 1
   8              		.eabi_attribute 25, 1
   9              		.eabi_attribute 26, 1
  10              		.eabi_attribute 30, 6
  11              		.eabi_attribute 34, 1
  12              		.eabi_attribute 18, 4
  13              		.thumb
  14              		.syntax unified
  15              		.file	"setting_parameters.c"
  16              		.text
  17              	.Ltext0:
  18              		.cfi_sections	.debug_frame
  19              		.comm	data,388,4
  20              		.comm	ADC_range,2,2
  21              		.comm	Samples,2,2
  22              		.comm	Pulse_width,2,2
  23              		.comm	Pulse_amp,2,2
  24              		.comm	Average,2,2
  25              		.comm	flag_ADC,1,1
  26              		.comm	flag_PW,1,1
  27              		.comm	flag_PA,1,1
  28              		.comm	flag_SR,1,1
  29              		.section	.text.setting_parameters,"ax",%progbits
  30              		.align	2
  31              		.global	setting_parameters
  32              		.thumb
  33              		.thumb_func
  34              		.type	setting_parameters, %function
  35              	setting_parameters:
  36              	.LFB63:
  37              		.file 1 "setting_parameters.c"
   1:setting_parameters.c **** /* ========================================
   2:setting_parameters.c ****  *
   3:setting_parameters.c ****  * Copyright YOUR COMPANY, THE YEAR
   4:setting_parameters.c ****  * All Rights Reserved
   5:setting_parameters.c ****  * UNPUBLISHED, LICENSED SOFTWARE.
   6:setting_parameters.c ****  *
   7:setting_parameters.c ****  * CONFIDENTIAL AND PROPRIETARY INFORMATION
   8:setting_parameters.c ****  * WHICH IS THE PROPERTY OF your company.
   9:setting_parameters.c ****  *
  10:setting_parameters.c ****  * ========================================
  11:setting_parameters.c **** */
  12:setting_parameters.c **** #include "project.h"
  13:setting_parameters.c **** #include "MAX30101.h"
  14:setting_parameters.c **** #include "USER.h"
  15:setting_parameters.c **** #include "parameters.h"
  16:setting_parameters.c **** #include "setting_parameters.h"
  17:setting_parameters.c **** 
  18:setting_parameters.c **** #define FIFO_max_size 25
  19:setting_parameters.c **** 
  20:setting_parameters.c **** extern uint8_t j;
ARM GAS  C:\Users\Perro\AppData\Local\Temp\ccIAP1sw.s 			page 2


  21:setting_parameters.c **** 
  22:setting_parameters.c **** void setting_parameters( uint16 ADC_range, uint16 Pulse_width, uint16 Pulse_amp, uint16 Sample_rate
  23:setting_parameters.c **** {
  38              		.loc 1 23 0
  39              		.cfi_startproc
  40              		@ args = 4, pretend = 0, frame = 8
  41              		@ frame_needed = 1, uses_anonymous_args = 0
  42 0000 90B5     		push	{r4, r7, lr}
  43              		.cfi_def_cfa_offset 12
  44              		.cfi_offset 4, -12
  45              		.cfi_offset 7, -8
  46              		.cfi_offset 14, -4
  47 0002 83B0     		sub	sp, sp, #12
  48              		.cfi_def_cfa_offset 24
  49 0004 00AF     		add	r7, sp, #0
  50              		.cfi_def_cfa_register 7
  51 0006 0446     		mov	r4, r0
  52 0008 0846     		mov	r0, r1
  53 000a 1146     		mov	r1, r2
  54 000c 1A46     		mov	r2, r3
  55 000e 2346     		mov	r3, r4	@ movhi
  56 0010 FB80     		strh	r3, [r7, #6]	@ movhi
  57 0012 0346     		mov	r3, r0	@ movhi
  58 0014 BB80     		strh	r3, [r7, #4]	@ movhi
  59 0016 0B46     		mov	r3, r1	@ movhi
  60 0018 7B80     		strh	r3, [r7, #2]	@ movhi
  61 001a 1346     		mov	r3, r2	@ movhi
  62 001c 3B80     		strh	r3, [r7]	@ movhi
  24:setting_parameters.c ****     MAX30101_Shutdown();
  63              		.loc 1 24 0
  64 001e FFF7FEFF 		bl	MAX30101_Shutdown
  25:setting_parameters.c ****     MAX30101_Reset();
  65              		.loc 1 25 0
  66 0022 FFF7FEFF 		bl	MAX30101_Reset
  26:setting_parameters.c ****     
  27:setting_parameters.c ****     // Wake up sensor
  28:setting_parameters.c ****     MAX30101_WakeUp();        
  67              		.loc 1 28 0
  68 0026 FFF7FEFF 		bl	MAX30101_WakeUp
  29:setting_parameters.c ****     MAX30101_EnableFIFOAFullInt();
  69              		.loc 1 29 0
  70 002a FFF7FEFF 		bl	MAX30101_EnableFIFOAFullInt
  30:setting_parameters.c ****  
  31:setting_parameters.c ****     // set 25 samples to trigger interrupt
  32:setting_parameters.c ****     MAX30101_SetFIFOAlmostFull(FIFO_max_size);
  71              		.loc 1 32 0
  72 002e 1920     		movs	r0, #25
  73 0030 FFF7FEFF 		bl	MAX30101_SetFIFOAlmostFull
  33:setting_parameters.c **** 
  34:setting_parameters.c ****     // enable fifo rollover
  35:setting_parameters.c ****     MAX30101_EnableFIFORollover();
  74              		.loc 1 35 0
  75 0034 FFF7FEFF 		bl	MAX30101_EnableFIFORollover
  36:setting_parameters.c ****     
  37:setting_parameters.c ****     // samples averaged       
  38:setting_parameters.c ****     MAX30101_SetSampleAverage(Samples);
  76              		.loc 1 38 0
ARM GAS  C:\Users\Perro\AppData\Local\Temp\ccIAP1sw.s 			page 3


  77 0038 3B8B     		ldrh	r3, [r7, #24]	@ movhi
  78 003a DBB2     		uxtb	r3, r3
  79 003c 1846     		mov	r0, r3
  80 003e FFF7FEFF 		bl	MAX30101_SetSampleAverage
  39:setting_parameters.c ****     // Set LED Power level
  40:setting_parameters.c ****     MAX30101_SetLEDPulseAmplitude(MAX30101_LED_1,Pulse_amp);        
  81              		.loc 1 40 0
  82 0042 7B88     		ldrh	r3, [r7, #2]	@ movhi
  83 0044 DBB2     		uxtb	r3, r3
  84 0046 1946     		mov	r1, r3
  85 0048 0020     		movs	r0, #0
  86 004a FFF7FEFF 		bl	MAX30101_SetLEDPulseAmplitude
  41:setting_parameters.c ****     MAX30101_SetLEDPulseAmplitude(MAX30101_LED_2,Pulse_amp); 
  87              		.loc 1 41 0
  88 004e 7B88     		ldrh	r3, [r7, #2]	@ movhi
  89 0050 DBB2     		uxtb	r3, r3
  90 0052 1946     		mov	r1, r3
  91 0054 0120     		movs	r0, #1
  92 0056 FFF7FEFF 		bl	MAX30101_SetLEDPulseAmplitude
  42:setting_parameters.c ****            
  43:setting_parameters.c ****     // Set ADC Range
  44:setting_parameters.c ****     MAX30101_SetSpO2ADCRange(ADC_range);
  93              		.loc 1 44 0
  94 005a FB88     		ldrh	r3, [r7, #6]	@ movhi
  95 005c DBB2     		uxtb	r3, r3
  96 005e 1846     		mov	r0, r3
  97 0060 FFF7FEFF 		bl	MAX30101_SetSpO2ADCRange
  45:setting_parameters.c ****    
  46:setting_parameters.c ****     
  47:setting_parameters.c ****     // Pulse width
  48:setting_parameters.c ****     MAX30101_SetSpO2PulseWidth(Pulse_width);
  98              		.loc 1 48 0
  99 0064 BB88     		ldrh	r3, [r7, #4]	@ movhi
 100 0066 DBB2     		uxtb	r3, r3
 101 0068 1846     		mov	r0, r3
 102 006a FFF7FEFF 		bl	MAX30101_SetSpO2PulseWidth
  49:setting_parameters.c ****     
  50:setting_parameters.c ****     // Set Sample Rate
  51:setting_parameters.c ****     MAX30101_SetSpO2SampleRate(Sample_rate);
 103              		.loc 1 51 0
 104 006e 3B88     		ldrh	r3, [r7]	@ movhi
 105 0070 DBB2     		uxtb	r3, r3
 106 0072 1846     		mov	r0, r3
 107 0074 FFF7FEFF 		bl	MAX30101_SetSpO2SampleRate
  52:setting_parameters.c ****     
  53:setting_parameters.c ****     // Set mode
  54:setting_parameters.c ****     MAX30101_SetMode(MAX30101_SPO2_MODE);
 108              		.loc 1 54 0
 109 0078 0320     		movs	r0, #3
 110 007a FFF7FEFF 		bl	MAX30101_SetMode
  55:setting_parameters.c ****     
  56:setting_parameters.c ****     // Enable Slots
  57:setting_parameters.c ****     MAX30101_DisableSlots();
 111              		.loc 1 57 0
 112 007e FFF7FEFF 		bl	MAX30101_DisableSlots
  58:setting_parameters.c ****     
  59:setting_parameters.c ****     //debug_print("ADC RANGE 2048\r\n");
ARM GAS  C:\Users\Perro\AppData\Local\Temp\ccIAP1sw.s 			page 4


  60:setting_parameters.c ****     j=0;
 113              		.loc 1 60 0
 114 0082 084B     		ldr	r3, .L2
 115 0084 0022     		movs	r2, #0
 116 0086 1A70     		strb	r2, [r3]
  61:setting_parameters.c **** 
  62:setting_parameters.c ****     //MAX30101_INT_ClearInterrupt();
  63:setting_parameters.c ****     MAX30101_ClearFIFO();
 117              		.loc 1 63 0
 118 0088 FFF7FEFF 		bl	MAX30101_ClearFIFO
  64:setting_parameters.c ****     MAX30101_WakeUp(); 
 119              		.loc 1 64 0
 120 008c FFF7FEFF 		bl	MAX30101_WakeUp
  65:setting_parameters.c ****     CyDelay(100);
 121              		.loc 1 65 0
 122 0090 6420     		movs	r0, #100
 123 0092 FFF7FEFF 		bl	CyDelay
  66:setting_parameters.c ****     
  67:setting_parameters.c ****     ADC_range = 0;
 124              		.loc 1 67 0
 125 0096 0023     		movs	r3, #0
 126 0098 FB80     		strh	r3, [r7, #6]	@ movhi
  68:setting_parameters.c **** }
 127              		.loc 1 68 0
 128 009a 00BF     		nop
 129 009c 0C37     		adds	r7, r7, #12
 130              		.cfi_def_cfa_offset 12
 131 009e BD46     		mov	sp, r7
 132              		.cfi_def_cfa_register 13
 133              		@ sp needed
 134 00a0 90BD     		pop	{r4, r7, pc}
 135              	.L3:
 136 00a2 00BF     		.align	2
 137              	.L2:
 138 00a4 00000000 		.word	j
 139              		.cfi_endproc
 140              	.LFE63:
 141              		.size	setting_parameters, .-setting_parameters
 142              		.text
 143              	.Letext0:
 144              		.file 2 "c:\\program files (x86)\\cypress\\psoc creator\\4.4\\psoc creator\\import\\gnu\\arm\\5.4.
 145              		.file 3 "c:\\program files (x86)\\cypress\\psoc creator\\4.4\\psoc creator\\import\\gnu\\arm\\5.4.
 146              		.file 4 "Generated_Source\\PSoC5/cytypes.h"
 147              		.file 5 "MAX30101.h"
 148              		.file 6 "Generated_Source\\PSoC5/core_cm3.h"
 149              		.file 7 "setting_parameters.h"