ARM GAS  C:\Users\Perro\AppData\Local\Temp\ccKdlVdp.s 			page 1


   1              		.syntax unified
   2              		.cpu cortex-m3
   3              		.fpu softvfp
   4              		.eabi_attribute 20, 1
   5              		.eabi_attribute 21, 1
   6              		.eabi_attribute 23, 3
   7              		.eabi_attribute 24, 1
   8              		.eabi_attribute 25, 1
   9              		.eabi_attribute 26, 1
  10              		.eabi_attribute 30, 6
  11              		.eabi_attribute 34, 1
  12              		.eabi_attribute 18, 4
  13              		.thumb
  14              		.syntax unified
  15              		.file	"USER.c"
  16              		.text
  17              	.Ltext0:
  18              		.cfi_sections	.debug_frame
  19              		.comm	data,388,4
  20              		.comm	ADC_range,2,2
  21              		.comm	Samples,2,2
  22              		.comm	Pulse_width,2,2
  23              		.comm	Pulse_amp,2,2
  24              		.comm	Average,2,2
  25              		.comm	flag_ADC,1,1
  26              		.comm	flag_PW,1,1
  27              		.comm	flag_PA,1,1
  28              		.comm	flag_SR,1,1
  29              		.global	print_ptr
  30              		.data
  31              		.align	2
  32              		.type	print_ptr, %object
  33              		.size	print_ptr, 4
  34              	print_ptr:
  35 0000 00000000 		.word	UART_Debug_PutString
  36              		.section	.text.USER,"ax",%progbits
  37              		.align	2
  38              		.global	USER
  39              		.thumb
  40              		.thumb_func
  41              		.type	USER, %function
  42              	USER:
  43              	.LFB63:
  44              		.file 1 "USER.c"
   1:USER.c        **** #include "project.h"
   2:USER.c        **** #include "MAX30101.h"
   3:USER.c        **** #include "USER.h"
   4:USER.c        **** #include "parameters.h"
   5:USER.c        **** #include "setting_parameters.h"
   6:USER.c        **** 
   7:USER.c        **** #define UART_DEBUG
   8:USER.c        **** 
   9:USER.c        **** #ifdef UART_DEBUG
  10:USER.c        ****     
  11:USER.c        ****     #define DEBUG_TEST 1
  12:USER.c        ****     
  13:USER.c        **** #else
ARM GAS  C:\Users\Perro\AppData\Local\Temp\ccKdlVdp.s 			page 2


  14:USER.c        ****     
  15:USER.c        ****     #define DEBUG_TEST 0
  16:USER.c        ****     
  17:USER.c        **** #endif
  18:USER.c        **** 
  19:USER.c        **** #define debug_print(msg) do { if (DEBUG_TEST) UART_Debug_PutString(msg);} while (0)
  20:USER.c        **** #define FIFO_max_size 25
  21:USER.c        **** 
  22:USER.c        **** void (*print_ptr)(const char*) = &(UART_Debug_PutString);
  23:USER.c        **** extern uint8_t j;
  24:USER.c        **** 
  25:USER.c        **** void USER(uint8 x)
  26:USER.c        **** {
  45              		.loc 1 26 0
  46              		.cfi_startproc
  47              		@ args = 0, pretend = 0, frame = 8
  48              		@ frame_needed = 1, uses_anonymous_args = 0
  49              		@ link register save eliminated.
  50 0000 80B4     		push	{r7}
  51              		.cfi_def_cfa_offset 4
  52              		.cfi_offset 7, -4
  53 0002 83B0     		sub	sp, sp, #12
  54              		.cfi_def_cfa_offset 16
  55 0004 00AF     		add	r7, sp, #0
  56              		.cfi_def_cfa_register 7
  57 0006 0346     		mov	r3, r0
  58 0008 FB71     		strb	r3, [r7, #7]
  27:USER.c        ****     switch (x) {
  59              		.loc 1 27 0
  60 000a FB79     		ldrb	r3, [r7, #7]	@ zero_extendqisi2
  61 000c 413B     		subs	r3, r3, #65
  62 000e 392B     		cmp	r3, #57
  63 0010 00F24881 		bhi	.L32
  64 0014 01A2     		adr	r2, .L4
  65 0016 52F823F0 		ldr	pc, [r2, r3, lsl #2]
  66 001a 00BF     		.p2align 2
  67              	.L4:
  68 001c 43020000 		.word	.L3+1
  69 0020 51020000 		.word	.L5+1
  70 0024 5F020000 		.word	.L6+1
  71 0028 6D020000 		.word	.L7+1
  72 002c 7B020000 		.word	.L8+1
  73 0030 89020000 		.word	.L9+1
  74 0034 97020000 		.word	.L10+1
  75 0038 A5020000 		.word	.L32+1
  76 003c A5020000 		.word	.L32+1
  77 0040 A5020000 		.word	.L32+1
  78 0044 A5020000 		.word	.L32+1
  79 0048 A5020000 		.word	.L32+1
  80 004c A5020000 		.word	.L32+1
  81 0050 A5020000 		.word	.L32+1
  82 0054 A5020000 		.word	.L32+1
  83 0058 A5020000 		.word	.L32+1
  84 005c A5020000 		.word	.L32+1
  85 0060 A5020000 		.word	.L32+1
  86 0064 A5020000 		.word	.L32+1
  87 0068 A5020000 		.word	.L32+1
ARM GAS  C:\Users\Perro\AppData\Local\Temp\ccKdlVdp.s 			page 3


  88 006c A5020000 		.word	.L32+1
  89 0070 A5020000 		.word	.L32+1
  90 0074 A5020000 		.word	.L32+1
  91 0078 A5020000 		.word	.L32+1
  92 007c A5020000 		.word	.L32+1
  93 0080 A5020000 		.word	.L32+1
  94 0084 A5020000 		.word	.L32+1
  95 0088 A5020000 		.word	.L32+1
  96 008c A5020000 		.word	.L32+1
  97 0090 A5020000 		.word	.L32+1
  98 0094 A5020000 		.word	.L32+1
  99 0098 A5020000 		.word	.L32+1
 100 009c 05010000 		.word	.L11+1
 101 00a0 13010000 		.word	.L12+1
 102 00a4 21010000 		.word	.L13+1
 103 00a8 2F010000 		.word	.L14+1
 104 00ac 3D010000 		.word	.L15+1
 105 00b0 51010000 		.word	.L16+1
 106 00b4 65010000 		.word	.L17+1
 107 00b8 79010000 		.word	.L18+1
 108 00bc 8D010000 		.word	.L19+1
 109 00c0 A5020000 		.word	.L32+1
 110 00c4 A5020000 		.word	.L32+1
 111 00c8 9B010000 		.word	.L20+1
 112 00cc A9010000 		.word	.L21+1
 113 00d0 B7010000 		.word	.L22+1
 114 00d4 C5010000 		.word	.L23+1
 115 00d8 D3010000 		.word	.L24+1
 116 00dc E1010000 		.word	.L25+1
 117 00e0 EF010000 		.word	.L26+1
 118 00e4 FD010000 		.word	.L27+1
 119 00e8 0B020000 		.word	.L28+1
 120 00ec 19020000 		.word	.L29+1
 121 00f0 27020000 		.word	.L30+1
 122 00f4 A5020000 		.word	.L32+1
 123 00f8 A5020000 		.word	.L32+1
 124 00fc A5020000 		.word	.L32+1
 125 0100 35020000 		.word	.L31+1
 126              		.p2align 1
 127              	.L11:
  28:USER.c        ****         
  29:USER.c        ****         //ADC range
  30:USER.c        ****         case 'a':
  31:USER.c        ****         ADC_range = MAX30101_ADC_RANGE_2048;
 128              		.loc 1 31 0
 129 0104 6A4B     		ldr	r3, .L33
 130 0106 0022     		movs	r2, #0
 131 0108 1A80     		strh	r2, [r3]	@ movhi
  32:USER.c        ****         flag_ADC = 1;
 132              		.loc 1 32 0
 133 010a 6A4B     		ldr	r3, .L33+4
 134 010c 0122     		movs	r2, #1
 135 010e 1A70     		strb	r2, [r3]
  33:USER.c        ****         break;
 136              		.loc 1 33 0
 137 0110 C8E0     		b	.L2
 138              	.L12:
ARM GAS  C:\Users\Perro\AppData\Local\Temp\ccKdlVdp.s 			page 4


  34:USER.c        ****         
  35:USER.c        ****         case 'b':
  36:USER.c        ****         ADC_range = MAX30101_ADC_RANGE_4096;
 139              		.loc 1 36 0
 140 0112 674B     		ldr	r3, .L33
 141 0114 2022     		movs	r2, #32
 142 0116 1A80     		strh	r2, [r3]	@ movhi
  37:USER.c        ****         flag_ADC = 1;
 143              		.loc 1 37 0
 144 0118 664B     		ldr	r3, .L33+4
 145 011a 0122     		movs	r2, #1
 146 011c 1A70     		strb	r2, [r3]
  38:USER.c        ****         break;
 147              		.loc 1 38 0
 148 011e C1E0     		b	.L2
 149              	.L13:
  39:USER.c        ****         
  40:USER.c        ****         case 'c':
  41:USER.c        ****         ADC_range = MAX30101_ADC_RANGE_8192;
 150              		.loc 1 41 0
 151 0120 634B     		ldr	r3, .L33
 152 0122 4022     		movs	r2, #64
 153 0124 1A80     		strh	r2, [r3]	@ movhi
  42:USER.c        ****         flag_ADC = 1;
 154              		.loc 1 42 0
 155 0126 634B     		ldr	r3, .L33+4
 156 0128 0122     		movs	r2, #1
 157 012a 1A70     		strb	r2, [r3]
  43:USER.c        ****         break;
 158              		.loc 1 43 0
 159 012c BAE0     		b	.L2
 160              	.L14:
  44:USER.c        ****         
  45:USER.c        ****         case 'd':
  46:USER.c        ****         ADC_range = MAX30101_ADC_RANGE_16384;
 161              		.loc 1 46 0
 162 012e 604B     		ldr	r3, .L33
 163 0130 6022     		movs	r2, #96
 164 0132 1A80     		strh	r2, [r3]	@ movhi
  47:USER.c        ****         flag_ADC = 1;
 165              		.loc 1 47 0
 166 0134 5F4B     		ldr	r3, .L33+4
 167 0136 0122     		movs	r2, #1
 168 0138 1A70     		strb	r2, [r3]
  48:USER.c        ****         break;
 169              		.loc 1 48 0
 170 013a B3E0     		b	.L2
 171              	.L15:
  49:USER.c        ****         
  50:USER.c        ****         
  51:USER.c        ****         //sample rate
  52:USER.c        ****         case 'e':
  53:USER.c        ****         Samples = MAX30101_SAMPLE_RATE_50;
 172              		.loc 1 53 0
 173 013c 5E4B     		ldr	r3, .L33+8
 174 013e 0022     		movs	r2, #0
 175 0140 1A80     		strh	r2, [r3]	@ movhi
ARM GAS  C:\Users\Perro\AppData\Local\Temp\ccKdlVdp.s 			page 5


  54:USER.c        ****         Average = MAX30101_SAMPLE_AVG_1;
 176              		.loc 1 54 0
 177 0142 5E4B     		ldr	r3, .L33+12
 178 0144 0022     		movs	r2, #0
 179 0146 1A80     		strh	r2, [r3]	@ movhi
  55:USER.c        ****         flag_SR = 1;
 180              		.loc 1 55 0
 181 0148 5D4B     		ldr	r3, .L33+16
 182 014a 0122     		movs	r2, #1
 183 014c 1A70     		strb	r2, [r3]
  56:USER.c        ****         break;
 184              		.loc 1 56 0
 185 014e A9E0     		b	.L2
 186              	.L16:
  57:USER.c        ****         
  58:USER.c        ****         case 'f':
  59:USER.c        ****         Samples = MAX30101_SAMPLE_RATE_100;
 187              		.loc 1 59 0
 188 0150 594B     		ldr	r3, .L33+8
 189 0152 0422     		movs	r2, #4
 190 0154 1A80     		strh	r2, [r3]	@ movhi
  60:USER.c        ****         Average = MAX30101_SAMPLE_AVG_2;
 191              		.loc 1 60 0
 192 0156 594B     		ldr	r3, .L33+12
 193 0158 2022     		movs	r2, #32
 194 015a 1A80     		strh	r2, [r3]	@ movhi
  61:USER.c        ****         flag_SR = 1;
 195              		.loc 1 61 0
 196 015c 584B     		ldr	r3, .L33+16
 197 015e 0122     		movs	r2, #1
 198 0160 1A70     		strb	r2, [r3]
  62:USER.c        ****         break;
 199              		.loc 1 62 0
 200 0162 9FE0     		b	.L2
 201              	.L17:
  63:USER.c        ****         
  64:USER.c        ****         case 'g':
  65:USER.c        ****         Samples = MAX30101_SAMPLE_RATE_200;
 202              		.loc 1 65 0
 203 0164 544B     		ldr	r3, .L33+8
 204 0166 0822     		movs	r2, #8
 205 0168 1A80     		strh	r2, [r3]	@ movhi
  66:USER.c        ****         Average = MAX30101_SAMPLE_AVG_4;
 206              		.loc 1 66 0
 207 016a 544B     		ldr	r3, .L33+12
 208 016c 4022     		movs	r2, #64
 209 016e 1A80     		strh	r2, [r3]	@ movhi
  67:USER.c        ****         flag_SR = 1;
 210              		.loc 1 67 0
 211 0170 534B     		ldr	r3, .L33+16
 212 0172 0122     		movs	r2, #1
 213 0174 1A70     		strb	r2, [r3]
  68:USER.c        ****         break;
 214              		.loc 1 68 0
 215 0176 95E0     		b	.L2
 216              	.L18:
  69:USER.c        ****         
ARM GAS  C:\Users\Perro\AppData\Local\Temp\ccKdlVdp.s 			page 6


  70:USER.c        ****         case 'h':
  71:USER.c        ****         Samples = MAX30101_SAMPLE_RATE_400;
 217              		.loc 1 71 0
 218 0178 4F4B     		ldr	r3, .L33+8
 219 017a 0C22     		movs	r2, #12
 220 017c 1A80     		strh	r2, [r3]	@ movhi
  72:USER.c        ****         Average = MAX30101_SAMPLE_AVG_8;
 221              		.loc 1 72 0
 222 017e 4F4B     		ldr	r3, .L33+12
 223 0180 6022     		movs	r2, #96
 224 0182 1A80     		strh	r2, [r3]	@ movhi
  73:USER.c        ****         flag_SR = 1;
 225              		.loc 1 73 0
 226 0184 4E4B     		ldr	r3, .L33+16
 227 0186 0122     		movs	r2, #1
 228 0188 1A70     		strb	r2, [r3]
  74:USER.c        ****         break;
 229              		.loc 1 74 0
 230 018a 8BE0     		b	.L2
 231              	.L19:
  75:USER.c        ****         
  76:USER.c        ****         //pulse width
  77:USER.c        ****         case 'i':
  78:USER.c        ****         Pulse_width = MAX30101_PULSEWIDTH_69;
 232              		.loc 1 78 0
 233 018c 4D4B     		ldr	r3, .L33+20
 234 018e 0022     		movs	r2, #0
 235 0190 1A80     		strh	r2, [r3]	@ movhi
  79:USER.c        ****         flag_PW = 1;
 236              		.loc 1 79 0
 237 0192 4D4B     		ldr	r3, .L33+24
 238 0194 0122     		movs	r2, #1
 239 0196 1A70     		strb	r2, [r3]
  80:USER.c        ****         break;
 240              		.loc 1 80 0
 241 0198 84E0     		b	.L2
 242              	.L20:
  81:USER.c        ****         
  82:USER.c        ****         case 'l':
  83:USER.c        ****         Pulse_width = MAX30101_PULSEWIDTH_118;
 243              		.loc 1 83 0
 244 019a 4A4B     		ldr	r3, .L33+20
 245 019c 0122     		movs	r2, #1
 246 019e 1A80     		strh	r2, [r3]	@ movhi
  84:USER.c        ****         flag_PW = 1;
 247              		.loc 1 84 0
 248 01a0 494B     		ldr	r3, .L33+24
 249 01a2 0122     		movs	r2, #1
 250 01a4 1A70     		strb	r2, [r3]
  85:USER.c        ****         break;
 251              		.loc 1 85 0
 252 01a6 7DE0     		b	.L2
 253              	.L21:
  86:USER.c        ****         
  87:USER.c        ****         case 'm':
  88:USER.c        ****         Pulse_width = MAX30101_PULSEWIDTH_215;
 254              		.loc 1 88 0
ARM GAS  C:\Users\Perro\AppData\Local\Temp\ccKdlVdp.s 			page 7


 255 01a8 464B     		ldr	r3, .L33+20
 256 01aa 0222     		movs	r2, #2
 257 01ac 1A80     		strh	r2, [r3]	@ movhi
  89:USER.c        ****         flag_PW = 1;
 258              		.loc 1 89 0
 259 01ae 464B     		ldr	r3, .L33+24
 260 01b0 0122     		movs	r2, #1
 261 01b2 1A70     		strb	r2, [r3]
  90:USER.c        ****         break;
 262              		.loc 1 90 0
 263 01b4 76E0     		b	.L2
 264              	.L22:
  91:USER.c        ****         
  92:USER.c        ****         case 'n':
  93:USER.c        ****         Pulse_width = MAX30101_PULSEWIDTH_411;
 265              		.loc 1 93 0
 266 01b6 434B     		ldr	r3, .L33+20
 267 01b8 0322     		movs	r2, #3
 268 01ba 1A80     		strh	r2, [r3]	@ movhi
  94:USER.c        ****         flag_PW = 1;
 269              		.loc 1 94 0
 270 01bc 424B     		ldr	r3, .L33+24
 271 01be 0122     		movs	r2, #1
 272 01c0 1A70     		strb	r2, [r3]
  95:USER.c        ****         break;
 273              		.loc 1 95 0
 274 01c2 6FE0     		b	.L2
 275              	.L23:
  96:USER.c        ****         
  97:USER.c        ****         //pulse amplitudes
  98:USER.c        ****         case 'o':
  99:USER.c        ****         Pulse_amp = 0x01;
 276              		.loc 1 99 0
 277 01c4 414B     		ldr	r3, .L33+28
 278 01c6 0122     		movs	r2, #1
 279 01c8 1A80     		strh	r2, [r3]	@ movhi
 100:USER.c        ****         flag_PA = 1;
 280              		.loc 1 100 0
 281 01ca 414B     		ldr	r3, .L33+32
 282 01cc 0122     		movs	r2, #1
 283 01ce 1A70     		strb	r2, [r3]
 101:USER.c        ****         break;
 284              		.loc 1 101 0
 285 01d0 68E0     		b	.L2
 286              	.L24:
 102:USER.c        ****         
 103:USER.c        ****         case 'p':
 104:USER.c        ****         Pulse_amp = 0x03;
 287              		.loc 1 104 0
 288 01d2 3E4B     		ldr	r3, .L33+28
 289 01d4 0322     		movs	r2, #3
 290 01d6 1A80     		strh	r2, [r3]	@ movhi
 105:USER.c        ****         flag_PA = 1;
 291              		.loc 1 105 0
 292 01d8 3D4B     		ldr	r3, .L33+32
 293 01da 0122     		movs	r2, #1
 294 01dc 1A70     		strb	r2, [r3]
ARM GAS  C:\Users\Perro\AppData\Local\Temp\ccKdlVdp.s 			page 8


 106:USER.c        ****         break;
 295              		.loc 1 106 0
 296 01de 61E0     		b	.L2
 297              	.L25:
 107:USER.c        ****         
 108:USER.c        ****         case 'q':
 109:USER.c        ****         Pulse_amp = 0x05;
 298              		.loc 1 109 0
 299 01e0 3A4B     		ldr	r3, .L33+28
 300 01e2 0522     		movs	r2, #5
 301 01e4 1A80     		strh	r2, [r3]	@ movhi
 110:USER.c        ****         flag_PA = 1;
 302              		.loc 1 110 0
 303 01e6 3A4B     		ldr	r3, .L33+32
 304 01e8 0122     		movs	r2, #1
 305 01ea 1A70     		strb	r2, [r3]
 111:USER.c        ****         break;
 306              		.loc 1 111 0
 307 01ec 5AE0     		b	.L2
 308              	.L26:
 112:USER.c        ****         
 113:USER.c        ****         case 'r':
 114:USER.c        ****         Pulse_amp = 0x07;
 309              		.loc 1 114 0
 310 01ee 374B     		ldr	r3, .L33+28
 311 01f0 0722     		movs	r2, #7
 312 01f2 1A80     		strh	r2, [r3]	@ movhi
 115:USER.c        ****         flag_PA = 1;
 313              		.loc 1 115 0
 314 01f4 364B     		ldr	r3, .L33+32
 315 01f6 0122     		movs	r2, #1
 316 01f8 1A70     		strb	r2, [r3]
 116:USER.c        ****         break;
 317              		.loc 1 116 0
 318 01fa 53E0     		b	.L2
 319              	.L27:
 117:USER.c        ****         
 118:USER.c        ****         case 's':
 119:USER.c        ****         Pulse_amp = 0x09;
 320              		.loc 1 119 0
 321 01fc 334B     		ldr	r3, .L33+28
 322 01fe 0922     		movs	r2, #9
 323 0200 1A80     		strh	r2, [r3]	@ movhi
 120:USER.c        ****         flag_PA = 1;
 324              		.loc 1 120 0
 325 0202 334B     		ldr	r3, .L33+32
 326 0204 0122     		movs	r2, #1
 327 0206 1A70     		strb	r2, [r3]
 121:USER.c        ****         break;
 328              		.loc 1 121 0
 329 0208 4CE0     		b	.L2
 330              	.L28:
 122:USER.c        ****         
 123:USER.c        ****         case 't':
 124:USER.c        ****         Pulse_amp = 0x0B;
 331              		.loc 1 124 0
 332 020a 304B     		ldr	r3, .L33+28
ARM GAS  C:\Users\Perro\AppData\Local\Temp\ccKdlVdp.s 			page 9


 333 020c 0B22     		movs	r2, #11
 334 020e 1A80     		strh	r2, [r3]	@ movhi
 125:USER.c        ****         flag_PA = 1;
 335              		.loc 1 125 0
 336 0210 2F4B     		ldr	r3, .L33+32
 337 0212 0122     		movs	r2, #1
 338 0214 1A70     		strb	r2, [r3]
 126:USER.c        ****         break;
 339              		.loc 1 126 0
 340 0216 45E0     		b	.L2
 341              	.L29:
 127:USER.c        ****         
 128:USER.c        ****         case 'u':
 129:USER.c        ****         Pulse_amp = 0x0D;
 342              		.loc 1 129 0
 343 0218 2C4B     		ldr	r3, .L33+28
 344 021a 0D22     		movs	r2, #13
 345 021c 1A80     		strh	r2, [r3]	@ movhi
 130:USER.c        ****         flag_PA = 1;
 346              		.loc 1 130 0
 347 021e 2C4B     		ldr	r3, .L33+32
 348 0220 0122     		movs	r2, #1
 349 0222 1A70     		strb	r2, [r3]
 131:USER.c        ****         break;
 350              		.loc 1 131 0
 351 0224 3EE0     		b	.L2
 352              	.L30:
 132:USER.c        ****         
 133:USER.c        ****         case 'v':
 134:USER.c        ****         Pulse_amp = 0x0F;
 353              		.loc 1 134 0
 354 0226 294B     		ldr	r3, .L33+28
 355 0228 0F22     		movs	r2, #15
 356 022a 1A80     		strh	r2, [r3]	@ movhi
 135:USER.c        ****         flag_PA = 1;
 357              		.loc 1 135 0
 358 022c 284B     		ldr	r3, .L33+32
 359 022e 0122     		movs	r2, #1
 360 0230 1A70     		strb	r2, [r3]
 136:USER.c        ****         break;
 361              		.loc 1 136 0
 362 0232 37E0     		b	.L2
 363              	.L31:
 137:USER.c        ****         
 138:USER.c        ****         case 'z':
 139:USER.c        ****         Pulse_amp = 0x11;
 364              		.loc 1 139 0
 365 0234 254B     		ldr	r3, .L33+28
 366 0236 1122     		movs	r2, #17
 367 0238 1A80     		strh	r2, [r3]	@ movhi
 140:USER.c        ****         flag_PA = 1;
 368              		.loc 1 140 0
 369 023a 254B     		ldr	r3, .L33+32
 370 023c 0122     		movs	r2, #1
 371 023e 1A70     		strb	r2, [r3]
 141:USER.c        ****         break;
 372              		.loc 1 141 0
ARM GAS  C:\Users\Perro\AppData\Local\Temp\ccKdlVdp.s 			page 10


 373 0240 30E0     		b	.L2
 374              	.L3:
 142:USER.c        ****         
 143:USER.c        ****         case 'A':
 144:USER.c        ****         Pulse_amp = 0x13;
 375              		.loc 1 144 0
 376 0242 224B     		ldr	r3, .L33+28
 377 0244 1322     		movs	r2, #19
 378 0246 1A80     		strh	r2, [r3]	@ movhi
 145:USER.c        ****         flag_PA = 1;
 379              		.loc 1 145 0
 380 0248 214B     		ldr	r3, .L33+32
 381 024a 0122     		movs	r2, #1
 382 024c 1A70     		strb	r2, [r3]
 146:USER.c        ****         break;
 383              		.loc 1 146 0
 384 024e 29E0     		b	.L2
 385              	.L5:
 147:USER.c        ****         
 148:USER.c        ****         case 'B':
 149:USER.c        ****         Pulse_amp = 0x15;
 386              		.loc 1 149 0
 387 0250 1E4B     		ldr	r3, .L33+28
 388 0252 1522     		movs	r2, #21
 389 0254 1A80     		strh	r2, [r3]	@ movhi
 150:USER.c        ****         flag_PA = 1;
 390              		.loc 1 150 0
 391 0256 1E4B     		ldr	r3, .L33+32
 392 0258 0122     		movs	r2, #1
 393 025a 1A70     		strb	r2, [r3]
 151:USER.c        ****         break;
 394              		.loc 1 151 0
 395 025c 22E0     		b	.L2
 396              	.L6:
 152:USER.c        ****         
 153:USER.c        ****         case 'C':
 154:USER.c        ****         Pulse_amp = 0x17;
 397              		.loc 1 154 0
 398 025e 1B4B     		ldr	r3, .L33+28
 399 0260 1722     		movs	r2, #23
 400 0262 1A80     		strh	r2, [r3]	@ movhi
 155:USER.c        ****         flag_PA = 1;
 401              		.loc 1 155 0
 402 0264 1A4B     		ldr	r3, .L33+32
 403 0266 0122     		movs	r2, #1
 404 0268 1A70     		strb	r2, [r3]
 156:USER.c        ****         break;
 405              		.loc 1 156 0
 406 026a 1BE0     		b	.L2
 407              	.L7:
 157:USER.c        ****         
 158:USER.c        ****         case 'D':
 159:USER.c        ****         Pulse_amp = 0x19;
 408              		.loc 1 159 0
 409 026c 174B     		ldr	r3, .L33+28
 410 026e 1922     		movs	r2, #25
 411 0270 1A80     		strh	r2, [r3]	@ movhi
ARM GAS  C:\Users\Perro\AppData\Local\Temp\ccKdlVdp.s 			page 11


 160:USER.c        ****         flag_PA = 1;
 412              		.loc 1 160 0
 413 0272 174B     		ldr	r3, .L33+32
 414 0274 0122     		movs	r2, #1
 415 0276 1A70     		strb	r2, [r3]
 161:USER.c        ****         break;
 416              		.loc 1 161 0
 417 0278 14E0     		b	.L2
 418              	.L8:
 162:USER.c        ****         
 163:USER.c        ****         case 'E':
 164:USER.c        ****         Pulse_amp = 0x1B;
 419              		.loc 1 164 0
 420 027a 144B     		ldr	r3, .L33+28
 421 027c 1B22     		movs	r2, #27
 422 027e 1A80     		strh	r2, [r3]	@ movhi
 165:USER.c        ****         flag_PA = 1;
 423              		.loc 1 165 0
 424 0280 134B     		ldr	r3, .L33+32
 425 0282 0122     		movs	r2, #1
 426 0284 1A70     		strb	r2, [r3]
 166:USER.c        ****         break;
 427              		.loc 1 166 0
 428 0286 0DE0     		b	.L2
 429              	.L9:
 167:USER.c        ****         
 168:USER.c        ****         case 'F':
 169:USER.c        ****         Pulse_amp = 0x1D;
 430              		.loc 1 169 0
 431 0288 104B     		ldr	r3, .L33+28
 432 028a 1D22     		movs	r2, #29
 433 028c 1A80     		strh	r2, [r3]	@ movhi
 170:USER.c        ****         flag_PA = 1;
 434              		.loc 1 170 0
 435 028e 104B     		ldr	r3, .L33+32
 436 0290 0122     		movs	r2, #1
 437 0292 1A70     		strb	r2, [r3]
 171:USER.c        ****         break;
 438              		.loc 1 171 0
 439 0294 06E0     		b	.L2
 440              	.L10:
 172:USER.c        ****         
 173:USER.c        ****         case 'G':
 174:USER.c        ****         Pulse_amp = 0x1F;
 441              		.loc 1 174 0
 442 0296 0D4B     		ldr	r3, .L33+28
 443 0298 1F22     		movs	r2, #31
 444 029a 1A80     		strh	r2, [r3]	@ movhi
 175:USER.c        ****         flag_PA = 1;
 445              		.loc 1 175 0
 446 029c 0C4B     		ldr	r3, .L33+32
 447 029e 0122     		movs	r2, #1
 448 02a0 1A70     		strb	r2, [r3]
 176:USER.c        ****         break;
 449              		.loc 1 176 0
 450 02a2 00BF     		nop
 451              	.L2:
ARM GAS  C:\Users\Perro\AppData\Local\Temp\ccKdlVdp.s 			page 12


 452              	.L32:
 177:USER.c        ****     }
 178:USER.c        ****         
 179:USER.c        ****     
 180:USER.c        ****     /*if(x== '69') MAX30101_SetSpO2PulseWidth(MAX30101_PULSEWIDTH_69);
 181:USER.c        ****     if(x== '118') MAX30101_SetSpO2PulseWidth(MAX30101_PULSEWIDTH_118);
 182:USER.c        ****     if(x== '215') MAX30101_SetSpO2PulseWidth(MAX30101_PULSEWIDTH_215);
 183:USER.c        ****     if(x== '411') MAX30101_SetSpO2PulseWidth(MAX30101_PULSEWIDTH_411);
 184:USER.c        ****     
 185:USER.c        ****     if(x== '50') 
 186:USER.c        ****     {
 187:USER.c        ****         MAX30101_SetSpO2SampleRate(MAX30101_SAMPLE_RATE_50);
 188:USER.c        ****         MAX30101_SetSampleAverage(MAX30101_SAMPLE_AVG_1);
 189:USER.c        ****     }
 190:USER.c        ****     if(x=='100') 
 191:USER.c        ****     {
 192:USER.c        ****         MAX30101_SetSpO2SampleRate(MAX30101_SAMPLE_RATE_100);
 193:USER.c        ****         MAX30101_SetSampleAverage(MAX30101_SAMPLE_AVG_2);
 194:USER.c        ****     }
 195:USER.c        ****     if(x=='200') 
 196:USER.c        ****     {
 197:USER.c        ****         MAX30101_SetSpO2SampleRate(MAX30101_SAMPLE_RATE_200);
 198:USER.c        ****         MAX30101_SetSampleAverage(MAX30101_SAMPLE_AVG_4);
 199:USER.c        ****     }
 200:USER.c        ****     if(x=='400') //Sample Rate 400
 201:USER.c        ****     {
 202:USER.c        ****         MAX30101_SetSpO2SampleRate(MAX30101_SAMPLE_RATE_400);
 203:USER.c        ****         MAX30101_SetSampleAverage(MAX30101_SAMPLE_AVG_8);
 204:USER.c        ****     }
 205:USER.c        ****     
 206:USER.c        ****     if(x=='0.2') 
 207:USER.c        ****     {
 208:USER.c        ****         MAX30101_SetLEDPulseAmplitude(MAX30101_LED_1, 0x01);
 209:USER.c        ****         MAX30101_SetLEDPulseAmplitude(MAX30101_LED_2, 0x01);
 210:USER.c        ****     }
 211:USER.c        ****     if(x=='0.6') 
 212:USER.c        ****     {
 213:USER.c        ****         MAX30101_SetLEDPulseAmplitude(MAX30101_LED_1, 0x03);
 214:USER.c        ****         MAX30101_SetLEDPulseAmplitude(MAX30101_LED_2, 0x03);
 215:USER.c        ****     }
 216:USER.c        ****     if(x=='1.0') 
 217:USER.c        ****     {
 218:USER.c        ****         MAX30101_SetLEDPulseAmplitude(MAX30101_LED_1, 0x05);
 219:USER.c        ****         MAX30101_SetLEDPulseAmplitude(MAX30101_LED_2, 0x05);
 220:USER.c        ****     }
 221:USER.c        ****     if(x=='1.4') 
 222:USER.c        ****     {
 223:USER.c        ****         MAX30101_SetLEDPulseAmplitude(MAX30101_LED_1, 0x07);
 224:USER.c        ****         MAX30101_SetLEDPulseAmplitude(MAX30101_LED_2, 0x07);
 225:USER.c        ****     }
 226:USER.c        ****     if(x=='1.8') 
 227:USER.c        ****     {
 228:USER.c        ****         MAX30101_SetLEDPulseAmplitude(MAX30101_LED_1, 0x09);
 229:USER.c        ****         MAX30101_SetLEDPulseAmplitude(MAX30101_LED_2, 0x09);
 230:USER.c        ****     }
 231:USER.c        ****     if(x=='2.2') 
 232:USER.c        ****     {
ARM GAS  C:\Users\Perro\AppData\Local\Temp\ccKdlVdp.s 			page 13


 233:USER.c        ****         MAX30101_SetLEDPulseAmplitude(MAX30101_LED_1, 0x0B);
 234:USER.c        ****         MAX30101_SetLEDPulseAmplitude(MAX30101_LED_2, 0x0B);
 235:USER.c        ****     }
 236:USER.c        ****     if(x=='2.6') 
 237:USER.c        ****     {
 238:USER.c        ****         MAX30101_SetLEDPulseAmplitude(MAX30101_LED_1, 0x0D);
 239:USER.c        ****         MAX30101_SetLEDPulseAmplitude(MAX30101_LED_2, 0x0D);
 240:USER.c        ****     }
 241:USER.c        ****     if(x=='3.0') 
 242:USER.c        ****     {
 243:USER.c        ****         MAX30101_SetLEDPulseAmplitude(MAX30101_LED_1, 0x0F);
 244:USER.c        ****         MAX30101_SetLEDPulseAmplitude(MAX30101_LED_2, 0x0F);
 245:USER.c        ****     }
 246:USER.c        ****     if(x=='3.4') 
 247:USER.c        ****     {
 248:USER.c        ****         MAX30101_SetLEDPulseAmplitude(MAX30101_LED_1, 0x11);
 249:USER.c        ****         MAX30101_SetLEDPulseAmplitude(MAX30101_LED_2, 0x11);
 250:USER.c        ****     }
 251:USER.c        ****     if(x=='3.8') 
 252:USER.c        ****     {
 253:USER.c        ****         MAX30101_SetLEDPulseAmplitude(MAX30101_LED_1, 0x13);
 254:USER.c        ****         MAX30101_SetLEDPulseAmplitude(MAX30101_LED_2, 0x13);
 255:USER.c        ****     }
 256:USER.c        ****     if(x=='4.2') 
 257:USER.c        ****     {
 258:USER.c        ****         MAX30101_SetLEDPulseAmplitude(MAX30101_LED_1, 0x15);
 259:USER.c        ****         MAX30101_SetLEDPulseAmplitude(MAX30101_LED_2, 0x15);
 260:USER.c        ****     }
 261:USER.c        ****     if(x=='4.6') 
 262:USER.c        ****     {
 263:USER.c        ****         MAX30101_SetLEDPulseAmplitude(MAX30101_LED_1, 0x17);
 264:USER.c        ****         MAX30101_SetLEDPulseAmplitude(MAX30101_LED_2, 0x17);
 265:USER.c        ****     }
 266:USER.c        ****     if(x=='5.0') 
 267:USER.c        ****     {
 268:USER.c        ****         MAX30101_SetLEDPulseAmplitude(MAX30101_LED_1, 0x19);
 269:USER.c        ****         MAX30101_SetLEDPulseAmplitude(MAX30101_LED_2, 0x19);
 270:USER.c        ****     }
 271:USER.c        ****     if(x=='5.4') 
 272:USER.c        ****     {
 273:USER.c        ****         MAX30101_SetLEDPulseAmplitude(MAX30101_LED_1, 0x1B);
 274:USER.c        ****         MAX30101_SetLEDPulseAmplitude(MAX30101_LED_2, 0x1B);
 275:USER.c        ****     }
 276:USER.c        ****     if(x=='5.8') 
 277:USER.c        ****     {
 278:USER.c        ****         MAX30101_SetLEDPulseAmplitude(MAX30101_LED_1, 0x1D);
 279:USER.c        ****         MAX30101_SetLEDPulseAmplitude(MAX30101_LED_2, 0x1D);
 280:USER.c        ****     }
 281:USER.c        ****     if(x=='6.2') 
 282:USER.c        ****     {
 283:USER.c        ****         MAX30101_SetLEDPulseAmplitude(MAX30101_LED_1, 0x1F);
 284:USER.c        ****         MAX30101_SetLEDPulseAmplitude(MAX30101_LED_2, 0x1F);
 285:USER.c        ****     }
 286:USER.c        ****     */
 287:USER.c        **** 
 288:USER.c        **** 
 289:USER.c        **** 
ARM GAS  C:\Users\Perro\AppData\Local\Temp\ccKdlVdp.s 			page 14


 290:USER.c        ****     //LED_PW: 69 118 215 411
 291:USER.c        ****     //SAMPLES: 50 100 200 400
 292:USER.c        ****     // CURRENT: da 0.2 a 6.2 con STEP 0.4
 293:USER.c        ****     // SPO2: 2048 4096 8192 16384
 294:USER.c        ****     
 295:USER.c        **** }...
 453              		.loc 1 295 0
 454 02a4 00BF     		nop
 455 02a6 0C37     		adds	r7, r7, #12
 456              		.cfi_def_cfa_offset 4
 457 02a8 BD46     		mov	sp, r7
 458              		.cfi_def_cfa_register 13
 459              		@ sp needed
 460 02aa 80BC     		pop	{r7}
 461              		.cfi_restore 7
 462              		.cfi_def_cfa_offset 0
 463 02ac 7047     		bx	lr
 464              	.L34:
 465 02ae 00BF     		.align	2
 466              	.L33:
 467 02b0 00000000 		.word	ADC_range
 468 02b4 00000000 		.word	flag_ADC
 469 02b8 00000000 		.word	Samples
 470 02bc 00000000 		.word	Average
 471 02c0 00000000 		.word	flag_SR
 472 02c4 00000000 		.word	Pulse_width
 473 02c8 00000000 		.word	flag_PW
 474 02cc 00000000 		.word	Pulse_amp
 475 02d0 00000000 		.word	flag_PA
 476              		.cfi_endproc
 477              	.LFE63:
 478              		.size	USER, .-USER
 479              		.text
 480              	.Letext0:
 481              		.file 2 "c:\\program files (x86)\\cypress\\psoc creator\\4.4\\psoc creator\\import\\gnu\\arm\\5.4.
 482              		.file 3 "c:\\program files (x86)\\cypress\\psoc creator\\4.4\\psoc creator\\import\\gnu\\arm\\5.4.
 483              		.file 4 "Generated_Source\\PSoC5/cytypes.h"
 484              		.file 5 "MAX30101.h"
 485              		.file 6 "Generated_Source\\PSoC5/core_cm3.h"
 486              		.file 7 "setting_parameters.h"
 487              		.section	.debug_info,"",%progbits
 488              	.Ldebug_info0:
 489 0000 52020000 		.4byte	0x252
 490 0004 0400     		.2byte	0x4
 491 0006 00000000 		.4byte	.Ldebug_abbrev0
 492 000a 04       		.byte	0x4
 493 000b 01       		.uleb128 0x1
 494 000c 14000000 		.4byte	.LASF38
 495 0010 0C       		.byte	0xc
 496 0011 39010000 		.4byte	.LASF39
 497 0015 B4000000 		.4byte	.LASF40
 498 0019 00000000 		.4byte	.Ldebug_ranges0+0
 499 001d 00000000 		.4byte	0
 500 0021 00000000 		.4byte	.Ldebug_line0
 501 0025 02       		.uleb128 0x2
 502 0026 01       		.byte	0x1
 503 0027 06       		.byte	0x6
ARM GAS  C:\Users\Perro\AppData\Local\Temp\ccKdlVdp.s 			page 15


 504 0028 1A010000 		.4byte	.LASF0
 505 002c 03       		.uleb128 0x3
 506 002d 0A000000 		.4byte	.LASF4
 507 0031 02       		.byte	0x2
 508 0032 1D       		.byte	0x1d
 509 0033 37000000 		.4byte	0x37
 510 0037 02       		.uleb128 0x2
 511 0038 01       		.byte	0x1
 512 0039 08       		.byte	0x8
 513 003a 26010000 		.4byte	.LASF1
 514 003e 02       		.uleb128 0x2
 515 003f 02       		.byte	0x2
 516 0040 05       		.byte	0x5
 517 0041 25020000 		.4byte	.LASF2
 518 0045 02       		.uleb128 0x2
 519 0046 02       		.byte	0x2
 520 0047 07       		.byte	0x7
 521 0048 5E010000 		.4byte	.LASF3
 522 004c 03       		.uleb128 0x3
 523 004d A2000000 		.4byte	.LASF5
 524 0051 02       		.byte	0x2
 525 0052 3F       		.byte	0x3f
 526 0053 57000000 		.4byte	0x57
 527 0057 02       		.uleb128 0x2
 528 0058 04       		.byte	0x4
 529 0059 05       		.byte	0x5
 530 005a 4B020000 		.4byte	.LASF6
 531 005e 03       		.uleb128 0x3
 532 005f A4010000 		.4byte	.LASF7
 533 0063 02       		.byte	0x2
 534 0064 41       		.byte	0x41
 535 0065 69000000 		.4byte	0x69
 536 0069 02       		.uleb128 0x2
 537 006a 04       		.byte	0x4
 538 006b 07       		.byte	0x7
 539 006c 40010000 		.4byte	.LASF8
 540 0070 02       		.uleb128 0x2
 541 0071 08       		.byte	0x8
 542 0072 05       		.byte	0x5
 543 0073 FA010000 		.4byte	.LASF9
 544 0077 02       		.uleb128 0x2
 545 0078 08       		.byte	0x8
 546 0079 07       		.byte	0x7
 547 007a C1010000 		.4byte	.LASF10
 548 007e 04       		.uleb128 0x4
 549 007f 04       		.byte	0x4
 550 0080 05       		.byte	0x5
 551 0081 696E7400 		.ascii	"int\000"
 552 0085 02       		.uleb128 0x2
 553 0086 04       		.byte	0x4
 554 0087 07       		.byte	0x7
 555 0088 B4010000 		.4byte	.LASF11
 556 008c 03       		.uleb128 0x3
 557 008d D8010000 		.4byte	.LASF12
 558 0091 03       		.byte	0x3
 559 0092 18       		.byte	0x18
 560 0093 2C000000 		.4byte	0x2c
ARM GAS  C:\Users\Perro\AppData\Local\Temp\ccKdlVdp.s 			page 16


 561 0097 03       		.uleb128 0x3
 562 0098 07010000 		.4byte	.LASF13
 563 009c 03       		.byte	0x3
 564 009d 2C       		.byte	0x2c
 565 009e 4C000000 		.4byte	0x4c
 566 00a2 03       		.uleb128 0x3
 567 00a3 42020000 		.4byte	.LASF14
 568 00a7 03       		.byte	0x3
 569 00a8 30       		.byte	0x30
 570 00a9 5E000000 		.4byte	0x5e
 571 00ad 05       		.uleb128 0x5
 572 00ae 2F020000 		.4byte	.LASF15
 573 00b2 04       		.byte	0x4
 574 00b3 E801     		.2byte	0x1e8
 575 00b5 37000000 		.4byte	0x37
 576 00b9 05       		.uleb128 0x5
 577 00ba 9D010000 		.4byte	.LASF16
 578 00be 04       		.byte	0x4
 579 00bf E901     		.2byte	0x1e9
 580 00c1 45000000 		.4byte	0x45
 581 00c5 02       		.uleb128 0x2
 582 00c6 04       		.byte	0x4
 583 00c7 04       		.byte	0x4
 584 00c8 0F010000 		.4byte	.LASF17
 585 00cc 02       		.uleb128 0x2
 586 00cd 08       		.byte	0x8
 587 00ce 04       		.byte	0x4
 588 00cf 96010000 		.4byte	.LASF18
 589 00d3 02       		.uleb128 0x2
 590 00d4 01       		.byte	0x1
 591 00d5 08       		.byte	0x8
 592 00d6 08020000 		.4byte	.LASF19
 593 00da 02       		.uleb128 0x2
 594 00db 08       		.byte	0x8
 595 00dc 04       		.byte	0x4
 596 00dd 54020000 		.4byte	.LASF20
 597 00e1 02       		.uleb128 0x2
 598 00e2 04       		.byte	0x4
 599 00e3 07       		.byte	0x7
 600 00e4 F1010000 		.4byte	.LASF21
 601 00e8 06       		.uleb128 0x6
 602 00e9 04       		.byte	0x4
 603 00ea EE000000 		.4byte	0xee
 604 00ee 07       		.uleb128 0x7
 605 00ef D3000000 		.4byte	0xd3
 606 00f3 08       		.uleb128 0x8
 607 00f4 8401     		.2byte	0x184
 608 00f6 05       		.byte	0x5
 609 00f7 1B       		.byte	0x1b
 610 00f8 3B010000 		.4byte	0x13b
 611 00fc 09       		.uleb128 0x9
 612 00fd 72656400 		.ascii	"red\000"
 613 0101 05       		.byte	0x5
 614 0102 1D       		.byte	0x1d
 615 0103 3B010000 		.4byte	0x13b
 616 0107 00       		.byte	0
 617 0108 09       		.uleb128 0x9
ARM GAS  C:\Users\Perro\AppData\Local\Temp\ccKdlVdp.s 			page 17


 618 0109 495200   		.ascii	"IR\000"
 619 010c 05       		.byte	0x5
 620 010d 1E       		.byte	0x1e
 621 010e 3B010000 		.4byte	0x13b
 622 0112 80       		.byte	0x80
 623 0113 0A       		.uleb128 0xa
 624 0114 71010000 		.4byte	.LASF22
 625 0118 05       		.byte	0x5
 626 0119 1F       		.byte	0x1f
 627 011a 3B010000 		.4byte	0x13b
 628 011e 0001     		.2byte	0x100
 629 0120 0A       		.uleb128 0xa
 630 0121 AF010000 		.4byte	.LASF23
 631 0125 05       		.byte	0x5
 632 0126 20       		.byte	0x20
 633 0127 8C000000 		.4byte	0x8c
 634 012b 8001     		.2byte	0x180
 635 012d 0A       		.uleb128 0xa
 636 012e 35020000 		.4byte	.LASF24
 637 0132 05       		.byte	0x5
 638 0133 21       		.byte	0x21
 639 0134 8C000000 		.4byte	0x8c
 640 0138 8101     		.2byte	0x181
 641 013a 00       		.byte	0
 642 013b 0B       		.uleb128 0xb
 643 013c A2000000 		.4byte	0xa2
 644 0140 4B010000 		.4byte	0x14b
 645 0144 0C       		.uleb128 0xc
 646 0145 E1000000 		.4byte	0xe1
 647 0149 1F       		.byte	0x1f
 648 014a 00       		.byte	0
 649 014b 03       		.uleb128 0x3
 650 014c 17020000 		.4byte	.LASF25
 651 0150 05       		.byte	0x5
 652 0151 22       		.byte	0x22
 653 0152 F3000000 		.4byte	0xf3
 654 0156 0D       		.uleb128 0xd
 655 0157 34010000 		.4byte	.LASF41
 656 015b 01       		.byte	0x1
 657 015c 19       		.byte	0x19
 658 015d 00000000 		.4byte	.LFB63
 659 0161 D4020000 		.4byte	.LFE63-.LFB63
 660 0165 01       		.uleb128 0x1
 661 0166 9C       		.byte	0x9c
 662 0167 78010000 		.4byte	0x178
 663 016b 0E       		.uleb128 0xe
 664 016c 7800     		.ascii	"x\000"
 665 016e 01       		.byte	0x1
 666 016f 19       		.byte	0x19
 667 0170 AD000000 		.4byte	0xad
 668 0174 02       		.uleb128 0x2
 669 0175 91       		.byte	0x91
 670 0176 77       		.sleb128 -9
 671 0177 00       		.byte	0
 672 0178 0F       		.uleb128 0xf
 673 0179 81010000 		.4byte	.LASF26
 674 017d 06       		.byte	0x6
ARM GAS  C:\Users\Perro\AppData\Local\Temp\ccKdlVdp.s 			page 18


 675 017e 1207     		.2byte	0x712
 676 0180 84010000 		.4byte	0x184
 677 0184 10       		.uleb128 0x10
 678 0185 97000000 		.4byte	0x97
 679 0189 11       		.uleb128 0x11
 680 018a 15010000 		.4byte	.LASF27
 681 018e 05       		.byte	0x5
 682 018f 24       		.byte	0x24
 683 0190 4B010000 		.4byte	0x14b
 684 0194 05       		.uleb128 0x5
 685 0195 03       		.byte	0x3
 686 0196 00000000 		.4byte	data
 687 019a 11       		.uleb128 0x11
 688 019b 0D020000 		.4byte	.LASF28
 689 019f 07       		.byte	0x7
 690 01a0 0F       		.byte	0xf
 691 01a1 B9000000 		.4byte	0xb9
 692 01a5 05       		.uleb128 0x5
 693 01a6 03       		.byte	0x3
 694 01a7 00000000 		.4byte	ADC_range
 695 01ab 11       		.uleb128 0x11
 696 01ac AC000000 		.4byte	.LASF29
 697 01b0 07       		.byte	0x7
 698 01b1 10       		.byte	0x10
 699 01b2 B9000000 		.4byte	0xb9
 700 01b6 05       		.uleb128 0x5
 701 01b7 03       		.byte	0x3
 702 01b8 00000000 		.4byte	Samples
 703 01bc 11       		.uleb128 0x11
 704 01bd 52010000 		.4byte	.LASF30
 705 01c1 07       		.byte	0x7
 706 01c2 11       		.byte	0x11
 707 01c3 B9000000 		.4byte	0xb9
 708 01c7 05       		.uleb128 0x5
 709 01c8 03       		.byte	0x3
 710 01c9 00000000 		.4byte	Pulse_width
 711 01cd 11       		.uleb128 0x11
 712 01ce 77010000 		.4byte	.LASF31
 713 01d2 07       		.byte	0x7
 714 01d3 12       		.byte	0x12
 715 01d4 B9000000 		.4byte	0xb9
 716 01d8 05       		.uleb128 0x5
 717 01d9 03       		.byte	0x3
 718 01da 00000000 		.4byte	Pulse_amp
 719 01de 11       		.uleb128 0x11
 720 01df 3A020000 		.4byte	.LASF32
 721 01e3 07       		.byte	0x7
 722 01e4 13       		.byte	0x13
 723 01e5 B9000000 		.4byte	0xb9
 724 01e9 05       		.uleb128 0x5
 725 01ea 03       		.byte	0x3
 726 01eb 00000000 		.4byte	Average
 727 01ef 11       		.uleb128 0x11
 728 01f0 E0010000 		.4byte	.LASF33
 729 01f4 07       		.byte	0x7
 730 01f5 14       		.byte	0x14
 731 01f6 AD000000 		.4byte	0xad
ARM GAS  C:\Users\Perro\AppData\Local\Temp\ccKdlVdp.s 			page 19


 732 01fa 05       		.uleb128 0x5
 733 01fb 03       		.byte	0x3
 734 01fc 00000000 		.4byte	flag_ADC
 735 0200 11       		.uleb128 0x11
 736 0201 E9010000 		.4byte	.LASF34
 737 0205 07       		.byte	0x7
 738 0206 15       		.byte	0x15
 739 0207 AD000000 		.4byte	0xad
 740 020b 05       		.uleb128 0x5
 741 020c 03       		.byte	0x3
 742 020d 00000000 		.4byte	flag_PW
 743 0211 11       		.uleb128 0x11
 744 0212 8E010000 		.4byte	.LASF35
 745 0216 07       		.byte	0x7
 746 0217 16       		.byte	0x16
 747 0218 AD000000 		.4byte	0xad
 748 021c 05       		.uleb128 0x5
 749 021d 03       		.byte	0x3
 750 021e 00000000 		.4byte	flag_PA
 751 0222 11       		.uleb128 0x11
 752 0223 FF000000 		.4byte	.LASF36
 753 0227 07       		.byte	0x7
 754 0228 17       		.byte	0x17
 755 0229 AD000000 		.4byte	0xad
 756 022d 05       		.uleb128 0x5
 757 022e 03       		.byte	0x3
 758 022f 00000000 		.4byte	flag_SR
 759 0233 12       		.uleb128 0x12
 760 0234 3E020000 		.4byte	0x23e
 761 0238 13       		.uleb128 0x13
 762 0239 E8000000 		.4byte	0xe8
 763 023d 00       		.byte	0
 764 023e 11       		.uleb128 0x11
 765 023f 00000000 		.4byte	.LASF37
 766 0243 01       		.byte	0x1
 767 0244 16       		.byte	0x16
 768 0245 4F020000 		.4byte	0x24f
 769 0249 05       		.uleb128 0x5
 770 024a 03       		.byte	0x3
 771 024b 00000000 		.4byte	print_ptr
 772 024f 06       		.uleb128 0x6
 773 0250 04       		.byte	0x4
 774 0251 33020000 		.4byte	0x233
 775 0255 00       		.byte	0
 776              		.section	.debug_abbrev,"",%progbits
 777              	.Ldebug_abbrev0:
 778 0000 01       		.uleb128 0x1
 779 0001 11       		.uleb128 0x11
 780 0002 01       		.byte	0x1
 781 0003 25       		.uleb128 0x25
 782 0004 0E       		.uleb128 0xe
 783 0005 13       		.uleb128 0x13
 784 0006 0B       		.uleb128 0xb
 785 0007 03       		.uleb128 0x3
 786 0008 0E       		.uleb128 0xe
 787 0009 1B       		.uleb128 0x1b
 788 000a 0E       		.uleb128 0xe
ARM GAS  C:\Users\Perro\AppData\Local\Temp\ccKdlVdp.s 			page 20


 789 000b 55       		.uleb128 0x55
 790 000c 17       		.uleb128 0x17
 791 000d 11       		.uleb128 0x11
 792 000e 01       		.uleb128 0x1
 793 000f 10       		.uleb128 0x10
 794 0010 17       		.uleb128 0x17
 795 0011 00       		.byte	0
 796 0012 00       		.byte	0
 797 0013 02       		.uleb128 0x2
 798 0014 24       		.uleb128 0x24
 799 0015 00       		.byte	0
 800 0016 0B       		.uleb128 0xb
 801 0017 0B       		.uleb128 0xb
 802 0018 3E       		.uleb128 0x3e
 803 0019 0B       		.uleb128 0xb
 804 001a 03       		.uleb128 0x3
 805 001b 0E       		.uleb128 0xe
 806 001c 00       		.byte	0
 807 001d 00       		.byte	0
 808 001e 03       		.uleb128 0x3
 809 001f 16       		.uleb128 0x16
 810 0020 00       		.byte	0
 811 0021 03       		.uleb128 0x3
 812 0022 0E       		.uleb128 0xe
 813 0023 3A       		.uleb128 0x3a
 814 0024 0B       		.uleb128 0xb
 815 0025 3B       		.uleb128 0x3b
 816 0026 0B       		.uleb128 0xb
 817 0027 49       		.uleb128 0x49
 818 0028 13       		.uleb128 0x13
 819 0029 00       		.byte	0
 820 002a 00       		.byte	0
 821 002b 04       		.uleb128 0x4
 822 002c 24       		.uleb128 0x24
 823 002d 00       		.byte	0
 824 002e 0B       		.uleb128 0xb
 825 002f 0B       		.uleb128 0xb
 826 0030 3E       		.uleb128 0x3e
 827 0031 0B       		.uleb128 0xb
 828 0032 03       		.uleb128 0x3
 829 0033 08       		.uleb128 0x8
 830 0034 00       		.byte	0
 831 0035 00       		.byte	0
 832 0036 05       		.uleb128 0x5
 833 0037 16       		.uleb128 0x16
 834 0038 00       		.byte	0
 835 0039 03       		.uleb128 0x3
 836 003a 0E       		.uleb128 0xe
 837 003b 3A       		.uleb128 0x3a
 838 003c 0B       		.uleb128 0xb
 839 003d 3B       		.uleb128 0x3b
 840 003e 05       		.uleb128 0x5
 841 003f 49       		.uleb128 0x49
 842 0040 13       		.uleb128 0x13
 843 0041 00       		.byte	0
 844 0042 00       		.byte	0
 845 0043 06       		.uleb128 0x6
ARM GAS  C:\Users\Perro\AppData\Local\Temp\ccKdlVdp.s 			page 21


 846 0044 0F       		.uleb128 0xf
 847 0045 00       		.byte	0
 848 0046 0B       		.uleb128 0xb
 849 0047 0B       		.uleb128 0xb
 850 0048 49       		.uleb128 0x49
 851 0049 13       		.uleb128 0x13
 852 004a 00       		.byte	0
 853 004b 00       		.byte	0
 854 004c 07       		.uleb128 0x7
 855 004d 26       		.uleb128 0x26
 856 004e 00       		.byte	0
 857 004f 49       		.uleb128 0x49
 858 0050 13       		.uleb128 0x13
 859 0051 00       		.byte	0
 860 0052 00       		.byte	0
 861 0053 08       		.uleb128 0x8
 862 0054 13       		.uleb128 0x13
 863 0055 01       		.byte	0x1
 864 0056 0B       		.uleb128 0xb
 865 0057 05       		.uleb128 0x5
 866 0058 3A       		.uleb128 0x3a
 867 0059 0B       		.uleb128 0xb
 868 005a 3B       		.uleb128 0x3b
 869 005b 0B       		.uleb128 0xb
 870 005c 01       		.uleb128 0x1
 871 005d 13       		.uleb128 0x13
 872 005e 00       		.byte	0
 873 005f 00       		.byte	0
 874 0060 09       		.uleb128 0x9
 875 0061 0D       		.uleb128 0xd
 876 0062 00       		.byte	0
 877 0063 03       		.uleb128 0x3
 878 0064 08       		.uleb128 0x8
 879 0065 3A       		.uleb128 0x3a
 880 0066 0B       		.uleb128 0xb
 881 0067 3B       		.uleb128 0x3b
 882 0068 0B       		.uleb128 0xb
 883 0069 49       		.uleb128 0x49
 884 006a 13       		.uleb128 0x13
 885 006b 38       		.uleb128 0x38
 886 006c 0B       		.uleb128 0xb
 887 006d 00       		.byte	0
 888 006e 00       		.byte	0
 889 006f 0A       		.uleb128 0xa
 890 0070 0D       		.uleb128 0xd
 891 0071 00       		.byte	0
 892 0072 03       		.uleb128 0x3
 893 0073 0E       		.uleb128 0xe
 894 0074 3A       		.uleb128 0x3a
 895 0075 0B       		.uleb128 0xb
 896 0076 3B       		.uleb128 0x3b
 897 0077 0B       		.uleb128 0xb
 898 0078 49       		.uleb128 0x49
 899 0079 13       		.uleb128 0x13
 900 007a 38       		.uleb128 0x38
 901 007b 05       		.uleb128 0x5
 902 007c 00       		.byte	0
ARM GAS  C:\Users\Perro\AppData\Local\Temp\ccKdlVdp.s 			page 22


 903 007d 00       		.byte	0
 904 007e 0B       		.uleb128 0xb
 905 007f 01       		.uleb128 0x1
 906 0080 01       		.byte	0x1
 907 0081 49       		.uleb128 0x49
 908 0082 13       		.uleb128 0x13
 909 0083 01       		.uleb128 0x1
 910 0084 13       		.uleb128 0x13
 911 0085 00       		.byte	0
 912 0086 00       		.byte	0
 913 0087 0C       		.uleb128 0xc
 914 0088 21       		.uleb128 0x21
 915 0089 00       		.byte	0
 916 008a 49       		.uleb128 0x49
 917 008b 13       		.uleb128 0x13
 918 008c 2F       		.uleb128 0x2f
 919 008d 0B       		.uleb128 0xb
 920 008e 00       		.byte	0
 921 008f 00       		.byte	0
 922 0090 0D       		.uleb128 0xd
 923 0091 2E       		.uleb128 0x2e
 924 0092 01       		.byte	0x1
 925 0093 3F       		.uleb128 0x3f
 926 0094 19       		.uleb128 0x19
 927 0095 03       		.uleb128 0x3
 928 0096 0E       		.uleb128 0xe
 929 0097 3A       		.uleb128 0x3a
 930 0098 0B       		.uleb128 0xb
 931 0099 3B       		.uleb128 0x3b
 932 009a 0B       		.uleb128 0xb
 933 009b 27       		.uleb128 0x27
 934 009c 19       		.uleb128 0x19
 935 009d 11       		.uleb128 0x11
 936 009e 01       		.uleb128 0x1
 937 009f 12       		.uleb128 0x12
 938 00a0 06       		.uleb128 0x6
 939 00a1 40       		.uleb128 0x40
 940 00a2 18       		.uleb128 0x18
 941 00a3 9742     		.uleb128 0x2117
 942 00a5 19       		.uleb128 0x19
 943 00a6 01       		.uleb128 0x1
 944 00a7 13       		.uleb128 0x13
 945 00a8 00       		.byte	0
 946 00a9 00       		.byte	0
 947 00aa 0E       		.uleb128 0xe
 948 00ab 05       		.uleb128 0x5
 949 00ac 00       		.byte	0
 950 00ad 03       		.uleb128 0x3
 951 00ae 08       		.uleb128 0x8
 952 00af 3A       		.uleb128 0x3a
 953 00b0 0B       		.uleb128 0xb
 954 00b1 3B       		.uleb128 0x3b
 955 00b2 0B       		.uleb128 0xb
 956 00b3 49       		.uleb128 0x49
 957 00b4 13       		.uleb128 0x13
 958 00b5 02       		.uleb128 0x2
 959 00b6 18       		.uleb128 0x18
ARM GAS  C:\Users\Perro\AppData\Local\Temp\ccKdlVdp.s 			page 23


 960 00b7 00       		.byte	0
 961 00b8 00       		.byte	0
 962 00b9 0F       		.uleb128 0xf
 963 00ba 34       		.uleb128 0x34
 964 00bb 00       		.byte	0
 965 00bc 03       		.uleb128 0x3
 966 00bd 0E       		.uleb128 0xe
 967 00be 3A       		.uleb128 0x3a
 968 00bf 0B       		.uleb128 0xb
 969 00c0 3B       		.uleb128 0x3b
 970 00c1 05       		.uleb128 0x5
 971 00c2 49       		.uleb128 0x49
 972 00c3 13       		.uleb128 0x13
 973 00c4 3F       		.uleb128 0x3f
 974 00c5 19       		.uleb128 0x19
 975 00c6 3C       		.uleb128 0x3c
 976 00c7 19       		.uleb128 0x19
 977 00c8 00       		.byte	0
 978 00c9 00       		.byte	0
 979 00ca 10       		.uleb128 0x10
 980 00cb 35       		.uleb128 0x35
 981 00cc 00       		.byte	0
 982 00cd 49       		.uleb128 0x49
 983 00ce 13       		.uleb128 0x13
 984 00cf 00       		.byte	0
 985 00d0 00       		.byte	0
 986 00d1 11       		.uleb128 0x11
 987 00d2 34       		.uleb128 0x34
 988 00d3 00       		.byte	0
 989 00d4 03       		.uleb128 0x3
 990 00d5 0E       		.uleb128 0xe
 991 00d6 3A       		.uleb128 0x3a
 992 00d7 0B       		.uleb128 0xb
 993 00d8 3B       		.uleb128 0x3b
 994 00d9 0B       		.uleb128 0xb
 995 00da 49       		.uleb128 0x49
 996 00db 13       		.uleb128 0x13
 997 00dc 3F       		.uleb128 0x3f
 998 00dd 19       		.uleb128 0x19
 999 00de 02       		.uleb128 0x2
 1000 00df 18       		.uleb128 0x18
 1001 00e0 00       		.byte	0
 1002 00e1 00       		.byte	0
 1003 00e2 12       		.uleb128 0x12
 1004 00e3 15       		.uleb128 0x15
 1005 00e4 01       		.byte	0x1
 1006 00e5 27       		.uleb128 0x27
 1007 00e6 19       		.uleb128 0x19
 1008 00e7 01       		.uleb128 0x1
 1009 00e8 13       		.uleb128 0x13
 1010 00e9 00       		.byte	0
 1011 00ea 00       		.byte	0
 1012 00eb 13       		.uleb128 0x13
 1013 00ec 05       		.uleb128 0x5
 1014 00ed 00       		.byte	0
 1015 00ee 49       		.uleb128 0x49
 1016 00ef 13       		.uleb128 0x13
ARM GAS  C:\Users\Perro\AppData\Local\Temp\ccKdlVdp.s 			page 24


 1017 00f0 00       		.byte	0
 1018 00f1 00       		.byte	0
 1019 00f2 00       		.byte	0
 1020              		.section	.debug_aranges,"",%progbits
 1021 0000 1C000000 		.4byte	0x1c
 1022 0004 0200     		.2byte	0x2
 1023 0006 00000000 		.4byte	.Ldebug_info0
 1024 000a 04       		.byte	0x4
 1025 000b 00       		.byte	0
 1026 000c 0000     		.2byte	0
 1027 000e 0000     		.2byte	0
 1028 0010 00000000 		.4byte	.LFB63
 1029 0014 D4020000 		.4byte	.LFE63-.LFB63
 1030 0018 00000000 		.4byte	0
 1031 001c 00000000 		.4byte	0
 1032              		.section	.debug_ranges,"",%progbits
 1033              	.Ldebug_ranges0:
 1034 0000 00000000 		.4byte	.LFB63
 1035 0004 D4020000 		.4byte	.LFE63
 1036 0008 00000000 		.4byte	0
 1037 000c 00000000 		.4byte	0
 1038              		.section	.debug_line,"",%progbits
 1039              	.Ldebug_line0:
 1040 0000 E6010000 		.section	.debug_str,"MS",%progbits,1
 1040      02007201 
 1040      00000201 
 1040      FB0E0D00 
 1040      01010101 
 1041              	.LASF37:
 1042 0000 7072696E 		.ascii	"print_ptr\000"
 1042      745F7074 
 1042      7200
 1043              	.LASF4:
 1044 000a 5F5F7569 		.ascii	"__uint8_t\000"
 1044      6E74385F 
 1044      7400
 1045              	.LASF38:
 1046 0014 474E5520 		.ascii	"GNU C11 5.4.1 20160609 (release) [ARM/embedded-5-br"
 1046      43313120 
 1046      352E342E 
 1046      31203230 
 1046      31363036 
 1047 0047 616E6368 		.ascii	"anch revision 237715] -mcpu=cortex-m3 -mthumb -g -O"
 1047      20726576 
 1047      6973696F 
 1047      6E203233 
 1047      37373135 
 1048 007a 30202D66 		.ascii	"0 -ffunction-sections -ffat-lto-objects\000"
 1048      66756E63 
 1048      74696F6E 
 1048      2D736563 
 1048      74696F6E 
 1049              	.LASF5:
 1050 00a2 5F5F696E 		.ascii	"__int32_t\000"
 1050      7433325F 
 1050      7400
 1051              	.LASF29:
ARM GAS  C:\Users\Perro\AppData\Local\Temp\ccKdlVdp.s 			page 25


 1052 00ac 53616D70 		.ascii	"Samples\000"
 1052      6C657300 
 1053              	.LASF40:
 1054 00b4 433A5C55 		.ascii	"C:\\Users\\Perro\\Desktop\\AY2122_II_Project-1\\Pro"
 1054      73657273 
 1054      5C506572 
 1054      726F5C44 
 1054      65736B74 
 1055 00e2 6A656374 		.ascii	"ject_LTEBS\\Saturimetro.cydsn\000"
 1055      5F4C5445 
 1055      42535C53 
 1055      61747572 
 1055      696D6574 
 1056              	.LASF36:
 1057 00ff 666C6167 		.ascii	"flag_SR\000"
 1057      5F535200 
 1058              	.LASF13:
 1059 0107 696E7433 		.ascii	"int32_t\000"
 1059      325F7400 
 1060              	.LASF17:
 1061 010f 666C6F61 		.ascii	"float\000"
 1061      7400
 1062              	.LASF27:
 1063 0115 64617461 		.ascii	"data\000"
 1063      00
 1064              	.LASF0:
 1065 011a 7369676E 		.ascii	"signed char\000"
 1065      65642063 
 1065      68617200 
 1066              	.LASF1:
 1067 0126 756E7369 		.ascii	"unsigned char\000"
 1067      676E6564 
 1067      20636861 
 1067      7200
 1068              	.LASF41:
 1069 0134 55534552 		.ascii	"USER\000"
 1069      00
 1070              	.LASF39:
 1071 0139 55534552 		.ascii	"USER.c\000"
 1071      2E6300
 1072              	.LASF8:
 1073 0140 6C6F6E67 		.ascii	"long unsigned int\000"
 1073      20756E73 
 1073      69676E65 
 1073      6420696E 
 1073      7400
 1074              	.LASF30:
 1075 0152 50756C73 		.ascii	"Pulse_width\000"
 1075      655F7769 
 1075      64746800 
 1076              	.LASF3:
 1077 015e 73686F72 		.ascii	"short unsigned int\000"
 1077      7420756E 
 1077      7369676E 
 1077      65642069 
 1077      6E7400
 1078              	.LASF22:
ARM GAS  C:\Users\Perro\AppData\Local\Temp\ccKdlVdp.s 			page 26


 1079 0171 67726565 		.ascii	"green\000"
 1079      6E00
 1080              	.LASF31:
 1081 0177 50756C73 		.ascii	"Pulse_amp\000"
 1081      655F616D 
 1081      7000
 1082              	.LASF26:
 1083 0181 49544D5F 		.ascii	"ITM_RxBuffer\000"
 1083      52784275 
 1083      66666572 
 1083      00
 1084              	.LASF35:
 1085 018e 666C6167 		.ascii	"flag_PA\000"
 1085      5F504100 
 1086              	.LASF18:
 1087 0196 646F7562 		.ascii	"double\000"
 1087      6C6500
 1088              	.LASF16:
 1089 019d 75696E74 		.ascii	"uint16\000"
 1089      313600
 1090              	.LASF7:
 1091 01a4 5F5F7569 		.ascii	"__uint32_t\000"
 1091      6E743332 
 1091      5F7400
 1092              	.LASF23:
 1093 01af 68656164 		.ascii	"head\000"
 1093      00
 1094              	.LASF11:
 1095 01b4 756E7369 		.ascii	"unsigned int\000"
 1095      676E6564 
 1095      20696E74 
 1095      00
 1096              	.LASF10:
 1097 01c1 6C6F6E67 		.ascii	"long long unsigned int\000"
 1097      206C6F6E 
 1097      6720756E 
 1097      7369676E 
 1097      65642069 
 1098              	.LASF12:
 1099 01d8 75696E74 		.ascii	"uint8_t\000"
 1099      385F7400 
 1100              	.LASF33:
 1101 01e0 666C6167 		.ascii	"flag_ADC\000"
 1101      5F414443 
 1101      00
 1102              	.LASF34:
 1103 01e9 666C6167 		.ascii	"flag_PW\000"
 1103      5F505700 
 1104              	.LASF21:
 1105 01f1 73697A65 		.ascii	"sizetype\000"
 1105      74797065 
 1105      00
 1106              	.LASF9:
 1107 01fa 6C6F6E67 		.ascii	"long long int\000"
 1107      206C6F6E 
 1107      6720696E 
 1107      7400
ARM GAS  C:\Users\Perro\AppData\Local\Temp\ccKdlVdp.s 			page 27


 1108              	.LASF19:
 1109 0208 63686172 		.ascii	"char\000"
 1109      00
 1110              	.LASF28:
 1111 020d 4144435F 		.ascii	"ADC_range\000"
 1111      72616E67 
 1111      6500
 1112              	.LASF25:
 1113 0217 4D415833 		.ascii	"MAX30101_Data\000"
 1113      30313031 
 1113      5F446174 
 1113      6100
 1114              	.LASF2:
 1115 0225 73686F72 		.ascii	"short int\000"
 1115      7420696E 
 1115      7400
 1116              	.LASF15:
 1117 022f 75696E74 		.ascii	"uint8\000"
 1117      3800
 1118              	.LASF24:
 1119 0235 7461696C 		.ascii	"tail\000"
 1119      00
 1120              	.LASF32:
 1121 023a 41766572 		.ascii	"Average\000"
 1121      61676500 
 1122              	.LASF14:
 1123 0242 75696E74 		.ascii	"uint32_t\000"
 1123      33325F74 
 1123      00
 1124              	.LASF6:
 1125 024b 6C6F6E67 		.ascii	"long int\000"
 1125      20696E74 
 1125      00
 1126              	.LASF20:
 1127 0254 6C6F6E67 		.ascii	"long double\000"
 1127      20646F75 
 1127      626C6500 
 1128              		.ident	"GCC: (GNU Tools for ARM Embedded Processors) 5.4.1 20160609 (release) [ARM/embedded-5-bran
