ARM GAS  C:\Users\Perro\AppData\Local\Temp\ccKdlVdp.s 			page 1


   1              		.syntax unified
   2              		.cpu cortex-m3
   3              		.fpu softvfp
   4              		.eabi_attribute 20, 1
   5              		.eabi_attribute 21, 1
   6              		.eabi_attribute 23, 3
   7              		.eabi_attribute 24, 1
   8              		.eabi_attribute 25, 1
   9              		.eabi_attribute 26, 1
  10              		.eabi_attribute 30, 6
  11              		.eabi_attribute 34, 1
  12              		.eabi_attribute 18, 4
  13              		.thumb
  14              		.syntax unified
  15              		.file	"USER.c"
  16              		.text
  17              	.Ltext0:
  18              		.cfi_sections	.debug_frame
  19              		.comm	data,388,4
  20              		.comm	ADC_range,2,2
  21              		.comm	Samples,2,2
  22              		.comm	Pulse_width,2,2
  23              		.comm	Pulse_amp,2,2
  24              		.comm	Average,2,2
  25              		.comm	flag_ADC,1,1
  26              		.comm	flag_PW,1,1
  27              		.comm	flag_PA,1,1
  28              		.comm	flag_SR,1,1
  29              		.global	print_ptr
  30              		.data
  31              		.align	2
  32              		.type	print_ptr, %object
  33              		.size	print_ptr, 4
  34              	print_ptr:
  35 0000 00000000 		.word	UART_Debug_PutString
  36              		.section	.text.USER,"ax",%progbits
  37              		.align	2
  38              		.global	USER
  39              		.thumb
  40              		.thumb_func
  41              		.type	USER, %function
  42              	USER:
  43              	.LFB63:
  44              		.file 1 "USER.c"
   1:USER.c        **** #include "project.h"
   2:USER.c        **** #include "MAX30101.h"
   3:USER.c        **** #include "USER.h"
   4:USER.c        **** #include "parameters.h"
   5:USER.c        **** #include "setting_parameters.h"
   6:USER.c        **** 
   7:USER.c        **** #define UART_DEBUG
   8:USER.c        **** 
   9:USER.c        **** #ifdef UART_DEBUG
  10:USER.c        ****     
  11:USER.c        ****     #define DEBUG_TEST 1
  12:USER.c        ****     
  13:USER.c        **** #else
ARM GAS  C:\Users\Perro\AppData\Local\Temp\ccKdlVdp.s 			page 2


  14:USER.c        ****     
  15:USER.c        ****     #define DEBUG_TEST 0
  16:USER.c        ****     
  17:USER.c        **** #endif
  18:USER.c        **** 
  19:USER.c        **** #define debug_print(msg) do { if (DEBUG_TEST) UART_Debug_PutString(msg);} while (0)
  20:USER.c        **** #define FIFO_max_size 25
  21:USER.c        **** 
  22:USER.c        **** void (*print_ptr)(const char*) = &(UART_Debug_PutString);
  23:USER.c        **** extern uint8_t j;
  24:USER.c        **** 
  25:USER.c        **** void USER(uint8 x)
  26:USER.c        **** {
  45              		.loc 1 26 0
  46              		.cfi_startproc
  47              		@ args = 0, pretend = 0, frame = 8
  48              		@ frame_needed = 1, uses_anonymous_args = 0
  49              		@ link register save eliminated.
  50 0000 80B4     		push	{r7}
  51              		.cfi_def_cfa_offset 4
  52              		.cfi_offset 7, -4
  53 0002 83B0     		sub	sp, sp, #12
  54              		.cfi_def_cfa_offset 16
  55 0004 00AF     		add	r7, sp, #0
  56              		.cfi_def_cfa_register 7
  57 0006 0346     		mov	r3, r0
  58 0008 FB71     		strb	r3, [r7, #7]
  27:USER.c        ****     switch (x) {
  59              		.loc 1 27 0
  60 000a FB79     		ldrb	r3, [r7, #7]	@ zero_extendqisi2
  61 000c 413B     		subs	r3, r3, #65
  62 000e 392B     		cmp	r3, #57
  63 0010 00F24881 		bhi	.L32
  64 0014 01A2     		adr	r2, .L4
  65 0016 52F823F0 		ldr	pc, [r2, r3, lsl #2]
  66 001a 00BF     		.p2align 2
  67              	.L4:
  68 001c 43020000 		.word	.L3+1
  69 0020 51020000 		.word	.L5+1
  70 0024 5F020000 		.word	.L6+1
  71 0028 6D020000 		.word	.L7+1
  72 002c 7B020000 		.word	.L8+1
  73 0030 89020000 		.word	.L9+1
  74 0034 97020000 		.word	.L10+1
  75 0038 A5020000 		.word	.L32+1
  76 003c A5020000 		.word	.L32+1
  77 0040 A5020000 		.word	.L32+1
  78 0044 A5020000 		.word	.L32+1
  79 0048 A5020000 		.word	.L32+1
  80 004c A5020000 		.word	.L32+1
  81 0050 A5020000 		.word	.L32+1
  82 0054 A5020000 		.word	.L32+1
  83 0058 A5020000 		.word	.L32+1
  84 005c A5020000 		.word	.L32+1
  85 0060 A5020000 		.word	.L32+1
  86 0064 A5020000 		.word	.L32+1
  87 0068 A5020000 		.word	.L32+1
ARM GAS  C:\Users\Perro\AppData\Local\Temp\ccKdlVdp.s 			page 3


  88 006c A5020000 		.word	.L32+1
  89 0070 A5020000 		.word	.L32+1
  90 0074 A5020000 		.word	.L32+1
  91 0078 A5020000 		.word	.L32+1
  92 007c A5020000 		.word	.L32+1
  93 0080 A5020000 		.word	.L32+1
  94 0084 A5020000 		.word	.L32+1
  95 0088 A5020000 		.word	.L32+1
  96 008c A5020000 		.word	.L32+1
  97 0090 A5020000 		.word	.L32+1
  98 0094 A5020000 		.word	.L32+1
  99 0098 A5020000 		.word	.L32+1
 100 009c 05010000 		.word	.L11+1
 101 00a0 13010000 		.word	.L12+1
 102 00a4 21010000 		.word	.L13+1
 103 00a8 2F010000 		.word	.L14+1
 104 00ac 3D010000 		.word	.L15+1
 105 00b0 51010000 		.word	.L16+1
 106 00b4 65010000 		.word	.L17+1
 107 00b8 79010000 		.word	.L18+1
 108 00bc 8D010000 		.word	.L19+1
 109 00c0 A5020000 		.word	.L32+1
 110 00c4 A5020000 		.word	.L32+1
 111 00c8 9B010000 		.word	.L20+1
 112 00cc A9010000 		.word	.L21+1
 113 00d0 B7010000 		.word	.L22+1
 114 00d4 C5010000 		.word	.L23+1
 115 00d8 D3010000 		.word	.L24+1
 116 00dc E1010000 		.word	.L25+1
 117 00e0 EF010000 		.word	.L26+1
 118 00e4 FD010000 		.word	.L27+1
 119 00e8 0B020000 		.word	.L28+1
 120 00ec 19020000 		.word	.L29+1
 121 00f0 27020000 		.word	.L30+1
 122 00f4 A5020000 		.word	.L32+1
 123 00f8 A5020000 		.word	.L32+1
 124 00fc A5020000 		.word	.L32+1
 125 0100 35020000 		.word	.L31+1
 126              		.p2align 1
 127              	.L11:
  28:USER.c        ****         
  29:USER.c        ****         //ADC range
  30:USER.c        ****         case 'a':
  31:USER.c        ****         ADC_range = MAX30101_ADC_RANGE_2048;
 128              		.loc 1 31 0
 129 0104 6A4B     		ldr	r3, .L33
 130 0106 0022     		movs	r2, #0
 131 0108 1A80     		strh	r2, [r3]	@ movhi
  32:USER.c        ****         flag_ADC = 1;
 132              		.loc 1 32 0
 133 010a 6A4B     		ldr	r3, .L33+4
 134 010c 0122     		movs	r2, #1
 135 010e 1A70     		strb	r2, [r3]
  33:USER.c        ****         break;
 136              		.loc 1 33 0
 137 0110 C8E0     		b	.L2
 138              	.L12:
ARM GAS  C:\Users\Perro\AppData\Local\Temp\ccKdlVdp.s 			page 4


  34:USER.c        ****         
  35:USER.c        ****         case 'b':
  36:USER.c        ****         ADC_range = MAX30101_ADC_RANGE_4096;
 139              		.loc 1 36 0
 140 0112 674B     		ldr	r3, .L33
 141 0114 2022     		movs	r2, #32
 142 0116 1A80     		strh	r2, [r3]	@ movhi
  37:USER.c        ****         flag_ADC = 1;
 143              		.loc 1 37 0
 144 0118 664B     		ldr	r3, .L33+4
 145 011a 0122     		movs	r2, #1
 146 011c 1A70     		strb	r2, [r3]
  38:USER.c        ****         break;
 147              		.loc 1 38 0
 148 011e C1E0     		b	.L2
 149              	.L13:
  39:USER.c        ****         
  40:USER.c        ****         case 'c':
  41:USER.c        ****         ADC_range = MAX30101_ADC_RANGE_8192;
 150              		.loc 1 41 0
 151 0120 634B     		ldr	r3, .L33
 152 0122 4022     		movs	r2, #64
 153 0124 1A80     		strh	r2, [r3]	@ movhi
  42:USER.c        ****         flag_ADC = 1;
 154              		.loc 1 42 0
 155 0126 634B     		ldr	r3, .L33+4
 156 0128 0122     		movs	r2, #1
 157 012a 1A70     		strb	r2, [r3]
  43:USER.c        ****         break;
 158              		.loc 1 43 0
 159 012c BAE0     		b	.L2
 160              	.L14:
  44:USER.c        ****         
  45:USER.c        ****         case 'd':
  46:USER.c        ****         ADC_range = MAX30101_ADC_RANGE_16384;
 161              		.loc 1 46 0
 162 012e 604B     		ldr	r3, .L33
 163 0130 6022     		movs	r2, #96
 164 0132 1A80     		strh	r2, [r3]	@ movhi
  47:USER.c        ****         flag_ADC = 1;
 165              		.loc 1 47 0
 166 0134 5F4B     		ldr	r3, .L33+4
 167 0136 0122     		movs	r2, #1
 168 0138 1A70     		strb	r2, [r3]
  48:USER.c        ****         break;
 169              		.loc 1 48 0
 170 013a B3E0     		b	.L2
 171              	.L15:
  49:USER.c        ****         
  50:USER.c        ****         
  51:USER.c        ****         //sample rate
  52:USER.c        ****         case 'e':
  53:USER.c        ****         Samples = MAX30101_SAMPLE_RATE_50;
 172              		.loc 1 53 0
 173 013c 5E4B     		ldr	r3, .L33+8
 174 013e 0022     		movs	r2, #0
 175 0140 1A80     		strh	r2, [r3]	@ movhi
ARM GAS  C:\Users\Perro\AppData\Local\Temp\ccKdlVdp.s 			page 5


  54:USER.c        ****         Average = MAX30101_SAMPLE_AVG_1;
 176              		.loc 1 54 0
 177 0142 5E4B     		ldr	r3, .L33+12
 178 0144 0022     		movs	r2, #0
 179 0146 1A80     		strh	r2, [r3]	@ movhi
  55:USER.c        ****         flag_SR = 1;
 180              		.loc 1 55 0
 181 0148 5D4B     		ldr	r3, .L33+16
 182 014a 0122     		movs	r2, #1
 183 014c 1A70     		strb	r2, [r3]
  56:USER.c        ****         break;
 184              		.loc 1 56 0
 185 014e A9E0     		b	.L2
 186              	.L16:
  57:USER.c        ****         
  58:USER.c        ****         case 'f':
  59:USER.c        ****         Samples = MAX30101_SAMPLE_RATE_100;
 187              		.loc 1 59 0
 188 0150 594B     		ldr	r3, .L33+8
 189 0152 0422     		movs	r2, #4
 190 0154 1A80     		strh	r2, [r3]	@ movhi
  60:USER.c        ****         Average = MAX30101_SAMPLE_AVG_2;
 191              		.loc 1 60 0
 192 0156 594B     		ldr	r3, .L33+12
 193 0158 2022     		movs	r2, #32
 194 015a 1A80     		strh	r2, [r3]	@ movhi
  61:USER.c        ****         flag_SR = 1;
 195              		.loc 1 61 0
 196 015c 584B     		ldr	r3, .L33+16
 197 015e 0122     		movs	r2, #1
 198 0160 1A70     		strb	r2, [r3]
  62:USER.c        ****         break;
 199              		.loc 1 62 0
 200 0162 9FE0     		b	.L2
 201              	.L17:
  63:USER.c        ****         
  64:USER.c        ****         case 'g':
  65:USER.c        ****         Samples = MAX30101_SAMPLE_RATE_200;
 202              		.loc 1 65 0
 203 0164 544B     		ldr	r3, .L33+8
 204 0166 0822     		movs	r2, #8
 205 0168 1A80     		strh	r2, [r3]	@ movhi
  66:USER.c        ****         Average = MAX30101_SAMPLE_AVG_4;
 206              		.loc 1 66 0
 207 016a 544B     		ldr	r3, .L33+12
 208 016c 4022     		movs	r2, #64
 209 016e 1A80     		strh	r2, [r3]	@ movhi
  67:USER.c        ****         flag_SR = 1;
 210              		.loc 1 67 0
 211 0170 534B     		ldr	r3, .L33+16
 212 0172 0122     		movs	r2, #1
 213 0174 1A70     		strb	r2, [r3]
  68:USER.c        ****         break;
 214              		.loc 1 68 0
 215 0176 95E0     		b	.L2
 216              	.L18:
  69:USER.c        ****         
ARM GAS  C:\Users\Perro\AppData\Local\Temp\ccKdlVdp.s 			page 6


  70:USER.c        ****         case 'h':
  71:USER.c        ****         Samples = MAX30101_SAMPLE_RATE_400;
 217              		.loc 1 71 0
 218 0178 4F4B     		ldr	r3, .L33+8
 219 017a 0C22     		movs	r2, #12
 220 017c 1A80     		strh	r2, [r3]	@ movhi
  72:USER.c        ****         Average = MAX30101_SAMPLE_AVG_8;
 221              		.loc 1 72 0
 222 017e 4F4B     		ldr	r3, .L33+12
 223 0180 6022     		movs	r2, #96
 224 0182 1A80     		strh	r2, [r3]	@ movhi
  73:USER.c        ****         flag_SR = 1;
 225              		.loc 1 73 0
 226 0184 4E4B     		ldr	r3, .L33+16
 227 0186 0122     		movs	r2, #1
 228 0188 1A70     		strb	r2, [r3]
  74:USER.c        ****         break;
 229              		.loc 1 74 0
 230 018a 8BE0     		b	.L2
 231              	.L19:
  75:USER.c        ****         
  76:USER.c        ****         //pulse width
  77:USER.c        ****         case 'i':
  78:USER.c        ****         Pulse_width = MAX30101_PULSEWIDTH_69;
 232              		.loc 1 78 0
 233 018c 4D4B     		ldr	r3, .L33+20
 234 018e 0022     		movs	r2, #0
 235 0190 1A80     		strh	r2, [r3]	@ movhi
  79:USER.c        ****         flag_PW = 1;
 236              		.loc 1 79 0
 237 0192 4D4B     		ldr	r3, .L33+24
 238 0194 0122     		movs	r2, #1
 239 0196 1A70     		strb	r2, [r3]
  80:USER.c        ****         break;
 240              		.loc 1 80 0
 241 0198 84E0     		b	.L2
 242              	.L20:
  81:USER.c        ****         
  82:USER.c        ****         case 'l':
  83:USER.c        ****         Pulse_width = MAX30101_PULSEWIDTH_118;
 243              		.loc 1 83 0
 244 019a 4A4B     		ldr	r3, .L33+20
 245 019c 0122     		movs	r2, #1
 246 019e 1A80     		strh	r2, [r3]	@ movhi
  84:USER.c        ****         flag_PW = 1;
 247              		.loc 1 84 0
 248 01a0 494B     		ldr	r3, .L33+24
 249 01a2 0122     		movs	r2, #1
 250 01a4 1A70     		strb	r2, [r3]
  85:USER.c        ****         break;
 251              		.loc 1 85 0
 252 01a6 7DE0     		b	.L2
 253              	.L21:
  86:USER.c        ****         
  87:USER.c        ****         case 'm':
  88:USER.c        ****         Pulse_width = MAX30101_PULSEWIDTH_215;
 254              		.loc 1 88 0
ARM GAS  C:\Users\Perro\AppData\Local\Temp\ccKdlVdp.s 			page 7


 255 01a8 464B     		ldr	r3, .L33+20
 256 01aa 0222     		movs	r2, #2
 257 01ac 1A80     		strh	r2, [r3]	@ movhi
  89:USER.c        ****         flag_PW = 1;
 258              		.loc 1 89 0
 259 01ae 464B     		ldr	r3, .L33+24
 260 01b0 0122     		movs	r2, #1
 261 01b2 1A70     		strb	r2, [r3]
  90:USER.c        ****         break;
 262              		.loc 1 90 0
 263 01b4 76E0     		b	.L2
 264              	.L22:
  91:USER.c        ****         
  92:USER.c        ****         case 'n':
  93:USER.c        ****         Pulse_width = MAX30101_PULSEWIDTH_411;
 265              		.loc 1 93 0
 266 01b6 434B     		ldr	r3, .L33+20
 267 01b8 0322     		movs	r2, #3
 268 01ba 1A80     		strh	r2, [r3]	@ movhi
  94:USER.c        ****         flag_PW = 1;
 269              		.loc 1 94 0
 270 01bc 424B     		ldr	r3, .L33+24
 271 01be 0122     		movs	r2, #1
 272 01c0 1A70     		strb	r2, [r3]
  95:USER.c        ****         break;
 273              		.loc 1 95 0
 274 01c2 6FE0     		b	.L2
 275              	.L23:
  96:USER.c        ****         
  97:USER.c        ****         //pulse amplitudes
  98:USER.c        ****         case 'o':
  99:USER.c        ****         Pulse_amp = 0x01;
 276              		.loc 1 99 0
 277 01c4 414B     		ldr	r3, .L33+28
 278 01c6 0122     		movs	r2, #1
 279 01c8 1A80     		strh	r2, [r3]	@ movhi
 100:USER.c        ****         flag_PA = 1;
 280              		.loc 1 100 0
 281 01ca 414B     		ldr	r3, .L33+32
 282 01cc 0122     		movs	r2, #1
 283 01ce 1A70     		strb	r2, [r3]
 101:USER.c        ****         break;
 284              		.loc 1 101 0
 285 01d0 68E0     		b	.L2
 286              	.L24:
 102:USER.c        ****         
 103:USER.c        ****         case 'p':
 104:USER.c        ****         Pulse_amp = 0x03;
 287              		.loc 1 104 0
 288 01d2 3E4B     		ldr	r3, .L33+28
 289 01d4 0322     		movs	r2, #3
 290 01d6 1A80     		strh	r2, [r3]	@ movhi
 105:USER.c        ****         flag_PA = 1;
 291              		.loc 1 105 0
 292 01d8 3D4B     		ldr	r3, .L33+32
 293 01da 0122     		movs	r2, #1
 294 01dc 1A70     		strb	r2, [r3]
ARM GAS  C:\Users\Perro\AppData\Local\Temp\ccKdlVdp.s 			page 8


 106:USER.c        ****         break;
 295              		.loc 1 106 0
 296 01de 61E0     		b	.L2
 297              	.L25:
 107:USER.c        ****         
 108:USER.c        ****         case 'q':
 109:USER.c        ****         Pulse_amp = 0x05;
 298              		.loc 1 109 0
 299 01e0 3A4B     		ldr	r3, .L33+28
 300 01e2 0522     		movs	r2, #5
 301 01e4 1A80     		strh	r2, [r3]	@ movhi
 110:USER.c        ****         flag_PA = 1;
 302              		.loc 1 110 0
 303 01e6 3A4B     		ldr	r3, .L33+32
 304 01e8 0122     		movs	r2, #1
 305 01ea 1A70     		strb	r2, [r3]
 111:USER.c        ****         break;
 306              		.loc 1 111 0
 307 01ec 5AE0     		b	.L2
 308              	.L26:
 112:USER.c        ****         
 113:USER.c        ****         case 'r':
 114:USER.c        ****         Pulse_amp = 0x07;
 309              		.loc 1 114 0
 310 01ee 374B     		ldr	r3, .L33+28
 311 01f0 0722     		movs	r2, #7
 312 01f2 1A80     		strh	r2, [r3]	@ movhi
 115:USER.c        ****         flag_PA = 1;
 313              		.loc 1 115 0
 314 01f4 364B     		ldr	r3, .L33+32
 315 01f6 0122     		movs	r2, #1
 316 01f8 1A70     		strb	r2, [r3]
 116:USER.c        ****         break;
 317              		.loc 1 116 0
 318 01fa 53E0     		b	.L2
 319              	.L27:
 117:USER.c        ****         
 118:USER.c        ****         case 's':
 119:USER.c        ****         Pulse_amp = 0x09;
 320              		.loc 1 119 0
 321 01fc 334B     		ldr	r3, .L33+28
 322 01fe 0922     		movs	r2, #9
 323 0200 1A80     		strh	r2, [r3]	@ movhi
 120:USER.c        ****         flag_PA = 1;
 324              		.loc 1 120 0
 325 0202 334B     		ldr	r3, .L33+32
 326 0204 0122     		movs	r2, #1
 327 0206 1A70     		strb	r2, [r3]
 121:USER.c        ****         break;
 328              		.loc 1 121 0
 329 0208 4CE0     		b	.L2
 330              	.L28:
 122:USER.c        ****         
 123:USER.c        ****         case 't':
 124:USER.c        ****         Pulse_amp = 0x0B;
 331              		.loc 1 124 0
 332 020a 304B     		ldr	r3, .L33+28
ARM GAS  C:\Users\Perro\AppData\Local\Temp\ccKdlVdp.s 			page 9


 333 020c 0B22     		movs	r2, #11
 334 020e 1A80     		strh	r2, [r3]	@ movhi
 125:USER.c        ****         flag_PA = 1;
 335              		.loc 1 125 0
 336 0210 2F4B     		ldr	r3, .L33+32
 337 0212 0122     		movs	r2, #1
 338 0214 1A70     		strb	r2, [r3]
 126:USER.c        ****         break;
 339              		.loc 1 126 0
 340 0216 45E0     		b	.L2
 341              	.L29:
 127:USER.c        ****         
 128:USER.c        ****         case 'u':
 129:USER.c        ****         Pulse_amp = 0x0D;
 342              		.loc 1 129 0
 343 0218 2C4B     		ldr	r3, .L33+28
 344 021a 0D22     		movs	r2, #13
 345 021c 1A80     		strh	r2, [r3]	@ movhi
 130:USER.c        ****         flag_PA = 1;
 346              		.loc 1 130 0
 347 021e 2C4B     		ldr	r3, .L33+32
 348 0220 0122     		movs	r2, #1
 349 0222 1A70     		strb	r2, [r3]
 131:USER.c        ****         break;
 350              		.loc 1 131 0
 351 0224 3EE0     		b	.L2
 352              	.L30:
 132:USER.c        ****         
 133:USER.c        ****         case 'v':
 134:USER.c        ****         Pulse_amp = 0x0F;
 353              		.loc 1 134 0
 354 0226 294B     		ldr	r3, .L33+28
 355 0228 0F22     		movs	r2, #15
 356 022a 1A80     		strh	r2, [r3]	@ movhi
 135:USER.c        ****         flag_PA = 1;
 357              		.loc 1 135 0
 358 022c 284B     		ldr	r3, .L33+32
 359 022e 0122     		movs	r2, #1
 360 0230 1A70     		strb	r2, [r3]
 136:USER.c        ****         break;
 361              		.loc 1 136 0
 362 0232 37E0     		b	.L2
 363              	.L31:
 137:USER.c        ****         
 138:USER.c        ****         case 'z':
 139:USER.c        ****         Pulse_amp = 0x11;
 364              		.loc 1 139 0
 365 0234 254B     		ldr	r3, .L33+28
 366 0236 1122     		movs	r2, #17
 367 0238 1A80     		strh	r2, [r3]	@ movhi
 140:USER.c        ****         flag_PA = 1;
 368              		.loc 1 140 0
 369 023a 254B     		ldr	r3, .L33+32
 370 023c 0122     		movs	r2, #1
 371 023e 1A70     		strb	r2, [r3]
 141:USER.c        ****         break;
 372              		.loc 1 141 0
ARM GAS  C:\Users\Perro\AppData\Local\Temp\ccKdlVdp.s 			page 10


 373 0240 30E0     		b	.L2
 374              	.L3:
 142:USER.c        ****         
 143:USER.c        ****         case 'A':
 144:USER.c        ****         Pulse_amp = 0x13;
 375              		.loc 1 144 0
 376 0242 224B     		ldr	r3, .L33+28
 377 0244 1322     		movs	r2, #19
 378 0246 1A80     		strh	r2, [r3]	@ movhi
 145:USER.c        ****         flag_PA = 1;
 379              		.loc 1 145 0
 380 0248 214B     		ldr	r3, .L33+32
 381 024a 0122     		movs	r2, #1
 382 024c 1A70     		strb	r2, [r3]
 146:USER.c        ****         break;
 383              		.loc 1 146 0
 384 024e 29E0     		b	.L2
 385              	.L5:
 147:USER.c        ****         
 148:USER.c        ****         case 'B':
 149:USER.c        ****         Pulse_amp = 0x15;
 386              		.loc 1 149 0
 387 0250 1E4B     		ldr	r3, .L33+28
 388 0252 1522     		movs	r2, #21
 389 0254 1A80     		strh	r2, [r3]	@ movhi
 150:USER.c        ****         flag_PA = 1;
 390              		.loc 1 150 0
 391 0256 1E4B     		ldr	r3, .L33+32
 392 0258 0122     		movs	r2, #1
 393 025a 1A70     		strb	r2, [r3]
 151:USER.c        ****         break;
 394              		.loc 1 151 0
 395 025c 22E0     		b	.L2
 396              	.L6:
 152:USER.c        ****         
 153:USER.c        ****         case 'C':
 154:USER.c        ****         Pulse_amp = 0x17;
 397              		.loc 1 154 0
 398 025e 1B4B     		ldr	r3, .L33+28
 399 0260 1722     		movs	r2, #23
 400 0262 1A80     		strh	r2, [r3]	@ movhi
 155:USER.c        ****         flag_PA = 1;
 401              		.loc 1 155 0
 402 0264 1A4B     		ldr	r3, .L33+32
 403 0266 0122     		movs	r2, #1
 404 0268 1A70     		strb	r2, [r3]
 156:USER.c        ****         break;
 405              		.loc 1 156 0
 406 026a 1BE0     		b	.L2
 407              	.L7:
 157:USER.c        ****         
 158:USER.c        ****         case 'D':
 159:USER.c        ****         Pulse_amp = 0x19;
 408              		.loc 1 159 0
 409 026c 174B     		ldr	r3, .L33+28
 410 026e 1922     		movs	r2, #25
 411 0270 1A80     		strh	r2, [r3]	@ movhi
ARM GAS  C:\Users\Perro\AppData\Local\Temp\ccKdlVdp.s 			page 11


 160:USER.c        ****         flag_PA = 1;
 412              		.loc 1 160 0
 413 0272 174B     		ldr	r3, .L33+32
 414 0274 0122     		movs	r2, #1
 415 0276 1A70     		strb	r2, [r3]
 161:USER.c        ****         break;
 416              		.loc 1 161 0
 417 0278 14E0     		b	.L2
 418              	.L8:
 162:USER.c        ****         
 163:USER.c        ****         case 'E':
 164:USER.c        ****         Pulse_amp = 0x1B;
 419              		.loc 1 164 0
 420 027a 144B     		ldr	r3, .L33+28
 421 027c 1B22     		movs	r2, #27
 422 027e 1A80     		strh	r2, [r3]	@ movhi
 165:USER.c        ****         flag_PA = 1;
 423              		.loc 1 165 0
 424 0280 134B     		ldr	r3, .L33+32
 425 0282 0122     		movs	r2, #1
 426 0284 1A70     		strb	r2, [r3]
 166:USER.c        ****         break;
 427              		.loc 1 166 0
 428 0286 0DE0     		b	.L2
 429              	.L9:
 167:USER.c        ****         
 168:USER.c        ****         case 'F':
 169:USER.c        ****         Pulse_amp = 0x1D;
 430              		.loc 1 169 0
 431 0288 104B     		ldr	r3, .L33+28
 432 028a 1D22     		movs	r2, #29
 433 028c 1A80     		strh	r2, [r3]	@ movhi
 170:USER.c        ****         flag_PA = 1;
 434              		.loc 1 170 0
 435 028e 104B     		ldr	r3, .L33+32
 436 0290 0122     		movs	r2, #1
 437 0292 1A70     		strb	r2, [r3]
 171:USER.c        ****         break;
 438              		.loc 1 171 0
 439 0294 06E0     		b	.L2
 440              	.L10:
 172:USER.c        ****         
 173:USER.c        ****         case 'G':
 174:USER.c        ****         Pulse_amp = 0x1F;
 441              		.loc 1 174 0
 442 0296 0D4B     		ldr	r3, .L33+28
 443 0298 1F22     		movs	r2, #31
 444 029a 1A80     		strh	r2, [r3]	@ movhi
 175:USER.c        ****         flag_PA = 1;
 445              		.loc 1 175 0
 446 029c 0C4B     		ldr	r3, .L33+32
 447 029e 0122     		movs	r2, #1
 448 02a0 1A70     		strb	r2, [r3]
 176:USER.c        ****         break;
 449              		.loc 1 176 0
 450 02a2 00BF     		nop
 451              	.L2:
ARM GAS  C:\Users\Perro\AppData\Local\Temp\ccKdlVdp.s 			page 12


 452              	.L32:
 177:USER.c        ****     }
 178:USER.c        ****         
 179:USER.c        ****     
 180:USER.c        ****     /*if(x== '69') MAX30101_SetSpO2PulseWidth(MAX30101_PULSEWIDTH_69);
 181:USER.c        ****     if(x== '118') MAX30101_SetSpO2PulseWidth(MAX30101_PULSEWIDTH_118);
 182:USER.c        ****     if(x== '215') MAX30101_SetSpO2PulseWidth(MAX30101_PULSEWIDTH_215);
 183:USER.c        ****     if(x== '411') MAX30101_SetSpO2PulseWidth(MAX30101_PULSEWIDTH_411);
 184:USER.c        ****     
 185:USER.c        ****     if(x== '50') 
 186:USER.c        ****     {
 187:USER.c        ****         MAX30101_SetSpO2SampleRate(MAX30101_SAMPLE_RATE_50);
 188:USER.c        ****         MAX30101_SetSampleAverage(MAX30101_SAMPLE_AVG_1);
 189:USER.c        ****     }
 190:USER.c        ****     if(x=='100') 
 191:USER.c        ****     {
 192:USER.c        ****         MAX30101_SetSpO2SampleRate(MAX30101_SAMPLE_RATE_100);
 193:USER.c        ****         MAX30101_SetSampleAverage(MAX30101_SAMPLE_AVG_2);
 194:USER.c        ****     }
 195:USER.c        ****     if(x=='200') 
 196:USER.c        ****     {
 197:USER.c        ****         MAX30101_SetSpO2SampleRate(MAX30101_SAMPLE_RATE_200);
 198:USER.c        ****         MAX30101_SetSampleAverage(MAX30101_SAMPLE_AVG_4);
 199:USER.c        ****     }
 200:USER.c        ****     if(x=='400') //Sample Rate 400
 201:USER.c        ****     {
 202:USER.c        ****         MAX30101_SetSpO2SampleRate(MAX30101_SAMPLE_RATE_400);
 203:USER.c        ****         MAX30101_SetSampleAverage(MAX30101_SAMPLE_AVG_8);
 204:USER.c        ****     }
 205:USER.c        ****     
 206:USER.c        ****     if(x=='0.2') 
 207:USER.c        ****     {
 208:USER.c        ****         MAX30101_SetLEDPulseAmplitude(MAX30101_LED_1, 0x01);
 209:USER.c        ****         MAX30101_SetLEDPulseAmplitude(MAX30101_LED_2, 0x01);
 210:USER.c        ****     }
 211:USER.c        ****     if(x=='0.6') 
 212:USER.c        ****     {
 213:USER.c        ****         MAX30101_SetLEDPulseAmplitude(MAX30101_LED_1, 0x03);
 214:USER.c        ****         MAX30101_SetLEDPulseAmplitude(MAX30101_LED_2, 0x03);
 215:USER.c        ****     }
 216:USER.c        ****     if(x=='1.0') 
 217:USER.c        ****     {
 218:USER.c        ****         MAX30101_SetLEDPulseAmplitude(MAX30101_LED_1, 0x05);
 219:USER.c        ****         MAX30101_SetLEDPulseAmplitude(MAX30101_LED_2, 0x05);
 220:USER.c        ****     }
 221:USER.c        ****     if(x=='1.4') 
 222:USER.c        ****     {
 223:USER.c        ****         MAX30101_SetLEDPulseAmplitude(MAX30101_LED_1, 0x07);
 224:USER.c        ****         MAX30101_SetLEDPulseAmplitude(MAX30101_LED_2, 0x07);
 225:USER.c        ****     }
 226:USER.c        ****     if(x=='1.8') 
 227:USER.c        ****     {
 228:USER.c        ****         MAX30101_SetLEDPulseAmplitude(MAX30101_LED_1, 0x09);
 229:USER.c        ****         MAX30101_SetLEDPulseAmplitude(MAX30101_LED_2, 0x09);
 230:USER.c        ****     }
 231:USER.c        ****     if(x=='2.2') 
 232:USER.c        ****     {
ARM GAS  C:\Users\Perro\AppData\Local\Temp\ccKdlVdp.s 			page 13


 233:USER.c        ****         MAX30101_SetLEDPulseAmplitude(MAX30101_LED_1, 0x0B);
 234:USER.c        ****         MAX30101_SetLEDPulseAmplitude(MAX30101_LED_2, 0x0B);
 235:USER.c        ****     }
 236:USER.c        ****     if(x=='2.6') 
 237:USER.c        ****     {
 238:USER.c        ****         MAX30101_SetLEDPulseAmplitude(MAX30101_LED_1, 0x0D);
 239:USER.c        ****         MAX30101_SetLEDPulseAmplitude(MAX30101_LED_2, 0x0D);
 240:USER.c        ****     }
 241:USER.c        ****     if(x=='3.0') 
 242:USER.c        ****     {
 243:USER.c        ****         MAX30101_SetLEDPulseAmplitude(MAX30101_LED_1, 0x0F);
 244:USER.c        ****         MAX30101_SetLEDPulseAmplitude(MAX30101_LED_2, 0x0F);
 245:USER.c        ****     }
 246:USER.c        ****     if(x=='3.4') 
 247:USER.c        ****     {
 248:USER.c        ****         MAX30101_SetLEDPulseAmplitude(MAX30101_LED_1, 0x11);
 249:USER.c        ****         MAX30101_SetLEDPulseAmplitude(MAX30101_LED_2, 0x11);
 250:USER.c        ****     }
 251:USER.c        ****     if(x=='3.8') 
 252:USER.c        ****     {
 253:USER.c        ****         MAX30101_SetLEDPulseAmplitude(MAX30101_LED_1, 0x13);
 254:USER.c        ****         MAX30101_SetLEDPulseAmplitude(MAX30101_LED_2, 0x13);
 255:USER.c        ****     }
 256:USER.c        ****     if(x=='4.2') 
 257:USER.c        ****     {
 258:USER.c        ****         MAX30101_SetLEDPulseAmplitude(MAX30101_LED_1, 0x15);
 259:USER.c        ****         MAX30101_SetLEDPulseAmplitude(MAX30101_LED_2, 0x15);
 260:USER.c        ****     }
 261:USER.c        ****     if(x=='4.6') 
 262:USER.c        ****     {
 263:USER.c        ****         MAX30101_SetLEDPulseAmplitude(MAX30101_LED_1, 0x17);
 264:USER.c        ****         MAX30101_SetLEDPulseAmplitude(MAX30101_LED_2, 0x17);
 265:USER.c        ****     }
 266:USER.c        ****     if(x=='5.0') 
 267:USER.c        ****     {
 268:USER.c        ****         MAX30101_SetLEDPulseAmplitude(MAX30101_LED_1, 0x19);
 269:USER.c        ****         MAX30101_SetLEDPulseAmplitude(MAX30101_LED_2, 0x19);
 270:USER.c        ****     }
 271:USER.c        ****     if(x=='5.4') 
 272:USER.c        ****     {
 273:USER.c        ****         MAX30101_SetLEDPulseAmplitude(MAX30101_LED_1, 0x1B);
 274:USER.c        ****         MAX30101_SetLEDPulseAmplitude(MAX30101_LED_2, 0x1B);
 275:USER.c        ****     }
 276:USER.c        ****     if(x=='5.8') 
 277:USER.c        ****     {
 278:USER.c        ****         MAX30101_SetLEDPulseAmplitude(MAX30101_LED_1, 0x1D);
 279:USER.c        ****         MAX30101_SetLEDPulseAmplitude(MAX30101_LED_2, 0x1D);
 280:USER.c        ****     }
 281:USER.c        ****     if(x=='6.2') 
 282:USER.c        ****     {
 283:USER.c        ****         MAX30101_SetLEDPulseAmplitude(MAX30101_LED_1, 0x1F);
 284:USER.c        ****         MAX30101_SetLEDPulseAmplitude(MAX30101_LED_2, 0x1F);
 285:USER.c        ****     }
 286:USER.c        ****     */
 287:USER.c        **** 
 288:USER.c        **** 
 289:USER.c        **** 
ARM GAS  C:\Users\Perro\AppData\Local\Temp\ccKdlVdp.s 			page 14


 290:USER.c        ****     //LED_PW: 69 118 215 411
 291:USER.c        ****     //SAMPLES: 50 100 200 400
 292:USER.c        ****     // CURRENT: da 0.2 a 6.2 con STEP 0.4
 293:USER.c        ****     // SPO2: 2048 4096 8192 16384
 294:USER.c        ****     
 295:USER.c        **** }...
 453              		.loc 1 295 0
 454 02a4 00BF     		nop
 455 02a6 0C37     		adds	r7, r7, #12
 456              		.cfi_def_cfa_offset 4
 457 02a8 BD46     		mov	sp, r7
 458              		.cfi_def_cfa_register 13
 459              		@ sp needed
 460 02aa 80BC     		pop	{r7}
 461              		.cfi_restore 7
 462              		.cfi_def_cfa_offset 0
 463 02ac 7047     		bx	lr
 464              	.L34:
 465 02ae 00BF     		.align	2
 466              	.L33:
 467 02b0 00000000 		.word	ADC_range
 468 02b4 00000000 		.word	flag_ADC
 469 02b8 00000000 		.word	Samples
 470 02bc 00000000 		.word	Average
 471 02c0 00000000 		.word	flag_SR
 472 02c4 00000000 		.word	Pulse_width
 473 02c8 00000000 		.word	flag_PW
 474 02cc 00000000 		.word	Pulse_amp
 475 02d0 00000000 		.word	flag_PA
 476              		.cfi_endproc
 477              	.LFE63:
 478              		.size	USER, .-USER
 479              		.text
 480              	.Letext0:
 481              		.file 2 "c:\\program files (x86)\\cypress\\psoc creator\\4.4\\psoc creator\\import\\gnu\\arm\\5.4.
 482              		.file 3 "c:\\program files (x86)\\cypress\\psoc creator\\4.4\\psoc creator\\import\\gnu\\arm\\5.4.
 483              		.file 4 "Generated_Source\\PSoC5/cytypes.h"
 484              		.file 5 "MAX30101.h"
 485              		.file 6 "Generated_Source\\PSoC5/core_cm3.h"
 486              		.file 7 "setting_parameters.h"